 mysqld-debug

 Timestamp is 4807840b (Thu Apr 17 18:08:27 2008)

 Preferred load address is 0000000000400000

 Start         Length     Name                   Class
 0001:00000000 007754c2H .text                   CODE
 0001:007754d0 00001026H .text$0                 CODE
 0001:00776500 00001118H .text$00                CODE
 0001:00777620 00012536H .text$yc                CODE
 0001:00789b60 000048c7H .text$yd                CODE
 0002:00000000 00001769H TEXT                    CODE
 0003:00000000 00000109H .CRT$XCA                DATA
 0003:00000110 00000e60H .CRT$XCU                DATA
 0003:00000f70 00000109H .CRT$XCZ                DATA
 0003:00001080 00000109H .CRT$XIA                DATA
 0003:00001190 00000126H .CRT$XIC                DATA
 0003:000012b8 00000109H .CRT$XIY                DATA
 0003:000013c8 00000109H .CRT$XIZ                DATA
 0003:000014d8 00000008H .CRT$XLA                DATA
 0003:000014e0 00000008H .CRT$XLZ                DATA
 0003:000014e8 00000109H .CRT$XPA                DATA
 0003:000015f8 00000113H .CRT$XPX                DATA
 0003:00001710 00000109H .CRT$XPXA               DATA
 0003:00001820 00000109H .CRT$XPZ                DATA
 0003:00001930 00000109H .CRT$XTA                DATA
 0003:00001a40 00000109H .CRT$XTB                DATA
 0003:00001b50 00000109H .CRT$XTZ                DATA
 0003:00001c60 00256b84H .rdata                  DATA
 0003:002587e8 00000130H .rdata$T                DATA
 0003:00258918 000001a8H .rdata$debug            DATA
 0003:00258ac0 0001bbd1H .rdata$r                DATA
 0003:00274698 00000109H .rtc$IAA                DATA
 0003:002747a8 00000edbH .rtc$IMZ                DATA
 0003:00275688 00000109H .rtc$IZZ                DATA
 0003:00275798 00000109H .rtc$TAA                DATA
 0003:002758a8 00000edbH .rtc$TMZ                DATA
 0003:00276788 00000109H .rtc$TZZ                DATA
 0003:00276898 00054184H .xdata                  DATA
 0003:002caa20 00000211H .xdata$x                DATA
 0003:002cac31 00000000H .edata                  DATA
 0004:00000000 001bd907H .data                   DATA
 0004:001bd920 0001a4c0H .bss                    DATA
 0005:00000000 0003cb28H .pdata                  DATA
 0006:00000000 00000050H .idata$2                DATA
 0006:00000050 00000014H .idata$3                DATA
 0006:00000068 000009f8H .idata$4                DATA
 0006:00000a60 000009f8H .idata$5                DATA
 0006:00001458 0000114fH .idata$6                DATA
 0007:00000000 00000101H .tls                    DATA
 0007:00000110 00000226H .tls$                   DATA
 0007:00000336 00000101H .tls$ZZZ                DATA
 0008:00000000 00000169H .rsrc$01                DATA
 0008:00000170 000001dcH .rsrc$02                DATA

  Address         Publics by Value              Rva+Base               Lib:Object

 0000:00000000       ___safe_se_handler_count   0000000000000000     <absolute>
 0000:00000000       ___safe_se_handler_table   0000000000000000     <absolute>
 0000:00000000       __ImageBase                0000000000400000     <linker-defined>
 0001:000174d0       my_connect                 00000000004184d0 f   client.obj
 0001:00017530       create_named_pipe          0000000000418530 f   client.obj
 0001:00017a70       cli_safe_read              0000000000418a70 f   client.obj
 0001:00017d30       free_rows                  0000000000418d30 f   client.obj
 0001:00017da0       cli_advanced_command       0000000000418da0 f   client.obj
 0001:00018200       free_old_query             0000000000419200 f   client.obj
 0001:00018340       set_mysql_error            0000000000419340 f   client.obj
 0001:000186c0       end_server                 00000000004196c0 f   client.obj
 0001:00018820       mysql_free_result          0000000000419820 f   client.obj
 0001:00018a50       mysql_read_default_options 0000000000419a50 f   client.obj
 0001:00019700       unpack_fields              000000000041a700 f   client.obj
 0001:00019ed0       cli_read_rows              000000000041aed0 f   client.obj
 0001:0001a4d0       mysql_init                 000000000041b4d0 f   client.obj
 0001:0001a610       mysql_ssl_set              000000000041b610 f   client.obj
 0001:0001a890       mysql_get_ssl_cipher       000000000041b890 f   client.obj
 0001:0001a9b0       mysql_init_character_set   000000000041b9b0 f   client.obj
 0001:0001ad00       mysql_real_connect         000000000041bd00 f   client.obj
 0001:0001d1e0       mysql_reconnect            000000000041e1e0 f   client.obj
 0001:0001d8c0       mysql_select_db            000000000041e8c0 f   client.obj
 0001:0001e130       mysql_detach_stmt_list     000000000041f130 f   client.obj
 0001:0001e140       mysql_close                000000000041f140 f   client.obj
 0001:0001e880       mysql_send_query           000000000041f880 f   client.obj
 0001:0001eaa0       mysql_real_query           000000000041faa0 f   client.obj
 0001:0001ec30       mysql_store_result         000000000041fc30 f   client.obj
 0001:0001f310       mysql_fetch_row            0000000000420310 f   client.obj
 0001:0001f8e0       mysql_fetch_lengths        00000000004208e0 f   client.obj
 0001:0001f970       mysql_options              0000000000420970 f   client.obj
 0001:0001ff10       mysql_num_rows             0000000000420f10 f   client.obj
 0001:0001ff30       mysql_num_fields           0000000000420f30 f   client.obj
 0001:0001ff50       mysql_errno                0000000000420f50 f   client.obj
 0001:0001ff70       mysql_error                0000000000420f70 f   client.obj
 0001:0001ff90       mysql_get_server_version   0000000000420f90 f   client.obj
 0001:00020070       mysql_set_character_set    0000000000421070 f   client.obj
 0001:000225f0       ??_H@YAXPEAX_KHP6APEAX0@Z@Z 00000000004235f0 f i derror.obj
 0001:00022680       ?init_errmessage@@YAHXZ    0000000000423680 f   derror.obj
 0001:000230e0       ?load_des_key_file@@YAHPEBD@Z 00000000004240e0 f   des_key_file.obj
 0001:00023670       ?readfrm@@YAHPEBDPEAPEBXPEAI@Z 0000000000424670 f   discover.obj
 0001:000238c0       ?writefrm@@YAHPEBDPEBXI@Z  00000000004248c0 f   discover.obj
 0001:00023b80       init_client_errs           0000000000424b80 f   errmsg.obj
 0001:00023bc0       finish_client_errs         0000000000424bc0 f   errmsg.obj
 0001:00023c10       ?field_type_merge@Field@@SA?AW4enum_field_types@@W42@0@Z 0000000000424c10 f   field.obj
 0001:00023cd0       ?result_merge_type@Field@@SA?AW4Item_result@@W4enum_field_types@@@Z 0000000000424cd0 f   field.obj
 0001:00023d40       ?type_can_have_key_part@Field@@SAHW4enum_field_types@@@Z 0000000000424d40 f   field.obj
 0001:00023da0       ??0Field_num@@QEAA@PEADKPEAEEW4utype@Field@@PEBDPEAUst_table@@EHH@Z 0000000000424da0 f   field.obj
 0001:00023eb0       ?prepend_zeros@Field_num@@QEAAXPEAVString@@@Z 0000000000424eb0 f   field.obj
 0001:00023fc0       ?check_int@Field_num@@QEAAHPEAUcharset_info_st@@PEBDH1H@Z 0000000000424fc0 f   field.obj
 0001:00024290       ?get_int@Field_num@@QEAAHPEAUcharset_info_st@@PEBDIPEA_J_K_J4@Z 0000000000425290 f   field.obj
 0001:00024480       ?warn_if_overflow@Field@@QEAAHH@Z 0000000000425480 f   field.obj
 0001:00024500       ?val_int_as_str@Field@@QEAAPEAVString@@PEAV2@D@Z 0000000000425500 f   field.obj
 0001:000245f0       ??0Field@@QEAA@PEADKPEAEEW4utype@0@PEBDPEAUst_table@@@Z 00000000004255f0 f   field.obj
 0001:00024770       ?offset@Field@@QEAAIXZ     0000000000425770 f   field.obj
 0001:000247a0       ?copy_from_tmp@Field@@QEAAXH@Z 00000000004257a0 f   field.obj
 0001:00024860       ?send_binary@Field@@UEAAHPEAVProtocol@@@Z 0000000000425860 f   field.obj
 0001:000249f0       ?val_decimal@Field@@UEAAPEAVmy_decimal@@PEAV2@@Z 00000000004259f0 f   field.obj
 0001:00024a50       ?add_zerofill_and_unsigned@Field_num@@QEBAXAEAVString@@@Z 0000000000425a50 f   field.obj
 0001:00024ad0       ?make_field@Field@@UEAAXPEAVSend_field@@@Z 0000000000425ad0 f   field.obj
 0001:00024c60       ?convert_decimal2longlong@Field@@QEAA_JPEBVmy_decimal@@HPEAH@Z 0000000000425c60 f   field.obj
 0001:00024db0       ?store_decimal@Field_num@@UEAAHPEBVmy_decimal@@@Z 0000000000425db0 f   field.obj
 0001:00024e70       ?val_decimal@Field_num@@UEAAPEAVmy_decimal@@PEAV2@@Z 0000000000425e70 f   field.obj
 0001:00024f10       ??0Field_str@@QEAA@PEADKPEAEEW4utype@Field@@PEBDPEAUst_table@@PEAUcharset_info_st@@@Z 0000000000425f10 f   field.obj
 0001:00024ff0       ?make_field@Field_num@@UEAAXPEAVSend_field@@@Z 0000000000425ff0 f   field.obj
 0001:00025050       ?store_decimal@Field_str@@UEAAHPEBVmy_decimal@@@Z 0000000000426050 f   field.obj
 0001:000250e0       ?val_decimal@Field_str@@UEAAPEAVmy_decimal@@PEAV2@@Z 00000000004260e0 f   field.obj
 0001:00025150       ?fill_cache_field@Field@@QEAAIPEAUst_cache_field@@@Z 0000000000426150 f   field.obj
 0001:000252a0       ?get_date@Field@@UEAAHPEAUst_mysql_time@@I@Z 00000000004262a0 f   field.obj
 0001:00025420       ?get_time@Field@@UEAAHPEAUst_mysql_time@@@Z 0000000000426420 f   field.obj
 0001:00025590       ?store_time@Field@@UEAAHPEAUst_mysql_time@@W4enum_mysql_timestamp_type@@@Z 0000000000426590 f   field.obj
 0001:00025640       ?optimize_range@Field@@UEAAHII@Z 0000000000426640 f   field.obj
 0001:000256d0       ?new_field@Field@@UEAAPEAV1@PEAUst_mem_root@@PEAUst_table@@H@Z 00000000004266d0 f   field.obj
 0001:000257f0       ?new_key_field@Field@@UEAAPEAV1@PEAUst_mem_root@@PEAUst_table@@PEADPEAEI@Z 00000000004267f0 f   field.obj
 0001:000258b0       ?sql_type@Field_null@@UEBAXAEAVString@@@Z 00000000004268b0 f   field.obj
 0001:00025900       ?reset@Field_decimal@@UEAAHXZ 0000000000426900 f   field.obj
 0001:00025950       ?overflow@Field_decimal@@QEAAXH@Z 0000000000426950 f   field.obj
 0001:00025ad0       ?store@Field_decimal@@UEAAHPEBDIPEAUcharset_info_st@@@Z 0000000000426ad0 f   field.obj
 0001:00026ab0       ?store@Field_decimal@@UEAAHN@Z 0000000000427ab0 f   field.obj
 0001:00026d00       ?store@Field_decimal@@UEAAH_JH@Z 0000000000427d00 f   field.obj
 0001:00026f70       ?val_real@Field_decimal@@UEAANXZ 0000000000427f70 f   field.obj
 0001:00027000       ?val_int@Field_decimal@@UEAA_JXZ 0000000000428000 f   field.obj
 0001:000270e0       ?val_str@Field_decimal@@UEAAPEAVString@@PEAV2@0@Z 00000000004280e0 f   field.obj
 0001:000271b0       ?cmp@Field_decimal@@UEAAHPEBD0@Z 00000000004281b0 f   field.obj
 0001:000273b0       ?sort_string@Field_decimal@@UEAAXPEADI@Z 00000000004283b0 f   field.obj
 0001:00027570       ?sql_type@Field_decimal@@UEBAXAEAVString@@@Z 0000000000428570 f   field.obj
 0001:00027670       ??0Field_new_decimal@@QEAA@PEADKPEAEEW4utype@Field@@PEBDPEAUst_table@@EHH@Z 0000000000428670 f   field.obj
 0001:00027840       ??0Field_new_decimal@@QEAA@KHPEBDPEAUst_table@@EH@Z 0000000000428840 f   field.obj
 0001:00027a20       ?reset@Field_new_decimal@@UEAAHXZ 0000000000428a20 f   field.obj
 0001:00027a70       ?set_value_on_overflow@Field_new_decimal@@QEAAXPEAVmy_decimal@@H@Z 0000000000428a70 f   field.obj
 0001:00027ba0       ?store_value@Field_new_decimal@@QEAAHPEBVmy_decimal@@@Z 0000000000428ba0 f   field.obj
 0001:00027ef0       ?store@Field_new_decimal@@UEAAHPEBDIPEAUcharset_info_st@@@Z 0000000000428ef0 f   field.obj
 0001:00028380       ?store@Field_new_decimal@@UEAAHN@Z 0000000000429380 f   field.obj
 0001:00028580       ?store@Field_new_decimal@@UEAAH_JH@Z 0000000000429580 f   field.obj
 0001:000286c0       ?store_decimal@Field_new_decimal@@UEAAHPEBVmy_decimal@@@Z 00000000004296c0 f   field.obj
 0001:00028710       ?store_time@Field_new_decimal@@UEAAHPEAUst_mysql_time@@W4enum_mysql_timestamp_type@@@Z 0000000000429710 f   field.obj
 0001:000287a0       ?val_real@Field_new_decimal@@UEAANXZ 00000000004297a0 f   field.obj
 0001:00028830       ?val_int@Field_new_decimal@@UEAA_JXZ 0000000000429830 f   field.obj
 0001:000288d0       ?val_decimal@Field_new_decimal@@UEAAPEAVmy_decimal@@PEAV2@@Z 00000000004298d0 f   field.obj
 0001:00028a20       ?val_str@Field_new_decimal@@UEAAPEAVString@@PEAV2@0@Z 0000000000429a20 f   field.obj
 0001:00028b40       ?cmp@Field_new_decimal@@UEAAHPEBD0@Z 0000000000429b40 f   field.obj
 0001:00028ba0       ?sort_string@Field_new_decimal@@UEAAXPEADI@Z 0000000000429ba0 f   field.obj
 0001:00028c00       ?sql_type@Field_new_decimal@@UEBAXAEAVString@@@Z 0000000000429c00 f   field.obj
 0001:00028cd0       ?store@Field_tiny@@UEAAHPEBDIPEAUcharset_info_st@@@Z 0000000000429cd0 f   field.obj
 0001:00028db0       ?store@Field_tiny@@UEAAHN@Z 0000000000429db0 f   field.obj
 0001:00028f40       ?store@Field_tiny@@UEAAH_JH@Z 0000000000429f40 f   field.obj
 0001:000290d0       ?val_real@Field_tiny@@UEAANXZ 000000000042a0d0 f   field.obj
 0001:00029140       ?val_int@Field_tiny@@UEAA_JXZ 000000000042a140 f   field.obj
 0001:000291b0       ?val_str@Field_tiny@@UEAAPEAVString@@PEAV2@0@Z 000000000042a1b0 f   field.obj
 0001:00029320       ?send_binary@Field_tiny@@UEAAHPEAVProtocol@@@Z 000000000042a320 f   field.obj
 0001:00029380       ?cmp@Field_tiny@@UEAAHPEBD0@Z 000000000042a380 f   field.obj
 0001:00029470       ?sort_string@Field_tiny@@UEAAXPEADI@Z 000000000042a470 f   field.obj
 0001:000294d0       ?sql_type@Field_tiny@@UEBAXAEAVString@@@Z 000000000042a4d0 f   field.obj
 0001:00029590       ?store@Field_short@@UEAAHPEBDIPEAUcharset_info_st@@@Z 000000000042a590 f   field.obj
 0001:000296a0       ?store@Field_short@@UEAAHN@Z 000000000042a6a0 f   field.obj
 0001:00029840       ?store@Field_short@@UEAAH_JH@Z 000000000042a840 f   field.obj
 0001:000299e0       ?val_real@Field_short@@UEAANXZ 000000000042a9e0 f   field.obj
 0001:00029a70       ?val_int@Field_short@@UEAA_JXZ 000000000042aa70 f   field.obj
 0001:00029af0       ?val_str@Field_short@@UEAAPEAVString@@PEAV2@0@Z 000000000042aaf0 f   field.obj
 0001:00029c80       ?send_binary@Field_short@@UEAAHPEAVProtocol@@@Z 000000000042ac80 f   field.obj
 0001:00029ce0       ?cmp@Field_short@@UEAAHPEBD0@Z 000000000042ace0 f   field.obj
 0001:00029df0       ?sort_string@Field_short@@UEAAXPEADI@Z 000000000042adf0 f   field.obj
 0001:00029e60       ?sql_type@Field_short@@UEBAXAEAVString@@@Z 000000000042ae60 f   field.obj
 0001:00029f20       ?store@Field_medium@@UEAAHPEBDIPEAUcharset_info_st@@@Z 000000000042af20 f   field.obj
 0001:0002a040       ?store@Field_medium@@UEAAHN@Z 000000000042b040 f   field.obj
 0001:0002a300       ?store@Field_medium@@UEAAH_JH@Z 000000000042b300 f   field.obj
 0001:0002a5b0       ?val_real@Field_medium@@UEAANXZ 000000000042b5b0 f   field.obj
 0001:0002a6d0       ?val_int@Field_medium@@UEAA_JXZ 000000000042b6d0 f   field.obj
 0001:0002a7e0       ?val_str@Field_medium@@UEAAPEAVString@@PEAV2@0@Z 000000000042b7e0 f   field.obj
 0001:0002a9d0       ?send_binary@Field_medium@@UEAAHPEAVProtocol@@@Z 000000000042b9d0 f   field.obj
 0001:0002aa30       ?cmp@Field_medium@@UEAAHPEBD0@Z 000000000042ba30 f   field.obj
 0001:0002abf0       ?sort_string@Field_medium@@UEAAXPEADI@Z 000000000042bbf0 f   field.obj
 0001:0002ac70       ?sql_type@Field_medium@@UEBAXAEAVString@@@Z 000000000042bc70 f   field.obj
 0001:0002ad30       ?store@Field_long@@UEAAHPEBDIPEAUcharset_info_st@@@Z 000000000042bd30 f   field.obj
 0001:0002ae60       ?store@Field_long@@UEAAHN@Z 000000000042be60 f   field.obj
 0001:0002aff0       ?store@Field_long@@UEAAH_JH@Z 000000000042bff0 f   field.obj
 0001:0002b1a0       ?val_real@Field_long@@UEAANXZ 000000000042c1a0 f   field.obj
 0001:0002b250       ?val_int@Field_long@@UEAA_JXZ 000000000042c250 f   field.obj
 0001:0002b330       ?val_str@Field_long@@UEAAPEAVString@@PEAV2@0@Z 000000000042c330 f   field.obj
 0001:0002b4d0       ?send_binary@Field_long@@UEAAHPEAVProtocol@@@Z 000000000042c4d0 f   field.obj
 0001:0002b530       ?cmp@Field_long@@UEAAHPEBD0@Z 000000000042c530 f   field.obj
 0001:0002b670       ?sort_string@Field_long@@UEAAXPEADI@Z 000000000042c670 f   field.obj
 0001:0002b710       ?sql_type@Field_long@@UEBAXAEAVString@@@Z 000000000042c710 f   field.obj
 0001:0002b7d0       ?store@Field_longlong@@UEAAHPEBDIPEAUcharset_info_st@@@Z 000000000042c7d0 f   field.obj
 0001:0002b940       ?store@Field_longlong@@UEAAHN@Z 000000000042c940 f   field.obj
 0001:0002bb40       ?store@Field_longlong@@UEAAH_JH@Z 000000000042cb40 f   field.obj
 0001:0002bc10       ?val_real@Field_longlong@@UEAANXZ 000000000042cc10 f   field.obj
 0001:0002bcb0       ?val_int@Field_longlong@@UEAA_JXZ 000000000042ccb0 f   field.obj
 0001:0002bd20       ?val_str@Field_longlong@@UEAAPEAVString@@PEAV2@0@Z 000000000042cd20 f   field.obj
 0001:0002bea0       ?send_binary@Field_longlong@@UEAAHPEAVProtocol@@@Z 000000000042cea0 f   field.obj
 0001:0002bf10       ?cmp@Field_longlong@@UEAAHPEBD0@Z 000000000042cf10 f   field.obj
 0001:0002c030       ?sort_string@Field_longlong@@UEAAXPEADI@Z 000000000042d030 f   field.obj
 0001:0002c120       ?sql_type@Field_longlong@@UEBAXAEAVString@@@Z 000000000042d120 f   field.obj
 0001:0002c1e0       ?store@Field_float@@UEAAHPEBDIPEAUcharset_info_st@@@Z 000000000042d1e0 f   field.obj
 0001:0002c340       ?store@Field_float@@UEAAHN@Z 000000000042d340 f   field.obj
 0001:0002c3d0       ?store@Field_float@@UEAAH_JH@Z 000000000042d3d0 f   field.obj
 0001:0002c460       ?val_real@Field_float@@UEAANXZ 000000000042d460 f   field.obj
 0001:0002c4d0       ?val_int@Field_float@@UEAA_JXZ 000000000042d4d0 f   field.obj
 0001:0002c540       ?val_str@Field_float@@UEAAPEAVString@@PEAV2@0@Z 000000000042d540 f   field.obj
 0001:0002c6d0       ?cmp@Field_float@@UEAAHPEBD0@Z 000000000042d6d0 f   field.obj
 0001:0002c790       ?sort_string@Field_float@@UEAAXPEADI@Z 000000000042d790 f   field.obj
 0001:0002c930       ?send_binary@Field_float@@UEAAHPEAVProtocol@@@Z 000000000042d930 f   field.obj
 0001:0002c9a0       ?sql_type@Field_float@@UEBAXAEAVString@@@Z 000000000042d9a0 f   field.obj
 0001:0002ca90       ?store@Field_double@@UEAAHPEBDIPEAUcharset_info_st@@@Z 000000000042da90 f   field.obj
 0001:0002cbf0       ?store@Field_double@@UEAAHN@Z 000000000042dbf0 f   field.obj
 0001:0002cc60       ?store@Field_double@@UEAAH_JH@Z 000000000042dc60 f   field.obj
 0001:0002ccf0       ?truncate@Field_real@@QEAAHPEANN@Z 000000000042dcf0 f   field.obj
 0001:0002cfa0       ?store_decimal@Field_real@@UEAAHPEBVmy_decimal@@@Z 000000000042dfa0 f   field.obj
 0001:0002d020       ?val_real@Field_double@@UEAANXZ 000000000042e020 f   field.obj
 0001:0002d090       ?val_int@Field_double@@UEAA_JXZ 000000000042e090 f   field.obj
 0001:0002d260       ?val_decimal@Field_real@@UEAAPEAVmy_decimal@@PEAV2@@Z 000000000042e260 f   field.obj
 0001:0002d2c0       ?val_str@Field_double@@UEAAPEAVString@@PEAV2@0@Z 000000000042e2c0 f   field.obj
 0001:0002d440       ?send_binary@Field_double@@UEAAHPEAVProtocol@@@Z 000000000042e440 f   field.obj
 0001:0002d4b0       ?cmp@Field_double@@UEAAHPEBD0@Z 000000000042e4b0 f   field.obj
 0001:0002d570       ?sort_string@Field_double@@UEAAXPEADI@Z 000000000042e570 f   field.obj
 0001:0002d5f0       ?sql_type@Field_double@@UEBAXAEAVString@@@Z 000000000042e5f0 f   field.obj
 0001:0002d6e0       ??0Field_timestamp@@QEAA@PEADKPEAEEW4utype@Field@@PEBDPEAUst_table@@PEAUcharset_info_st@@@Z 000000000042e6e0 f   field.obj
 0001:0002d800       ??0Field_timestamp@@QEAA@HPEBDPEAUst_table@@PEAUcharset_info_st@@@Z 000000000042e800 f   field.obj
 0001:0002d930       ?get_auto_set_type@Field_timestamp@@QEBA?AW4timestamp_auto_set_type@@XZ 000000000042e930 f   field.obj
 0001:0002da00       ?store@Field_timestamp@@UEAAHPEBDIPEAUcharset_info_st@@@Z 000000000042ea00 f   field.obj
 0001:0002dd00       ?store@Field_timestamp@@UEAAHN@Z 000000000042ed00 f   field.obj
 0001:0002ddc0       ?store@Field_timestamp@@UEAAH_JH@Z 000000000042edc0 f   field.obj
 0001:0002e010       ?val_real@Field_timestamp@@UEAANXZ 000000000042f010 f   field.obj
 0001:0002e050       ?val_int@Field_timestamp@@UEAA_JXZ 000000000042f050 f   field.obj
 0001:0002e1d0       ?val_str@Field_timestamp@@UEAAPEAVString@@PEAV2@0@Z 000000000042f1d0 f   field.obj
 0001:0002e6d0       ?get_date@Field_timestamp@@UEAAHPEAUst_mysql_time@@I@Z 000000000042f6d0 f   field.obj
 0001:0002e800       ?get_time@Field_timestamp@@UEAAHPEAUst_mysql_time@@@Z 000000000042f800 f   field.obj
 0001:0002e850       ?send_binary@Field_timestamp@@UEAAHPEAVProtocol@@@Z 000000000042f850 f   field.obj
 0001:0002e8c0       ?cmp@Field_timestamp@@UEAAHPEBD0@Z 000000000042f8c0 f   field.obj
 0001:0002e9b0       ?sort_string@Field_timestamp@@UEAAXPEADI@Z 000000000042f9b0 f   field.obj
 0001:0002ea20       ?sql_type@Field_timestamp@@UEBAXAEAVString@@@Z 000000000042fa20 f   field.obj
 0001:0002ea70       ?set_time@Field_timestamp@@QEAAXXZ 000000000042fa70 f   field.obj
 0001:0002eb40       ?store@Field_time@@UEAAHPEBDIPEAUcharset_info_st@@@Z 000000000042fb40 f   field.obj
 0001:0002ed70       ?store_time@Field_time@@UEAAHPEAUst_mysql_time@@W4enum_mysql_timestamp_type@@@Z 000000000042fd70 f   field.obj
 0001:0002ee30       ?store@Field_time@@UEAAHN@Z 000000000042fe30 f   field.obj
 0001:0002efd0       ?store@Field_time@@UEAAH_JH@Z 000000000042ffd0 f   field.obj
 0001:0002f170       ?val_real@Field_time@@UEAANXZ 0000000000430170 f   field.obj
 0001:0002f1e0       ?val_int@Field_time@@UEAA_JXZ 00000000004301e0 f   field.obj
 0001:0002f2a0       ?val_str@Field_time@@UEAAPEAVString@@PEAV2@0@Z 00000000004302a0 f   field.obj
 0001:0002f400       ?get_date@Field_time@@UEAAHPEAUst_mysql_time@@I@Z 0000000000430400 f   field.obj
 0001:0002f600       ?get_time@Field_time@@UEAAHPEAUst_mysql_time@@@Z 0000000000430600 f   field.obj
 0001:0002f760       ?send_binary@Field_time@@UEAAHPEAVProtocol@@@Z 0000000000430760 f   field.obj
 0001:0002f800       ?cmp@Field_time@@UEAAHPEBD0@Z 0000000000430800 f   field.obj
 0001:0002f960       ?sort_string@Field_time@@UEAAXPEADI@Z 0000000000430960 f   field.obj
 0001:0002f9c0       ?sql_type@Field_time@@UEBAXAEAVString@@@Z 00000000004309c0 f   field.obj
 0001:0002fa10       ?store@Field_year@@UEAAHPEBDIPEAUcharset_info_st@@@Z 0000000000430a10 f   field.obj
 0001:0002fbf0       ?store@Field_year@@UEAAHN@Z 0000000000430bf0 f   field.obj
 0001:0002fc80       ?store@Field_year@@UEAAH_JH@Z 0000000000430c80 f   field.obj
 0001:0002fd70       ?send_binary@Field_year@@UEAAHPEAVProtocol@@@Z 0000000000430d70 f   field.obj
 0001:0002fdd0       ?val_real@Field_year@@UEAANXZ 0000000000430dd0 f   field.obj
 0001:0002fe10       ?val_int@Field_year@@UEAA_JXZ 0000000000430e10 f   field.obj
 0001:0002fe80       ?val_str@Field_year@@UEAAPEAVString@@PEAV2@0@Z 0000000000430e80 f   field.obj
 0001:0002ff30       ?sql_type@Field_year@@UEBAXAEAVString@@@Z 0000000000430f30 f   field.obj
 0001:0002ffe0       ?store@Field_date@@UEAAHPEBDIPEAUcharset_info_st@@@Z 0000000000430fe0 f   field.obj
 0001:000301a0       ?store@Field_date@@UEAAHN@Z 00000000004311a0 f   field.obj
 0001:000302a0       ?store@Field_date@@UEAAH_JH@Z 00000000004312a0 f   field.obj
 0001:000304c0       ?send_binary@Field_date@@UEAAHPEAVProtocol@@@Z 00000000004314c0 f   field.obj
 0001:00030590       ?val_real@Field_date@@UEAANXZ 0000000000431590 f   field.obj
 0001:00030620       ?val_int@Field_date@@UEAA_JXZ 0000000000431620 f   field.obj
 0001:000306a0       ?val_str@Field_date@@UEAAPEAVString@@PEAV2@0@Z 00000000004316a0 f   field.obj
 0001:000307c0       ?cmp@Field_date@@UEAAHPEBD0@Z 00000000004317c0 f   field.obj
 0001:000308b0       ?sort_string@Field_date@@UEAAXPEADI@Z 00000000004318b0 f   field.obj
 0001:00030920       ?sql_type@Field_date@@UEBAXAEAVString@@@Z 0000000000431920 f   field.obj
 0001:00030970       ?store@Field_newdate@@UEAAHPEBDIPEAUcharset_info_st@@@Z 0000000000431970 f   field.obj
 0001:00030b90       ?store@Field_newdate@@UEAAHN@Z 0000000000431b90 f   field.obj
 0001:00030c60       ?store@Field_newdate@@UEAAH_JH@Z 0000000000431c60 f   field.obj
 0001:00030e60       ?store_time@Field_newdate@@UEAAHPEAUst_mysql_time@@W4enum_mysql_timestamp_type@@@Z 0000000000431e60 f   field.obj
 0001:00031200       ?send_binary@Field_newdate@@UEAAHPEAVProtocol@@@Z 0000000000432200 f   field.obj
 0001:00031280       ?val_real@Field_newdate@@UEAANXZ 0000000000432280 f   field.obj
 0001:000312c0       ?val_int@Field_newdate@@UEAA_JXZ 00000000004322c0 f   field.obj
 0001:00031380       ?val_str@Field_newdate@@UEAAPEAVString@@PEAV2@0@Z 0000000000432380 f   field.obj
 0001:000315e0       ?get_date@Field_newdate@@UEAAHPEAUst_mysql_time@@I@Z 00000000004325e0 f   field.obj
 0001:00031700       ?get_time@Field_newdate@@UEAAHPEAUst_mysql_time@@@Z 0000000000432700 f   field.obj
 0001:00031750       ?cmp@Field_newdate@@UEAAHPEBD0@Z 0000000000432750 f   field.obj
 0001:00031820       ?sort_string@Field_newdate@@UEAAXPEADI@Z 0000000000432820 f   field.obj
 0001:00031880       ?sql_type@Field_newdate@@UEBAXAEAVString@@@Z 0000000000432880 f   field.obj
 0001:000318d0       ?store@Field_datetime@@UEAAHPEBDIPEAUcharset_info_st@@@Z 00000000004328d0 f   field.obj
 0001:00031a60       ?store@Field_datetime@@UEAAHN@Z 0000000000432a60 f   field.obj
 0001:00031b20       ?store@Field_datetime@@UEAAH_JH@Z 0000000000432b20 f   field.obj
 0001:00031ca0       ?store_time@Field_datetime@@UEAAHPEAUst_mysql_time@@W4enum_mysql_timestamp_type@@@Z 0000000000432ca0 f   field.obj
 0001:00031f20       ?send_binary@Field_datetime@@UEAAHPEAVProtocol@@@Z 0000000000432f20 f   field.obj
 0001:00031fa0       ?val_real@Field_datetime@@UEAANXZ 0000000000432fa0 f   field.obj
 0001:00031fe0       ?val_int@Field_datetime@@UEAA_JXZ 0000000000432fe0 f   field.obj
 0001:00032050       ?val_str@Field_datetime@@UEAAPEAVString@@PEAV2@0@Z 0000000000433050 f   field.obj
 0001:00032480       ?get_date@Field_datetime@@UEAAHPEAUst_mysql_time@@I@Z 0000000000433480 f   field.obj
 0001:000325f0       ?get_time@Field_datetime@@UEAAHPEAUst_mysql_time@@@Z 00000000004335f0 f   field.obj
 0001:00032640       ?cmp@Field_datetime@@UEAAHPEBD0@Z 0000000000433640 f   field.obj
 0001:00032700       ?sort_string@Field_datetime@@UEAAXPEADI@Z 0000000000433700 f   field.obj
 0001:000327c0       ?sql_type@Field_datetime@@UEBAXAEAVString@@@Z 00000000004337c0 f   field.obj
 0001:00032810       ?store@Field_string@@UEAAHPEBDIPEAUcharset_info_st@@@Z 0000000000433810 f   field.obj
 0001:00032dd0       ?store@Field_str@@UEAAHN@Z 0000000000433dd0 f   field.obj
 0001:00033140       ?store@Field_string@@UEAAH_JH@Z 0000000000434140 f   field.obj
 0001:00033270       ?store_decimal@Field_longstr@@UEAAHPEBVmy_decimal@@@Z 0000000000434270 f   field.obj
 0001:00033400       ?val_real@Field_string@@UEAANXZ 0000000000434400 f   field.obj
 0001:000336e0       ?val_int@Field_string@@UEAA_JXZ 00000000004346e0 f   field.obj
 0001:00033920       ?val_str@Field_string@@UEAAPEAVString@@PEAV2@0@Z 0000000000434920 f   field.obj
 0001:000339f0       ?val_decimal@Field_string@@UEAAPEAVmy_decimal@@PEAV2@@Z 00000000004349f0 f   field.obj
 0001:00033bf0       ?cmp@Field_string@@UEAAHPEBD0@Z 0000000000434bf0 f   field.obj
 0001:00033d60       ?sort_string@Field_string@@UEAAXPEADI@Z 0000000000434d60 f   field.obj
 0001:00033e00       ?sql_type@Field_string@@UEBAXAEAVString@@@Z 0000000000434e00 f   field.obj
 0001:00034040       ?pack@Field_string@@UEAAPEADPEADPEBDI@Z 0000000000435040 f   field.obj
 0001:000341d0       ?unpack@Field_string@@UEAAPEBDPEADPEBD@Z 00000000004351d0 f   field.obj
 0001:000342b0       ?pack_cmp@Field_string@@UEAAHPEBD0ID@Z 00000000004352b0 f   field.obj
 0001:000343c0       ?pack_cmp@Field_string@@UEAAHPEBDID@Z 00000000004353c0 f   field.obj
 0001:000344f0       ?packed_col_length@Field_string@@UEAAIPEBDI@Z 00000000004354f0 f   field.obj
 0001:00034540       ?max_packed_col_length@Field_string@@UEAAII@Z 0000000000435540 f   field.obj
 0001:000345a0       ?get_key_image@Field_string@@UEAAIPEADIW4imagetype@Field@@@Z 00000000004355a0 f   field.obj
 0001:000346d0       ?new_field@Field_string@@UEAAPEAVField@@PEAUst_mem_root@@PEAUst_table@@H@Z 00000000004356d0 f   field.obj
 0001:00034840       ?store@Field_varstring@@UEAAHPEBDIPEAUcharset_info_st@@@Z 0000000000435840 f   field.obj
 0001:00034aa0       ?store@Field_varstring@@UEAAH_JH@Z 0000000000435aa0 f   field.obj
 0001:00034bb0       ?val_real@Field_varstring@@UEAANXZ 0000000000435bb0 f   field.obj
 0001:00034cd0       ?val_int@Field_varstring@@UEAA_JXZ 0000000000435cd0 f   field.obj
 0001:00034df0       ?val_str@Field_varstring@@UEAAPEAVString@@PEAV2@0@Z 0000000000435df0 f   field.obj
 0001:00034eb0       ?val_decimal@Field_varstring@@UEAAPEAVmy_decimal@@PEAV2@@Z 0000000000435eb0 f   field.obj
 0001:00034f80       ?cmp@Field_varstring@@UEAAHPEBD0@Z 0000000000435f80 f   field.obj
 0001:00035090       ?key_cmp@Field_varstring@@UEAAHPEBEI@Z 0000000000436090 f   field.obj
 0001:00035230       ?key_cmp@Field_varstring@@UEAAHPEBE0@Z 0000000000436230 f   field.obj
 0001:00035300       ?sort_string@Field_varstring@@UEAAXPEADI@Z 0000000000436300 f   field.obj
 0001:00035480       ?key_type@Field_varstring@@UEBA?AW4ha_base_keytype@@XZ 0000000000436480 f   field.obj
 0001:00035520       ?sql_type@Field_varstring@@UEBAXAEAVString@@@Z 0000000000436520 f   field.obj
 0001:000356e0       ?data_length@Field_varstring@@UEAAKPEBD@Z 00000000004366e0 f   field.obj
 0001:00035760       ?pack@Field_varstring@@UEAAPEADPEADPEBDI@Z 0000000000436760 f   field.obj
 0001:000358a0       ?pack_key@Field_varstring@@UEAAPEADPEADPEBDI@Z 00000000004368a0 f   field.obj
 0001:00035a60       ?unpack_key@Field_varstring@@UEAAPEBDPEADPEBDI@Z 0000000000436a60 f   field.obj
 0001:00035b70       ?pack_key_from_key_image@Field_varstring@@UEAAPEADPEADPEBDI@Z 0000000000436b70 f   field.obj
 0001:00035c60       ?unpack@Field_varstring@@UEAAPEBDPEADPEBD@Z 0000000000436c60 f   field.obj
 0001:00035d70       ?pack_cmp@Field_varstring@@UEAAHPEBD0ID@Z 0000000000436d70 f   field.obj
 0001:00035e80       ?pack_cmp@Field_varstring@@UEAAHPEBDID@Z 0000000000436e80 f   field.obj
 0001:00036070       ?packed_col_length@Field_varstring@@UEAAIPEBDI@Z 0000000000437070 f   field.obj
 0001:000360c0       ?max_packed_col_length@Field_varstring@@UEAAII@Z 00000000004370c0 f   field.obj
 0001:00036120       ?get_key_image@Field_varstring@@UEAAIPEADIW4imagetype@Field@@@Z 0000000000437120 f   field.obj
 0001:000362c0       ?set_key_image@Field_varstring@@UEAAXPEADI@Z 00000000004372c0 f   field.obj
 0001:00036340       ?cmp_binary@Field_varstring@@UEAAHPEBD0K@Z 0000000000437340 f   field.obj
 0001:00036470       ?new_field@Field_varstring@@UEAAPEAVField@@PEAUst_mem_root@@PEAUst_table@@H@Z 0000000000437470 f   field.obj
 0001:000364f0       ?new_key_field@Field_varstring@@UEAAPEAVField@@PEAUst_mem_root@@PEAUst_table@@PEADPEAEI@Z 00000000004374f0 f   field.obj
 0001:00036580       ??0Field_blob@@QEAA@PEADPEAEEW4utype@Field@@PEBDPEAUst_table@@IPEAUcharset_info_st@@@Z 0000000000437580 f   field.obj
 0001:00036730       ?store_length@Field_blob@@QEAAXK@Z 0000000000437730 f   field.obj
 0001:00036870       ?get_length@Field_blob@@QEAAKPEBD@Z 0000000000437870 f   field.obj
 0001:00036980       ?put_length@Field_blob@@QEAAXPEADK@Z 0000000000437980 f   field.obj
 0001:00036aa0       ?store@Field_blob@@UEAAHPEBDIPEAUcharset_info_st@@@Z 0000000000437aa0 f   field.obj
 0001:00036f50       ?store@Field_blob@@UEAAHN@Z 0000000000437f50 f   field.obj
 0001:00037010       ?store@Field_blob@@UEAAH_JH@Z 0000000000438010 f   field.obj
 0001:000370f0       ?val_real@Field_blob@@UEAANXZ 00000000004380f0 f   field.obj
 0001:00037210       ?val_int@Field_blob@@UEAA_JXZ 0000000000438210 f   field.obj
 0001:00037330       ?val_str@Field_blob@@UEAAPEAVString@@PEAV2@0@Z 0000000000438330 f   field.obj
 0001:00037430       ?val_decimal@Field_blob@@UEAAPEAVmy_decimal@@PEAV2@@Z 0000000000438430 f   field.obj
 0001:00037510       ?cmp@Field_blob@@QEAAHPEBDK0K@Z 0000000000438510 f   field.obj
 0001:00037590       ?cmp@Field_blob@@UEAAHPEBD0@Z 0000000000438590 f   field.obj
 0001:00037690       ?cmp_binary@Field_blob@@UEAAHPEBD0K@Z 0000000000438690 f   field.obj
 0001:00037810       ?get_key_image@Field_blob@@UEAAIPEADIW4imagetype@Field@@@Z 0000000000438810 f   field.obj
 0001:00037b40       ?set_key_image@Field_blob@@UEAAXPEADI@Z 0000000000438b40 f   field.obj
 0001:00037bc0       ?key_cmp@Field_blob@@UEAAHPEBEI@Z 0000000000438bc0 f   field.obj
 0001:00037d10       ?key_cmp@Field_blob@@UEAAHPEBE0@Z 0000000000438d10 f   field.obj
 0001:00037dc0       ?sort_length@Field_blob@@UEBAKXZ 0000000000438dc0 f   field.obj
 0001:00037e30       ?sort_string@Field_blob@@UEAAXPEADI@Z 0000000000438e30 f   field.obj
 0001:00038060       ?sql_type@Field_blob@@UEBAXAEAVString@@@Z 0000000000439060 f   field.obj
 0001:00038180       ?pack@Field_blob@@UEAAPEADPEADPEBDI@Z 0000000000439180 f   field.obj
 0001:000382b0       ?unpack@Field_blob@@UEAAPEBDPEADPEBD@Z 00000000004392b0 f   field.obj
 0001:000383a0       ?pack_cmp@Field_blob@@UEAAHPEBD0ID@Z 00000000004393a0 f   field.obj
 0001:000384b0       ?pack_cmp@Field_blob@@UEAAHPEBDID@Z 00000000004394b0 f   field.obj
 0001:00038600       ?pack_key@Field_blob@@UEAAPEADPEADPEBDI@Z 0000000000439600 f   field.obj
 0001:000387b0       ?unpack_key@Field_blob@@UEAAPEBDPEADPEBDI@Z 00000000004397b0 f   field.obj
 0001:000388c0       ?pack_key_from_key_image@Field_blob@@UEAAPEADPEADPEBDI@Z 00000000004398c0 f   field.obj
 0001:000389b0       ?packed_col_length@Field_blob@@UEAAIPEBDI@Z 00000000004399b0 f   field.obj
 0001:00038a00       ?max_packed_col_length@Field_blob@@UEAAII@Z 0000000000439a00 f   field.obj
 0001:00038a60       ?get_key_image@Field_geom@@UEAAIPEADIW4imagetype@Field@@@Z 0000000000439a60 f   field.obj
 0001:00038c20       ?sql_type@Field_geom@@UEBAXAEAVString@@@Z 0000000000439c20 f   field.obj
 0001:00038dc0       ?store@Field_geom@@UEAAHN@Z 0000000000439dc0 f   field.obj
 0001:00038e20       ?store@Field_geom@@UEAAH_JH@Z 0000000000439e20 f   field.obj
 0001:00038e80       ?store_decimal@Field_geom@@UEAAHPEBVmy_decimal@@@Z 0000000000439e80 f   field.obj
 0001:00038ee0       ?store@Field_geom@@UEAAHPEBDIPEAUcharset_info_st@@@Z 0000000000439ee0 f   field.obj
 0001:000390a0       ?key_type@Field_enum@@UEBA?AW4ha_base_keytype@@XZ 000000000043a0a0 f   field.obj
 0001:00039120       ?store_type@Field_enum@@QEAAX_K@Z 000000000043a120 f   field.obj
 0001:00039290       ?store@Field_enum@@UEAAHPEBDIPEAUcharset_info_st@@@Z 000000000043a290 f   field.obj
 0001:000395d0       ?store@Field_enum@@UEAAHN@Z 000000000043a5d0 f   field.obj
 0001:00039620       ?store@Field_enum@@UEAAH_JH@Z 000000000043a620 f   field.obj
 0001:000396e0       ?val_real@Field_enum@@UEAANXZ 000000000043a6e0 f   field.obj
 0001:00039720       ?val_int@Field_enum@@UEAA_JXZ 000000000043a720 f   field.obj
 0001:00039890       ?val_str@Field_enum@@UEAAPEAVString@@PEAV2@0@Z 000000000043a890 f   field.obj
 0001:00039970       ?cmp@Field_enum@@UEAAHPEBD0@Z 000000000043a970 f   field.obj
 0001:00039a40       ?sort_string@Field_enum@@UEAAXPEADI@Z 000000000043aa40 f   field.obj
 0001:00039b00       ?sql_type@Field_enum@@UEBAXAEAVString@@@Z 000000000043ab00 f   field.obj
 0001:00039d80       ?new_field@Field_enum@@UEAAPEAVField@@PEAUst_mem_root@@PEAUst_table@@H@Z 000000000043ad80 f   field.obj
 0001:00039e10       ?store@Field_set@@UEAAHPEBDIPEAUcharset_info_st@@@Z 000000000043ae10 f   field.obj
 0001:0003a150       ?store@Field_set@@UEAAH_JH@Z 000000000043b150 f   field.obj
 0001:0003a230       ?val_str@Field_set@@UEAAPEAVString@@PEAV2@0@Z 000000000043b230 f   field.obj
 0001:0003a410       ?sql_type@Field_set@@UEBAXAEAVString@@@Z 000000000043b410 f   field.obj
 0001:0003a690       ?eq_def@Field@@UEAAHPEAV1@@Z 000000000043b690 f   field.obj
 0001:0003a780       ?eq_def@Field_enum@@UEAAHPEAVField@@@Z 000000000043b780 f   field.obj
 0001:0003a8f0       ?eq_def@Field_num@@UEAAHPEAVField@@@Z 000000000043b8f0 f   field.obj
 0001:0003a9b0       ??0Field_bit@@QEAA@PEADKPEAEE1EW4utype@Field@@PEBDPEAUst_table@@@Z 000000000043b9b0 f   field.obj
 0001:0003aad0       ?new_key_field@Field_bit@@UEAAPEAVField@@PEAUst_mem_root@@PEAUst_table@@PEADPEAEI@Z 000000000043bad0 f   field.obj
 0001:0003ab90       ?store@Field_bit@@UEAAHPEBDIPEAUcharset_info_st@@@Z 000000000043bb90 f   field.obj
 0001:0003b1a0       ?store@Field_bit@@UEAAHN@Z 000000000043c1a0 f   field.obj
 0001:0003b200       ?store@Field_bit@@UEAAH_JH@Z 000000000043c200 f   field.obj
 0001:0003b310       ?store_decimal@Field_bit@@UEAAHPEBVmy_decimal@@@Z 000000000043c310 f   field.obj
 0001:0003b3c0       ?val_real@Field_bit@@UEAANXZ 000000000043c3c0 f   field.obj
 0001:0003b400       ?val_int@Field_bit@@UEAA_JXZ 000000000043c400 f   field.obj
 0001:0003b850       ?val_str@Field_bit@@UEAAPEAVString@@PEAV2@0@Z 000000000043c850 f   field.obj
 0001:0003ba30       ?val_decimal@Field_bit@@UEAAPEAVmy_decimal@@PEAV2@@Z 000000000043ca30 f   field.obj
 0001:0003ba90       ?key_cmp@Field_bit@@UEAAHPEBEI@Z 000000000043ca90 f   field.obj
 0001:0003bb80       ?cmp_offset@Field_bit@@UEAAHI@Z 000000000043cb80 f   field.obj
 0001:0003bcb0       ?get_key_image@Field_bit@@UEAAIPEADIW4imagetype@Field@@@Z 000000000043ccb0 f   field.obj
 0001:0003bdc0       ?sql_type@Field_bit@@UEBAXAEAVString@@@Z 000000000043cdc0 f   field.obj
 0001:0003be70       ?pack@Field_bit@@UEAAPEADPEADPEBDI@Z 000000000043ce70 f   field.obj
 0001:0003bff0       ?unpack@Field_bit@@UEAAPEBDPEADPEBD@Z 000000000043cff0 f   field.obj
 0001:0003c180       ??0Field_bit_as_char@@QEAA@PEADKPEAEEW4utype@Field@@PEBDPEAUst_table@@@Z 000000000043d180 f   field.obj
 0001:0003c270       ?store@Field_bit_as_char@@UEAAHPEBDIPEAUcharset_info_st@@@Z 000000000043d270 f   field.obj
 0001:0003c430       ?sql_type@Field_bit_as_char@@UEBAXAEAVString@@@Z 000000000043d430 f   field.obj
 0001:0003c4e0       ?create_length_to_internal_length@create_field@@QEAAXXZ 000000000043d4e0 f   field.obj
 0001:0003c800       ?init_for_tmp_table@create_field@@QEAAXW4enum_field_types@@KKHH@Z 000000000043d800 f   field.obj
 0001:0003c900       ?init@create_field@@QEAAHPEAVTHD@@PEADW4enum_field_types@@11IPEAVItem@@3PEAUst_lex_string@@1PEAV?$List@VString@@@@PEAUcharset_info_st@@I@Z 000000000043d900 f   field.obj
 0001:0003d910       ?get_blob_type_from_length@@YA?AW4enum_field_types@@K@Z 000000000043e910 f   field.obj
 0001:0003d980       ?calc_pack_length@@YAKW4enum_field_types@@K@Z 000000000043e980 f   field.obj
 0001:0003dc20       ?pack_length_to_packflag@@YAII@Z 000000000043ec20 f   field.obj
 0001:0003dca0       ?make_field@@YAPEAVField@@PEADKPEAEEIW4enum_field_types@@PEAUcharset_info_st@@W4geometry_type@1@W4utype@1@PEAUst_typelib@@PEBDPEAUst_table@@@Z 000000000043eca0 f   field.obj
 0001:0003f960       ??0create_field@@QEAA@PEAVField@@0@Z 0000000000440960 f   field.obj
 0001:00040210       ?max_display_length@Field_blob@@UEAAKXZ 0000000000441210 f   field.obj
 0001:000402e0       ?set_warning@Field@@QEAAHW4enum_warning_level@MYSQL_ERROR@@IH@Z 00000000004412e0 f   field.obj
 0001:000403e0       ?set_datetime_warning@Field@@QEAAXW4enum_warning_level@MYSQL_ERROR@@IPEBDIW4enum_mysql_timestamp_type@@H@Z 00000000004413e0 f   field.obj
 0001:000404c0       ?set_datetime_warning@Field@@QEAAXW4enum_warning_level@MYSQL_ERROR@@I_JW4enum_mysql_timestamp_type@@H@Z 00000000004414c0 f   field.obj
 0001:00040610       ?set_datetime_warning@Field@@QEAAXW4enum_warning_level@MYSQL_ERROR@@INW4enum_mysql_timestamp_type@@@Z 0000000000441610 f   field.obj
 0001:00047a20       ?field_type2index@@YAHW4enum_field_types@@@Z 0000000000448a20 f i field.obj
 0001:00047a80       ?cmp_type@Field@@UEBA?AW4Item_result@@XZ 0000000000448a80 f i field.obj
 0001:00047ad0       ?cast_to_int_type@Field@@UEBA?AW4Item_result@@XZ 0000000000448ad0 f i field.obj
 0001:00047b20       ?eq@Field@@UEAAHPEAV1@@Z   0000000000448b20 f i field.obj
 0001:00047bc0       ?pack_length@Field@@UEBAKXZ 0000000000448bc0 f i field.obj
 0001:00047be0       ?pack_length_in_rec@Field@@UEBAKXZ 0000000000448be0 f i field.obj
 0001:00047c30       ?data_length@Field@@UEAAKPEBD@Z 0000000000448c30 f i field.obj
 0001:00047c80       ?sort_length@Field@@UEBAKXZ 0000000000448c80 f i field.obj
 0001:00047cd0       ?reset@Field@@UEAAHXZ      0000000000448cd0 f i field.obj
 0001:00047d40       ?reset_fields@Field@@UEAAXXZ 0000000000448d40 f i field.obj
 0001:00047d50       ?set_default@Field@@UEAAXXZ 0000000000448d50 f i field.obj
 0001:00047e60       ?binary@Field@@UEBAHXZ     0000000000448e60 f i field.obj
 0001:00047e70       ?zero_pack@Field@@UEBAHXZ  0000000000448e70 f i field.obj
 0001:00047e80       ?key_type@Field@@UEBA?AW4ha_base_keytype@@XZ 0000000000448e80 f i field.obj
 0001:00047e90       ?key_length@Field@@UEBAKXZ 0000000000448e90 f i field.obj
 0001:00047ee0       ?real_type@Field@@UEBA?AW4enum_field_types@@XZ 0000000000448ee0 f i field.obj
 0001:00047f30       ?cmp_binary@Field@@UEAAHPEBD0K@Z 0000000000448f30 f i field.obj
 0001:00047fb0       ?cmp_offset@Field@@UEAAHI@Z 0000000000448fb0 f i field.obj
 0001:00048030       ?cmp_binary_offset@Field@@UEAAHI@Z 0000000000449030 f i field.obj
 0001:000480c0       ?key_cmp@Field@@UEAAHPEBE0@Z 00000000004490c0 f i field.obj
 0001:00048130       ?key_cmp@Field@@UEAAHPEBEI@Z 0000000000449130 f i field.obj
 0001:000481a0       ?can_be_compared_as_longlong@Field@@UEBAHXZ 00000000004491a0 f i field.obj
 0001:000481b0       ?free@Field@@UEAAXXZ       00000000004491b0 f i field.obj
 0001:000481c0       ?move_field@Field@@UEAAX_J@Z 00000000004491c0 f i field.obj
 0001:00048220       ?get_image@Field@@UEAAXPEADIPEAUcharset_info_st@@@Z 0000000000449220 f i field.obj
 0001:00048290       ?set_image@Field@@UEAAXPEADIPEAUcharset_info_st@@@Z 0000000000449290 f i field.obj
 0001:00048300       ?get_key_image@Field@@UEAAIPEADIW4imagetype@1@@Z 0000000000449300 f i field.obj
 0001:00048380       ?set_key_image@Field@@UEAAXPEADI@Z 0000000000449380 f i field.obj
 0001:000483f0       ?pack@Field@@UEAAPEADPEADPEBDI@Z 00000000004493f0 f i field.obj
 0001:00048480       ?unpack@Field@@UEAAPEBDPEADPEBD@Z 0000000000449480 f i field.obj
 0001:00048510       ?pack_key@Field@@UEAAPEADPEADPEBDI@Z 0000000000449510 f i field.obj
 0001:00048580       ?pack_key_from_key_image@Field@@UEAAPEADPEADPEBDI@Z 0000000000449580 f i field.obj
 0001:000485f0       ?unpack_key@Field@@UEAAPEBDPEADPEBDI@Z 00000000004495f0 f i field.obj
 0001:00048660       ?packed_col_length@Field@@UEAAIPEBDI@Z 0000000000449660 f i field.obj
 0001:00048680       ?max_packed_col_length@Field@@UEAAII@Z 0000000000449680 f i field.obj
 0001:000486a0       ?pack_cmp@Field@@UEAAHPEBD0ID@Z 00000000004496a0 f i field.obj
 0001:00048710       ?pack_cmp@Field@@UEAAHPEBDID@Z 0000000000449710 f i field.obj
 0001:00048780       ?charset@Field@@UEBAPEAUcharset_info_st@@XZ 0000000000449780 f i field.obj
 0001:000487a0       ?sort_charset@Field@@UEBAPEAUcharset_info_st@@XZ 00000000004497a0 f i field.obj
 0001:000487f0       ?has_charset@Field@@UEBAHXZ 00000000004497f0 f i field.obj
 0001:00048800       ?set_charset@Field@@UEAAXPEAUcharset_info_st@@@Z 0000000000449800 f i field.obj
 0001:00048810       ?derivation@Field@@UEBA?AW4Derivation@@XZ 0000000000449810 f i field.obj
 0001:00048820       ?set_derivation@Field@@UEAAXW4Derivation@@@Z 0000000000449820 f i field.obj
 0001:00048830       ?get_geometry_type@Field@@UEAA?AW4geometry_type@1@XZ 0000000000449830 f i field.obj
 0001:00048890       ?result_type@Field_num@@UEBA?AW4Item_result@@XZ 0000000000449890 f i field.obj
 0001:000488a0       ?decimals@Field_num@@UEBAIXZ 00000000004498a0 f i field.obj
 0001:000488c0       ?size_of@Field_num@@UEBAIXZ 00000000004498c0 f i field.obj
 0001:000488d0       ??_EField_num@@UEAAPEAXI@Z 00000000004498d0 f i field.obj
 0001:000488d0       ??_GField_num@@UEAAPEAXI@Z 00000000004498d0 f i field.obj
 0001:00048940       ??3Field@@SAXPEAX_K@Z      0000000000449940 f i field.obj
 0001:000489a0       ??1Field_num@@UEAA@XZ      00000000004499a0 f i field.obj
 0001:000489e0       ??1Field@@UEAA@XZ          00000000004499e0 f i field.obj
 0001:00048a00       ?decimals@Field@@UEBAIXZ   0000000000449a00 f i field.obj
 0001:00048a10       ??_GField@@UEAAPEAXI@Z     0000000000449a10 f i field.obj
 0001:00048a10       ??_EField@@UEAAPEAXI@Z     0000000000449a10 f i field.obj
 0001:00048a80       ?length@String@@QEBAKXZ    0000000000449a80 f i field.obj
 0001:00048aa0       ?length@String@@QEAAXK@Z   0000000000449aa0 f i field.obj
 0001:00048ac0       ?ptr@String@@QEBAPEBDXZ    0000000000449ac0 f i field.obj
 0001:00048ae0       ?c_ptr_quick@String@@QEAAPEADXZ 0000000000449ae0 f i field.obj
 0001:00048b40       ??0String@@QEAA@PEADKPEAUcharset_info_st@@@Z 0000000000449b40 f i field.obj
 0001:00048bc0       ??1String@@QEAA@XZ         0000000000449bc0 f i field.obj
 0001:00048c00       ?c_ptr@String@@QEAAPEADXZ  0000000000449c00 f i field.obj
 0001:00048c80       ?free@String@@QEAAXXZ      0000000000449c80 f i field.obj
 0001:00048d30       ?alloc@String@@QEAAHK@Z    0000000000449d30 f i field.obj
 0001:00048d90       ??0?$Bitmap@$0EA@@@QEAA@I@Z 0000000000449d90 f i field.obj
 0001:00048de0       ?set_prefix@?$Bitmap@$0EA@@@QEAAXI@Z 0000000000449de0 f i field.obj
 0001:00048e70       ?length@?$Bitmap@$0EA@@@QEBAIXZ 0000000000449e70 f i field.obj
 0001:00048e80       ?set_all@?$Bitmap@$0EA@@@QEAAXXZ 0000000000449e80 f i field.obj
 0001:00048ea0       ?charset@String@@QEBAPEAUcharset_info_st@@XZ 0000000000449ea0 f i field.obj
 0001:00048ec0       ?val_str@Field@@QEAAPEAVString@@PEAV2@@Z 0000000000449ec0 f i field.obj
 0001:00048f20       ?sign@my_decimal@@QEBAHXZ  0000000000449f20 f i field.obj
 0001:00048f40       ?my_decimal2int@@YAHIPEBVmy_decimal@@DPEA_J@Z 0000000000449f40 f i field.obj
 0001:00049040       ??0my_decimal@@QEAA@XZ     000000000044a040 f i field.obj
 0001:00049090       ?init@my_decimal@@QEAAXXZ  000000000044a090 f i field.obj
 0001:00049120       ?check_result@@YAHIH@Z     000000000044a120 f i field.obj
 0001:00049180       ?int2my_decimal@@YAHI_JDPEAVmy_decimal@@@Z 000000000044a180 f i field.obj
 0001:00049220       ?result_type@Field_str@@UEBA?AW4Item_result@@XZ 000000000044a220 f i field.obj
 0001:00049230       ?decimals@Field_str@@UEBAIXZ 000000000044a230 f i field.obj
 0001:00049240       ?size_of@Field_str@@UEBAIXZ 000000000044a240 f i field.obj
 0001:00049250       ?charset@Field_str@@UEBAPEAUcharset_info_st@@XZ 000000000044a250 f i field.obj
 0001:00049270       ?set_charset@Field_str@@UEAAXPEAUcharset_info_st@@@Z 000000000044a270 f i field.obj
 0001:000492a0       ?derivation@Field_str@@UEBA?AW4Derivation@@XZ 000000000044a2a0 f i field.obj
 0001:000492c0       ?set_derivation@Field_str@@UEAAXW4Derivation@@@Z 000000000044a2c0 f i field.obj
 0001:000492f0       ?binary@Field_str@@UEBAHXZ 000000000044a2f0 f i field.obj
 0001:00049360       ?max_display_length@Field_str@@UEAAKXZ 000000000044a360 f i field.obj
 0001:00049380       ??_EField_str@@UEAAPEAXI@Z 000000000044a380 f i field.obj
 0001:00049380       ??_GField_str@@UEAAPEAXI@Z 000000000044a380 f i field.obj
 0001:000493f0       ??1Field_str@@UEAA@XZ      000000000044a3f0 f i field.obj
 0001:00049430       ?my_decimal2double@@YAHIPEBVmy_decimal@@PEAN@Z 000000000044a430 f i field.obj
 0001:00049480       ?init@?$Bitmap@$0EA@@@QEAAXI@Z 000000000044a480 f i field.obj
 0001:000494d0       ?set_charset@String@@QEAAXPEAUcharset_info_st@@@Z 000000000044a4d0 f i field.obj
 0001:00049500       ?alloced_length@String@@QEBAKXZ 000000000044a500 f i field.obj
 0001:00049520       ?my_decimal_length_to_precision@@YAIIIH@Z 000000000044a520 f i field.obj
 0001:000495b0       ?my_decimal_get_binary_size@@YAHII@Z 000000000044a5b0 f i field.obj
 0001:00049600       ?type@Field_new_decimal@@UEBA?AW4enum_field_types@@XZ 000000000044a600 f i field.obj
 0001:00049610       ?key_type@Field_new_decimal@@UEBA?AW4ha_base_keytype@@XZ 000000000044a610 f i field.obj
 0001:00049620       ?result_type@Field_new_decimal@@UEBA?AW4Item_result@@XZ 000000000044a620 f i field.obj
 0001:00049630       ?zero_pack@Field_new_decimal@@UEBAHXZ 000000000044a630 f i field.obj
 0001:00049640       ?max_display_length@Field_new_decimal@@UEAAKXZ 000000000044a640 f i field.obj
 0001:00049660       ?size_of@Field_new_decimal@@UEBAIXZ 000000000044a660 f i field.obj
 0001:00049670       ?pack_length@Field_new_decimal@@UEBAKXZ 000000000044a670 f i field.obj
 0001:00049690       ??_GField_new_decimal@@UEAAPEAXI@Z 000000000044a690 f i field.obj
 0001:00049690       ??_EField_new_decimal@@UEAAPEAXI@Z 000000000044a690 f i field.obj
 0001:00049700       ??1Field_new_decimal@@UEAA@XZ 000000000044a700 f i field.obj
 0001:00049740       ?sign@my_decimal@@QEAAXH@Z 000000000044a740 f i field.obj
 0001:00049760       ?max_my_decimal@@YAXPEAVmy_decimal@@HH@Z 000000000044a760 f i field.obj
 0001:000497f0       ?my_decimal_set_zero@@YAHPEAVmy_decimal@@@Z 000000000044a7f0 f i field.obj
 0001:00049840       ??0String@@QEAA@XZ         000000000044a840 f i field.obj
 0001:000498a0       ?double2my_decimal@@YAHINPEAVmy_decimal@@@Z 000000000044a8a0 f i field.obj
 0001:00049910       ?check_result_and_overflow@@YAHIHPEAVmy_decimal@@@Z 000000000044a910 f i field.obj
 0001:000499b0       ?fix_buffer_pointer@my_decimal@@QEAAXXZ 000000000044a9b0 f i field.obj
 0001:000499d0       ?max_internal_decimal@@YAXPEAVmy_decimal@@@Z 000000000044a9d0 f i field.obj
 0001:00049a20       ?check_overflow@Field@@QEAAHH@Z 000000000044aa20 f i field.obj
 0001:00049a80       ?binary2my_decimal@@YAHIPEBDPEAVmy_decimal@@HH@Z 000000000044aa80 f i field.obj
 0001:00049af0       ?rint@@YANN@Z              000000000044aaf0 f i field.obj
 0001:00049ba0       ?_current_thd@@YAPEAVTHD@@XZ 000000000044aba0 f i field.obj
 0001:00049bd0       ?set_null@Field@@QEAAXH@Z  000000000044abd0 f i field.obj
 0001:00049c30       ?type@Field_timestamp@@UEBA?AW4enum_field_types@@XZ 000000000044ac30 f i field.obj
 0001:00049c40       ?key_type@Field_timestamp@@UEBA?AW4ha_base_keytype@@XZ 000000000044ac40 f i field.obj
 0001:00049c50       ?cmp_type@Field_timestamp@@UEBA?AW4Item_result@@XZ 000000000044ac50 f i field.obj
 0001:00049c60       ?reset@Field_timestamp@@UEAAHXZ 000000000044ac60 f i field.obj
 0001:00049cb0       ?pack_length@Field_timestamp@@UEBAKXZ 000000000044acb0 f i field.obj
 0001:00049cc0       ?can_be_compared_as_longlong@Field_timestamp@@UEBAHXZ 000000000044acc0 f i field.obj
 0001:00049cd0       ?zero_pack@Field_timestamp@@UEBAHXZ 000000000044acd0 f i field.obj
 0001:00049ce0       ?set_default@Field_timestamp@@UEAAXXZ 000000000044ace0 f i field.obj
 0001:00049d60       ??_EField_timestamp@@UEAAPEAXI@Z 000000000044ad60 f i field.obj
 0001:00049d60       ??_GField_timestamp@@UEAAPEAXI@Z 000000000044ad60 f i field.obj
 0001:00049dd0       ??1Field_timestamp@@UEAA@XZ 000000000044add0 f i field.obj
 0001:00049e10       ?set@String@@QEAAXPEBDKPEAUcharset_info_st@@@Z 000000000044ae10 f i field.obj
 0001:00049ec0       ?set_notnull@Field@@QEAAXH@Z 000000000044aec0 f i field.obj
 0001:00049f20       ?query_start@THD@@QEAA_JXZ 000000000044af20 f i field.obj
 0001:00049f50       ?report_data_too_long@@YAXPEAVField_str@@@Z 000000000044af50 f i field.obj
 0001:00049ff0       ??2Field@@SAPEAX_K@Z       000000000044aff0 f i field.obj
 0001:0004a030       ?maybe_null@Field@@QEAAHXZ 000000000044b030 f i field.obj
 0001:0004a0a0       ??0Field_varstring@@QEAA@KHPEBDPEAUst_table@@PEAUcharset_info_st@@@Z 000000000044b0a0 f i field.obj
 0001:0004a200       ??0Field_longstr@@QEAA@PEADKPEAEEW4utype@Field@@PEBDPEAUst_table@@PEAUcharset_info_st@@@Z 000000000044b200 f i field.obj
 0001:0004a2d0       ??_GField_longstr@@UEAAPEAXI@Z 000000000044b2d0 f i field.obj
 0001:0004a2d0       ??_EField_longstr@@UEAAPEAXI@Z 000000000044b2d0 f i field.obj
 0001:0004a340       ??1Field_longstr@@UEAA@XZ  000000000044b340 f i field.obj
 0001:0004a380       ?type@Field_varstring@@UEBA?AW4enum_field_types@@XZ 000000000044b380 f i field.obj
 0001:0004a390       ?zero_pack@Field_varstring@@UEBAHXZ 000000000044b390 f i field.obj
 0001:0004a3a0       ?reset@Field_varstring@@UEAAHXZ 000000000044b3a0 f i field.obj
 0001:0004a410       ?pack_length@Field_varstring@@UEBAKXZ 000000000044b410 f i field.obj
 0001:0004a440       ?key_length@Field_varstring@@UEBAKXZ 000000000044b440 f i field.obj
 0001:0004a460       ?sort_length@Field_varstring@@UEBAKXZ 000000000044b460 f i field.obj
 0001:0004a4e0       ?store@Field_varstring@@UEAAHN@Z 000000000044b4e0 f i field.obj
 0001:0004a530       ?size_of@Field_varstring@@UEBAIXZ 000000000044b530 f i field.obj
 0001:0004a540       ?real_type@Field_varstring@@UEBA?AW4enum_field_types@@XZ 000000000044b540 f i field.obj
 0001:0004a550       ?has_charset@Field_varstring@@UEBAHXZ 000000000044b550 f i field.obj
 0001:0004a5d0       ??_GField_varstring@@UEAAPEAXI@Z 000000000044b5d0 f i field.obj
 0001:0004a5d0       ??_EField_varstring@@UEAAPEAXI@Z 000000000044b5d0 f i field.obj
 0001:0004a640       ??1Field_varstring@@UEAA@XZ 000000000044b640 f i field.obj
 0001:0004a680       ?type@Field_blob@@UEBA?AW4enum_field_types@@XZ 000000000044b680 f i field.obj
 0001:0004a690       ?key_type@Field_blob@@UEBA?AW4ha_base_keytype@@XZ 000000000044b690 f i field.obj
 0001:0004a700       ?key_length@Field_blob@@UEBAKXZ 000000000044b700 f i field.obj
 0001:0004a710       ?pack_length@Field_blob@@UEBAKXZ 000000000044b710 f i field.obj
 0001:0004a740       ?reset@Field_blob@@UEAAHXZ 000000000044b740 f i field.obj
 0001:0004a7a0       ?reset_fields@Field_blob@@UEAAXXZ 000000000044b7a0 f i field.obj
 0001:0004a800       ?free@Field_blob@@UEAAXXZ  000000000044b800 f i field.obj
 0001:0004a850       ?size_of@Field_blob@@UEBAIXZ 000000000044b850 f i field.obj
 0001:0004a860       ?has_charset@Field_blob@@UEBAHXZ 000000000044b860 f i field.obj
 0001:0004a8e0       ??_EField_blob@@UEAAPEAXI@Z 000000000044b8e0 f i field.obj
 0001:0004a8e0       ??_GField_blob@@UEAAPEAXI@Z 000000000044b8e0 f i field.obj
 0001:0004a950       ??1Field_blob@@UEAA@XZ     000000000044b950 f i field.obj
 0001:0004a9e0       ?max_data_length@Field_blob@@QEBAKXZ 000000000044b9e0 f i field.obj
 0001:0004aa50       ?get_ptr@Field_blob@@QEAAXPEAPEAD@Z 000000000044ba50 f i field.obj
 0001:0004aac0       ??0MBR@@QEAA@XZ            000000000044bac0 f i field.obj
 0001:0004ab30       ?get_length@Field_blob@@QEAAKI@Z 000000000044bb30 f i field.obj
 0001:0004ab90       ?append@String@@QEAAHD@Z   000000000044bb90 f i field.obj
 0001:0004ac80       ??0String@@QEAA@PEBDKPEAUcharset_info_st@@@Z 000000000044bc80 f i field.obj
 0001:0004ad00       ?type@Field_bit@@UEBA?AW4enum_field_types@@XZ 000000000044bd00 f i field.obj
 0001:0004ad10       ?key_type@Field_bit@@UEBA?AW4ha_base_keytype@@XZ 000000000044bd10 f i field.obj
 0001:0004ad20       ?key_length@Field_bit@@UEBAKXZ 000000000044bd20 f i field.obj
 0001:0004ad50       ?max_display_length@Field_bit@@UEAAKXZ 000000000044bd50 f i field.obj
 0001:0004ad70       ?size_of@Field_bit@@UEBAIXZ 000000000044bd70 f i field.obj
 0001:0004ad80       ?result_type@Field_bit@@UEBA?AW4Item_result@@XZ 000000000044bd80 f i field.obj
 0001:0004ad90       ?reset@Field_bit@@UEAAHXZ  000000000044bd90 f i field.obj
 0001:0004adf0       ?cmp@Field_bit@@UEAAHPEBD0@Z 000000000044bdf0 f i field.obj
 0001:0004aec0       ?key_cmp@Field_bit@@UEAAHPEBE0@Z 000000000044bec0 f i field.obj
 0001:0004af30       ?cmp_binary_offset@Field_bit@@UEAAHI@Z 000000000044bf30 f i field.obj
 0001:0004af90       ?get_image@Field_bit@@UEAAXPEADIPEAUcharset_info_st@@@Z 000000000044bf90 f i field.obj
 0001:0004b000       ?set_image@Field_bit@@UEAAXPEADIPEAUcharset_info_st@@@Z 000000000044c000 f i field.obj
 0001:0004b070       ?set_key_image@Field_bit@@UEAAXPEADI@Z 000000000044c070 f i field.obj
 0001:0004b0e0       ?sort_string@Field_bit@@UEAAXPEADI@Z 000000000044c0e0 f i field.obj
 0001:0004b150       ?pack_length@Field_bit@@UEBAKXZ 000000000044c150 f i field.obj
 0001:0004b180       ?pack_length_in_rec@Field_bit@@UEBAKXZ 000000000044c180 f i field.obj
 0001:0004b1a0       ?move_field@Field_bit@@UEAAX_J@Z 000000000044c1a0 f i field.obj
 0001:0004b210       ?eq@Field_bit@@UEAAHPEAVField@@@Z 000000000044c210 f i field.obj
 0001:0004b310       ??_EField_bit@@UEAAPEAXI@Z 000000000044c310 f i field.obj
 0001:0004b310       ??_GField_bit@@UEAAPEAXI@Z 000000000044c310 f i field.obj
 0001:0004b380       ??1Field_bit@@UEAA@XZ      000000000044c380 f i field.obj
 0001:0004b3c0       ?really_abort_on_warning@THD@@QEAAHXZ 000000000044c3c0 f i field.obj
 0001:0004b450       ?key_type@Field_bit_as_char@@UEBA?AW4ha_base_keytype@@XZ 000000000044c450 f i field.obj
 0001:0004b460       ?size_of@Field_bit_as_char@@UEBAIXZ 000000000044c460 f i field.obj
 0001:0004b470       ?store@Field_bit_as_char@@UEAAHN@Z 000000000044c470 f i field.obj
 0001:0004b4c0       ?store@Field_bit_as_char@@UEAAH_JH@Z 000000000044c4c0 f i field.obj
 0001:0004b520       ??_GField_bit_as_char@@UEAAPEAXI@Z 000000000044c520 f i field.obj
 0001:0004b520       ??_EField_bit_as_char@@UEAAPEAXI@Z 000000000044c520 f i field.obj
 0001:0004b590       ??1Field_bit_as_char@@UEAA@XZ 000000000044c590 f i field.obj
 0001:0004b5d0       ?empty@base_list@@QEAAXXZ  000000000044c5d0 f i field.obj
 0001:0004b610       ?my_decimal_precision_to_length@@YAKIEH@Z 000000000044c610 f i field.obj
 0001:0004b6c0       ?my_decimal_trim@@YAXPEAKPEAI@Z 000000000044c6c0 f i field.obj
 0001:0004b710       ?get_enum_pack_length@@YAIH@Z 000000000044c710 f i field.obj
 0001:0004b770       ?get_set_pack_length@@YAIH@Z 000000000044c770 f i field.obj
 0001:0004b7e0       ??0Field_decimal@@QEAA@PEADKPEAEEW4utype@Field@@PEBDPEAUst_table@@EHH@Z 000000000044c7e0 f i field.obj
 0001:0004b8d0       ??0Field_real@@QEAA@PEADKPEAEEW4utype@Field@@PEBDPEAUst_table@@EHH@Z 000000000044c8d0 f i field.obj
 0001:0004ba10       ?max_display_length@Field_real@@UEAAKXZ 000000000044ca10 f i field.obj
 0001:0004ba30       ?size_of@Field_real@@UEBAIXZ 000000000044ca30 f i field.obj
 0001:0004ba40       ??_EField_real@@UEAAPEAXI@Z 000000000044ca40 f i field.obj
 0001:0004ba40       ??_GField_real@@UEAAPEAXI@Z 000000000044ca40 f i field.obj
 0001:0004bab0       ??1Field_real@@UEAA@XZ     000000000044cab0 f i field.obj
 0001:0004baf0       ?type@Field_decimal@@UEBA?AW4enum_field_types@@XZ 000000000044caf0 f i field.obj
 0001:0004bb00       ?key_type@Field_decimal@@UEBA?AW4ha_base_keytype@@XZ 000000000044cb00 f i field.obj
 0001:0004bb60       ?zero_pack@Field_decimal@@UEBAHXZ 000000000044cb60 f i field.obj
 0001:0004bb70       ??_GField_decimal@@UEAAPEAXI@Z 000000000044cb70 f i field.obj
 0001:0004bb70       ??_EField_decimal@@UEAAPEAXI@Z 000000000044cb70 f i field.obj
 0001:0004bbe0       ??1Field_decimal@@UEAA@XZ  000000000044cbe0 f i field.obj
 0001:0004bc20       ??0Field_tiny@@QEAA@PEADKPEAEEW4utype@Field@@PEBDPEAUst_table@@HH@Z 000000000044cc20 f i field.obj
 0001:0004bd10       ?result_type@Field_tiny@@UEBA?AW4Item_result@@XZ 000000000044cd10 f i field.obj
 0001:0004bd20       ?type@Field_tiny@@UEBA?AW4enum_field_types@@XZ 000000000044cd20 f i field.obj
 0001:0004bd30       ?key_type@Field_tiny@@UEBA?AW4ha_base_keytype@@XZ 000000000044cd30 f i field.obj
 0001:0004bd90       ?reset@Field_tiny@@UEAAHXZ 000000000044cd90 f i field.obj
 0001:0004bdb0       ?pack_length@Field_tiny@@UEBAKXZ 000000000044cdb0 f i field.obj
 0001:0004bdc0       ?max_display_length@Field_tiny@@UEAAKXZ 000000000044cdc0 f i field.obj
 0001:0004bdd0       ??_EField_tiny@@UEAAPEAXI@Z 000000000044cdd0 f i field.obj
 0001:0004bdd0       ??_GField_tiny@@UEAAPEAXI@Z 000000000044cdd0 f i field.obj
 0001:0004be40       ??1Field_tiny@@UEAA@XZ     000000000044ce40 f i field.obj
 0001:0004be80       ??0Field_short@@QEAA@PEADKPEAEEW4utype@Field@@PEBDPEAUst_table@@HH@Z 000000000044ce80 f i field.obj
 0001:0004bf70       ?result_type@Field_short@@UEBA?AW4Item_result@@XZ 000000000044cf70 f i field.obj
 0001:0004bf80       ?type@Field_short@@UEBA?AW4enum_field_types@@XZ 000000000044cf80 f i field.obj
 0001:0004bf90       ?key_type@Field_short@@UEBA?AW4ha_base_keytype@@XZ 000000000044cf90 f i field.obj
 0001:0004bff0       ?reset@Field_short@@UEAAHXZ 000000000044cff0 f i field.obj
 0001:0004c020       ?pack_length@Field_short@@UEBAKXZ 000000000044d020 f i field.obj
 0001:0004c030       ?max_display_length@Field_short@@UEAAKXZ 000000000044d030 f i field.obj
 0001:0004c040       ??_GField_short@@UEAAPEAXI@Z 000000000044d040 f i field.obj
 0001:0004c040       ??_EField_short@@UEAAPEAXI@Z 000000000044d040 f i field.obj
 0001:0004c0b0       ??1Field_short@@UEAA@XZ    000000000044d0b0 f i field.obj
 0001:0004c0f0       ??0Field_medium@@QEAA@PEADKPEAEEW4utype@Field@@PEBDPEAUst_table@@HH@Z 000000000044d0f0 f i field.obj
 0001:0004c1e0       ?result_type@Field_medium@@UEBA?AW4Item_result@@XZ 000000000044d1e0 f i field.obj
 0001:0004c1f0       ?type@Field_medium@@UEBA?AW4enum_field_types@@XZ 000000000044d1f0 f i field.obj
 0001:0004c200       ?key_type@Field_medium@@UEBA?AW4ha_base_keytype@@XZ 000000000044d200 f i field.obj
 0001:0004c260       ?reset@Field_medium@@UEAAHXZ 000000000044d260 f i field.obj
 0001:0004c2a0       ?pack_length@Field_medium@@UEBAKXZ 000000000044d2a0 f i field.obj
 0001:0004c2b0       ?max_display_length@Field_medium@@UEAAKXZ 000000000044d2b0 f i field.obj
 0001:0004c2c0       ??_EField_medium@@UEAAPEAXI@Z 000000000044d2c0 f i field.obj
 0001:0004c2c0       ??_GField_medium@@UEAAPEAXI@Z 000000000044d2c0 f i field.obj
 0001:0004c330       ??1Field_medium@@UEAA@XZ   000000000044d330 f i field.obj
 0001:0004c370       ??0Field_long@@QEAA@PEADKPEAEEW4utype@Field@@PEBDPEAUst_table@@HH@Z 000000000044d370 f i field.obj
 0001:0004c460       ?result_type@Field_long@@UEBA?AW4Item_result@@XZ 000000000044d460 f i field.obj
 0001:0004c470       ?type@Field_long@@UEBA?AW4enum_field_types@@XZ 000000000044d470 f i field.obj
 0001:0004c480       ?key_type@Field_long@@UEBA?AW4ha_base_keytype@@XZ 000000000044d480 f i field.obj
 0001:0004c4e0       ?reset@Field_long@@UEAAHXZ 000000000044d4e0 f i field.obj
 0001:0004c530       ?pack_length@Field_long@@UEBAKXZ 000000000044d530 f i field.obj
 0001:0004c540       ?max_display_length@Field_long@@UEAAKXZ 000000000044d540 f i field.obj
 0001:0004c550       ??_EField_long@@UEAAPEAXI@Z 000000000044d550 f i field.obj
 0001:0004c550       ??_GField_long@@UEAAPEAXI@Z 000000000044d550 f i field.obj
 0001:0004c5c0       ??1Field_long@@UEAA@XZ     000000000044d5c0 f i field.obj
 0001:0004c600       ??0Field_longlong@@QEAA@PEADKPEAEEW4utype@Field@@PEBDPEAUst_table@@HH@Z 000000000044d600 f i field.obj
 0001:0004c6f0       ?result_type@Field_longlong@@UEBA?AW4Item_result@@XZ 000000000044d6f0 f i field.obj
 0001:0004c700       ?type@Field_longlong@@UEBA?AW4enum_field_types@@XZ 000000000044d700 f i field.obj
 0001:0004c710       ?key_type@Field_longlong@@UEBA?AW4ha_base_keytype@@XZ 000000000044d710 f i field.obj
 0001:0004c770       ?reset@Field_longlong@@UEAAHXZ 000000000044d770 f i field.obj
 0001:0004c800       ?pack_length@Field_longlong@@UEBAKXZ 000000000044d800 f i field.obj
 0001:0004c810       ?can_be_compared_as_longlong@Field_longlong@@UEBAHXZ 000000000044d810 f i field.obj
 0001:0004c820       ?max_display_length@Field_longlong@@UEAAKXZ 000000000044d820 f i field.obj
 0001:0004c830       ??_EField_longlong@@UEAAPEAXI@Z 000000000044d830 f i field.obj
 0001:0004c830       ??_GField_longlong@@UEAAPEAXI@Z 000000000044d830 f i field.obj
 0001:0004c8a0       ??1Field_longlong@@UEAA@XZ 000000000044d8a0 f i field.obj
 0001:0004c8e0       ??0Field_float@@QEAA@PEADKPEAEEW4utype@Field@@PEBDPEAUst_table@@EHH@Z 000000000044d8e0 f i field.obj
 0001:0004c9d0       ?type@Field_float@@UEBA?AW4enum_field_types@@XZ 000000000044d9d0 f i field.obj
 0001:0004c9e0       ?key_type@Field_float@@UEBA?AW4ha_base_keytype@@XZ 000000000044d9e0 f i field.obj
 0001:0004c9f0       ?reset@Field_float@@UEAAHXZ 000000000044d9f0 f i field.obj
 0001:0004ca50       ?pack_length@Field_float@@UEBAKXZ 000000000044da50 f i field.obj
 0001:0004ca60       ??_GField_float@@UEAAPEAXI@Z 000000000044da60 f i field.obj
 0001:0004ca60       ??_EField_float@@UEAAPEAXI@Z 000000000044da60 f i field.obj
 0001:0004cad0       ??1Field_float@@UEAA@XZ    000000000044dad0 f i field.obj
 0001:0004cb10       ??0Field_double@@QEAA@PEADKPEAEEW4utype@Field@@PEBDPEAUst_table@@EHH@Z 000000000044db10 f i field.obj
 0001:0004cc00       ?type@Field_double@@UEBA?AW4enum_field_types@@XZ 000000000044dc00 f i field.obj
 0001:0004cc10       ?key_type@Field_double@@UEBA?AW4ha_base_keytype@@XZ 000000000044dc10 f i field.obj
 0001:0004cc20       ?reset@Field_double@@UEAAHXZ 000000000044dc20 f i field.obj
 0001:0004cc80       ?pack_length@Field_double@@UEBAKXZ 000000000044dc80 f i field.obj
 0001:0004cc90       ??_GField_double@@UEAAPEAXI@Z 000000000044dc90 f i field.obj
 0001:0004cc90       ??_EField_double@@UEAAPEAXI@Z 000000000044dc90 f i field.obj
 0001:0004cd00       ??1Field_double@@UEAA@XZ   000000000044dd00 f i field.obj
 0001:0004cd40       ??0Field_null@@QEAA@PEADKW4utype@Field@@PEBDPEAUst_table@@PEAUcharset_info_st@@@Z 000000000044dd40 f i field.obj
 0001:0004ce10       ?type@Field_null@@UEBA?AW4enum_field_types@@XZ 000000000044de10 f i field.obj
 0001:0004ce20       ?store@Field_null@@UEAAHPEBDIPEAUcharset_info_st@@@Z 000000000044de20 f i field.obj
 0001:0004ce50       ?store@Field_null@@UEAAHN@Z 000000000044de50 f i field.obj
 0001:0004ce70       ?store@Field_null@@UEAAH_JH@Z 000000000044de70 f i field.obj
 0001:0004cea0       ?store_decimal@Field_null@@UEAAHPEBVmy_decimal@@@Z 000000000044dea0 f i field.obj
 0001:0004cec0       ?reset@Field_null@@UEAAHXZ 000000000044dec0 f i field.obj
 0001:0004ced0       ?val_real@Field_null@@UEAANXZ 000000000044ded0 f i field.obj
 0001:0004cf10       ?val_int@Field_null@@UEAA_JXZ 000000000044df10 f i field.obj
 0001:0004cf20       ?val_decimal@Field_null@@UEAAPEAVmy_decimal@@PEAV2@@Z 000000000044df20 f i field.obj
 0001:0004cf40       ?val_str@Field_null@@UEAAPEAVString@@PEAV2@0@Z 000000000044df40 f i field.obj
 0001:0004cfa0       ?cmp@Field_null@@UEAAHPEBD0@Z 000000000044dfa0 f i field.obj
 0001:0004cfc0       ?sort_string@Field_null@@UEAAXPEADI@Z 000000000044dfc0 f i field.obj
 0001:0004cfe0       ?pack_length@Field_null@@UEBAKXZ 000000000044dfe0 f i field.obj
 0001:0004cff0       ?size_of@Field_null@@UEBAIXZ 000000000044dff0 f i field.obj
 0001:0004d000       ?max_display_length@Field_null@@UEAAKXZ 000000000044e000 f i field.obj
 0001:0004d010       ??_EField_null@@UEAAPEAXI@Z 000000000044e010 f i field.obj
 0001:0004d010       ??_GField_null@@UEAAPEAXI@Z 000000000044e010 f i field.obj
 0001:0004d080       ??1Field_null@@UEAA@XZ     000000000044e080 f i field.obj
 0001:0004d0c0       ??0Field_year@@QEAA@PEADKPEAEEW4utype@Field@@PEBDPEAUst_table@@@Z 000000000044e0c0 f i field.obj
 0001:0004d190       ?type@Field_year@@UEBA?AW4enum_field_types@@XZ 000000000044e190 f i field.obj
 0001:0004d1a0       ?can_be_compared_as_longlong@Field_year@@UEBAHXZ 000000000044e1a0 f i field.obj
 0001:0004d1b0       ??_GField_year@@UEAAPEAXI@Z 000000000044e1b0 f i field.obj
 0001:0004d1b0       ??_EField_year@@UEAAPEAXI@Z 000000000044e1b0 f i field.obj
 0001:0004d220       ??1Field_year@@UEAA@XZ     000000000044e220 f i field.obj
 0001:0004d260       ??0Field_date@@QEAA@PEADPEAEEW4utype@Field@@PEBDPEAUst_table@@PEAUcharset_info_st@@@Z 000000000044e260 f i field.obj
 0001:0004d330       ?type@Field_date@@UEBA?AW4enum_field_types@@XZ 000000000044e330 f i field.obj
 0001:0004d340       ?key_type@Field_date@@UEBA?AW4ha_base_keytype@@XZ 000000000044e340 f i field.obj
 0001:0004d350       ?cmp_type@Field_date@@UEBA?AW4Item_result@@XZ 000000000044e350 f i field.obj
 0001:0004d360       ?reset@Field_date@@UEAAHXZ 000000000044e360 f i field.obj
 0001:0004d3b0       ?pack_length@Field_date@@UEBAKXZ 000000000044e3b0 f i field.obj
 0001:0004d3c0       ?can_be_compared_as_longlong@Field_date@@UEBAHXZ 000000000044e3c0 f i field.obj
 0001:0004d3d0       ?zero_pack@Field_date@@UEBAHXZ 000000000044e3d0 f i field.obj
 0001:0004d3e0       ??_EField_date@@UEAAPEAXI@Z 000000000044e3e0 f i field.obj
 0001:0004d3e0       ??_GField_date@@UEAAPEAXI@Z 000000000044e3e0 f i field.obj
 0001:0004d450       ??1Field_date@@UEAA@XZ     000000000044e450 f i field.obj
 0001:0004d490       ??0Field_newdate@@QEAA@PEADPEAEEW4utype@Field@@PEBDPEAUst_table@@PEAUcharset_info_st@@@Z 000000000044e490 f i field.obj
 0001:0004d560       ?type@Field_newdate@@UEBA?AW4enum_field_types@@XZ 000000000044e560 f i field.obj
 0001:0004d570       ?real_type@Field_newdate@@UEBA?AW4enum_field_types@@XZ 000000000044e570 f i field.obj
 0001:0004d580       ?key_type@Field_newdate@@UEBA?AW4ha_base_keytype@@XZ 000000000044e580 f i field.obj
 0001:0004d590       ?cmp_type@Field_newdate@@UEBA?AW4Item_result@@XZ 000000000044e590 f i field.obj
 0001:0004d5a0       ?reset@Field_newdate@@UEAAHXZ 000000000044e5a0 f i field.obj
 0001:0004d5e0       ?pack_length@Field_newdate@@UEBAKXZ 000000000044e5e0 f i field.obj
 0001:0004d5f0       ?can_be_compared_as_longlong@Field_newdate@@UEBAHXZ 000000000044e5f0 f i field.obj
 0001:0004d600       ?zero_pack@Field_newdate@@UEBAHXZ 000000000044e600 f i field.obj
 0001:0004d610       ??_GField_newdate@@UEAAPEAXI@Z 000000000044e610 f i field.obj
 0001:0004d610       ??_EField_newdate@@UEAAPEAXI@Z 000000000044e610 f i field.obj
 0001:0004d680       ??1Field_newdate@@UEAA@XZ  000000000044e680 f i field.obj
 0001:0004d6c0       ??0Field_time@@QEAA@PEADPEAEEW4utype@Field@@PEBDPEAUst_table@@PEAUcharset_info_st@@@Z 000000000044e6c0 f i field.obj
 0001:0004d790       ?type@Field_time@@UEBA?AW4enum_field_types@@XZ 000000000044e790 f i field.obj
 0001:0004d7a0       ?key_type@Field_time@@UEBA?AW4ha_base_keytype@@XZ 000000000044e7a0 f i field.obj
 0001:0004d7b0       ?cmp_type@Field_time@@UEBA?AW4Item_result@@XZ 000000000044e7b0 f i field.obj
 0001:0004d7c0       ?reset@Field_time@@UEAAHXZ 000000000044e7c0 f i field.obj
 0001:0004d800       ?pack_length@Field_time@@UEBAKXZ 000000000044e800 f i field.obj
 0001:0004d810       ?can_be_compared_as_longlong@Field_time@@UEBAHXZ 000000000044e810 f i field.obj
 0001:0004d820       ?zero_pack@Field_time@@UEBAHXZ 000000000044e820 f i field.obj
 0001:0004d830       ??_EField_time@@UEAAPEAXI@Z 000000000044e830 f i field.obj
 0001:0004d830       ??_GField_time@@UEAAPEAXI@Z 000000000044e830 f i field.obj
 0001:0004d8a0       ??1Field_time@@UEAA@XZ     000000000044e8a0 f i field.obj
 0001:0004d8e0       ??0Field_datetime@@QEAA@PEADPEAEEW4utype@Field@@PEBDPEAUst_table@@PEAUcharset_info_st@@@Z 000000000044e8e0 f i field.obj
 0001:0004d9b0       ?type@Field_datetime@@UEBA?AW4enum_field_types@@XZ 000000000044e9b0 f i field.obj
 0001:0004d9c0       ?key_type@Field_datetime@@UEBA?AW4ha_base_keytype@@XZ 000000000044e9c0 f i field.obj
 0001:0004d9d0       ?cmp_type@Field_datetime@@UEBA?AW4Item_result@@XZ 000000000044e9d0 f i field.obj
 0001:0004d9e0       ?decimals@Field_datetime@@UEBAIXZ 000000000044e9e0 f i field.obj
 0001:0004d9f0       ?reset@Field_datetime@@UEAAHXZ 000000000044e9f0 f i field.obj
 0001:0004da80       ?pack_length@Field_datetime@@UEBAKXZ 000000000044ea80 f i field.obj
 0001:0004da90       ?can_be_compared_as_longlong@Field_datetime@@UEBAHXZ 000000000044ea90 f i field.obj
 0001:0004daa0       ?zero_pack@Field_datetime@@UEBAHXZ 000000000044eaa0 f i field.obj
 0001:0004dab0       ??_GField_datetime@@UEAAPEAXI@Z 000000000044eab0 f i field.obj
 0001:0004dab0       ??_EField_datetime@@UEAAPEAXI@Z 000000000044eab0 f i field.obj
 0001:0004db20       ??1Field_datetime@@UEAA@XZ 000000000044eb20 f i field.obj
 0001:0004db60       ??0Field_string@@QEAA@PEADKPEAEEW4utype@Field@@PEBDPEAUst_table@@PEAUcharset_info_st@@@Z 000000000044eb60 f i field.obj
 0001:0004dc40       ?type@Field_string@@UEBA?AW4enum_field_types@@XZ 000000000044ec40 f i field.obj
 0001:0004dd00       ?key_type@Field_string@@UEBA?AW4ha_base_keytype@@XZ 000000000044ed00 f i field.obj
 0001:0004dd70       ?zero_pack@Field_string@@UEBAHXZ 000000000044ed70 f i field.obj
 0001:0004dd80       ?reset@Field_string@@UEAAHXZ 000000000044ed80 f i field.obj
 0001:0004de60       ?store@Field_string@@UEAAHN@Z 000000000044ee60 f i field.obj
 0001:0004deb0       ?size_of@Field_string@@UEBAIXZ 000000000044eeb0 f i field.obj
 0001:0004dec0       ?real_type@Field_string@@UEBA?AW4enum_field_types@@XZ 000000000044eec0 f i field.obj
 0001:0004ded0       ?has_charset@Field_string@@UEBAHXZ 000000000044eed0 f i field.obj
 0001:0004df50       ??_EField_string@@UEAAPEAXI@Z 000000000044ef50 f i field.obj
 0001:0004df50       ??_GField_string@@UEAAPEAXI@Z 000000000044ef50 f i field.obj
 0001:0004dfc0       ??1Field_string@@UEAA@XZ   000000000044efc0 f i field.obj
 0001:0004e000       ??0Field_varstring@@QEAA@PEADKIPEAEEW4utype@Field@@PEBDPEAUst_table@@PEAUcharset_info_st@@@Z 000000000044f000 f i field.obj
 0001:0004e130       ??0Field_geom@@QEAA@PEADPEAEIW4utype@Field@@PEBDPEAUst_table@@IW4geometry_type@2@@Z 000000000044f130 f i field.obj
 0001:0004e220       ?key_type@Field_geom@@UEBA?AW4ha_base_keytype@@XZ 000000000044f220 f i field.obj
 0001:0004e230       ?type@Field_geom@@UEBA?AW4enum_field_types@@XZ 000000000044f230 f i field.obj
 0001:0004e240       ?size_of@Field_geom@@UEBAIXZ 000000000044f240 f i field.obj
 0001:0004e250       ?reset@Field_geom@@UEAAHXZ 000000000044f250 f i field.obj
 0001:0004e2d0       ?get_geometry_type@Field_geom@@UEAA?AW4geometry_type@Field@@XZ 000000000044f2d0 f i field.obj
 0001:0004e2f0       ??_GField_geom@@UEAAPEAXI@Z 000000000044f2f0 f i field.obj
 0001:0004e2f0       ??_EField_geom@@UEAAPEAXI@Z 000000000044f2f0 f i field.obj
 0001:0004e360       ??1Field_geom@@UEAA@XZ     000000000044f360 f i field.obj
 0001:0004e3a0       ??0Field_enum@@QEAA@PEADKPEAEEW4utype@Field@@PEBDPEAUst_table@@IPEAUst_typelib@@PEAUcharset_info_st@@@Z 000000000044f3a0 f i field.obj
 0001:0004e4c0       ?type@Field_enum@@UEBA?AW4enum_field_types@@XZ 000000000044f4c0 f i field.obj
 0001:0004e4d0       ?cmp_type@Field_enum@@UEBA?AW4Item_result@@XZ 000000000044f4d0 f i field.obj
 0001:0004e4e0       ?cast_to_int_type@Field_enum@@UEBA?AW4Item_result@@XZ 000000000044f4e0 f i field.obj
 0001:0004e4f0       ?reset@Field_enum@@UEAAHXZ 000000000044f4f0 f i field.obj
 0001:0004e550       ?pack_length@Field_enum@@UEBAKXZ 000000000044f550 f i field.obj
 0001:0004e570       ?size_of@Field_enum@@UEBAIXZ 000000000044f570 f i field.obj
 0001:0004e580       ?real_type@Field_enum@@UEBA?AW4enum_field_types@@XZ 000000000044f580 f i field.obj
 0001:0004e590       ?zero_pack@Field_enum@@UEBAHXZ 000000000044f590 f i field.obj
 0001:0004e5a0       ?optimize_range@Field_enum@@UEAAHII@Z 000000000044f5a0 f i field.obj
 0001:0004e5c0       ?has_charset@Field_enum@@UEBAHXZ 000000000044f5c0 f i field.obj
 0001:0004e5d0       ?sort_charset@Field_enum@@UEBAPEAUcharset_info_st@@XZ 000000000044f5d0 f i field.obj
 0001:0004e5f0       ??_GField_enum@@UEAAPEAXI@Z 000000000044f5f0 f i field.obj
 0001:0004e5f0       ??_EField_enum@@UEAAPEAXI@Z 000000000044f5f0 f i field.obj
 0001:0004e660       ??1Field_enum@@UEAA@XZ     000000000044f660 f i field.obj
 0001:0004e6a0       ??0Field_set@@QEAA@PEADKPEAEEW4utype@Field@@PEBDPEAUst_table@@KPEAUst_typelib@@PEAUcharset_info_st@@@Z 000000000044f6a0 f i field.obj
 0001:0004e7c0       ?store@Field_set@@UEAAHN@Z 000000000044f7c0 f i field.obj
 0001:0004e820       ?zero_pack@Field_set@@UEBAHXZ 000000000044f820 f i field.obj
 0001:0004e830       ?real_type@Field_set@@UEBA?AW4enum_field_types@@XZ 000000000044f830 f i field.obj
 0001:0004e840       ?has_charset@Field_set@@UEBAHXZ 000000000044f840 f i field.obj
 0001:0004e850       ??_EField_set@@UEAAPEAXI@Z 000000000044f850 f i field.obj
 0001:0004e850       ??_GField_set@@UEAAPEAXI@Z 000000000044f850 f i field.obj
 0001:0004e8c0       ??1Field_set@@UEAA@XZ      000000000044f8c0 f i field.obj
 0001:0004e900       ??0Sql_alloc@@QEAA@XZ      000000000044f900 f i field.obj
 0001:0004e910       ??1Sql_alloc@@QEAA@XZ      000000000044f910 f i field.obj
 0001:0004e920       ?is_real_null@Field@@QEAAHI@Z 000000000044f920 f i field.obj
 0001:0004e9c0       ??1?$List@VString@@@@QEAA@XZ 000000000044f9c0 f i field.obj
 0001:0004ea00       ??1base_list@@QEAA@XZ      000000000044fa00 f i field.obj
 0001:0004ea40       ??2Item@@SAPEAX_K@Z        000000000044fa40 f i field.obj
 0001:0004ea80       ??3Item@@SAXPEAX_K@Z       000000000044fa80 f i field.obj
 0001:0004eae0       ??0Item_string@@QEAA@PEBDIPEAUcharset_info_st@@W4Derivation@@I@Z 000000000044fae0 f i field.obj
 0001:0004ec40       ?set@DTCollation@@QEAAXPEAUcharset_info_st@@W4Derivation@@I@Z 000000000044fc40 f i field.obj
 0001:0004ec90       ??1Item@@UEAA@XZ           000000000044fc90 f i field.obj
 0001:0004ecf0       ?save_org_in_field@Item@@UEAAXPEAVField@@@Z 000000000044fcf0 f i field.obj
 0001:0004ed50       ?save_safe_in_field@Item@@UEAAHPEAVField@@@Z 000000000044fd50 f i field.obj
 0001:0004edb0       ?result_type@Item@@UEBA?AW4Item_result@@XZ 000000000044fdb0 f i field.obj
 0001:0004edc0       ?cast_to_int_type@Item@@UEBA?AW4Item_result@@XZ 000000000044fdc0 f i field.obj
 0001:0004ee10       ?get_tmp_table_field@Item@@UEAAPEAVField@@XZ 000000000044fe10 f i field.obj
 0001:0004ee20       ?tmp_table_field@Item@@UEAAPEAVField@@PEAUst_table@@@Z 000000000044fe20 f i field.obj
 0001:0004ee40       ?full_name@Item@@UEBAPEBDXZ 000000000044fe40 f i field.obj
 0001:0004eeb0       ?val_result@Item@@UEAANXZ  000000000044feb0 f i field.obj
 0001:0004ef00       ?val_int_result@Item@@UEAA_JXZ 000000000044ff00 f i field.obj
 0001:0004ef50       ?str_result@Item@@UEAAPEAVString@@PEAV2@@Z 000000000044ff50 f i field.obj
 0001:0004efb0       ?val_decimal_result@Item@@UEAAPEAVmy_decimal@@PEAV2@@Z 000000000044ffb0 f i field.obj
 0001:0004f010       ?val_bool_result@Item@@UEAAHXZ 0000000000450010 f i field.obj
 0001:0004f060       ?used_tables@Item@@UEBA_KXZ 0000000000450060 f i field.obj
 0001:0004f070       ?not_null_tables@Item@@UEBA_KXZ 0000000000450070 f i field.obj
 0001:0004f0c0       ?basic_const_item@Item@@UEBAHXZ 00000000004500c0 f i field.obj
 0001:0004f0d0       ?clone_item@Item@@UEAAPEAV1@XZ 00000000004500d0 f i field.obj
 0001:0004f0e0       ?eq_cmp_result@Item@@UEBA?AW4cond_result@1@XZ 00000000004500e0 f i field.obj
 0001:0004f0f0       ?const_item@Item@@UEBAHXZ  00000000004500f0 f i field.obj
 0001:0004f160       ?const_during_execution@Item@@UEBAHXZ 0000000000450160 f i field.obj
 0001:0004f1e0       ?print@Item@@UEAAXPEAVString@@@Z 00000000004501e0 f i field.obj
 0001:0004f250       ?update_used_tables@Item@@UEAAXXZ 0000000000450250 f i field.obj
 0001:0004f260       ?split_sum_func@Item@@UEAAXPEAVTHD@@PEAPEAV1@AEAV?$List@VItem@@@@@Z 0000000000450260 f i field.obj
 0001:0004f280       ?get_date_result@Item@@UEAAHPEAUst_mysql_time@@I@Z 0000000000450280 f i field.obj
 0001:0004f2f0       ?is_null@Item@@UEAAHXZ     00000000004502f0 f i field.obj
 0001:0004f300       ?update_null_value@Item@@UEAAXXZ 0000000000450300 f i field.obj
 0001:0004f350       ?top_level_item@Item@@UEAAXXZ 0000000000450350 f i field.obj
 0001:0004f360       ?set_result_field@Item@@UEAAXPEAVField@@@Z 0000000000450360 f i field.obj
 0001:0004f370       ?is_result_field@Item@@UEAAHXZ 0000000000450370 f i field.obj
 0001:0004f380       ?is_bool_func@Item@@UEAAHXZ 0000000000450380 f i field.obj
 0001:0004f390       ?save_in_result_field@Item@@UEAAXH@Z 0000000000450390 f i field.obj
 0001:0004f3a0       ?no_rows_in_result@Item@@UEAAXXZ 00000000004503a0 f i field.obj
 0001:0004f3b0       ?copy_or_same@Item@@UEAAPEAV1@PEAVTHD@@@Z 00000000004503b0 f i field.obj
 0001:0004f3d0       ?copy_andor_structure@Item@@UEAAPEAV1@PEAVTHD@@@Z 00000000004503d0 f i field.obj
 0001:0004f3f0       ?real_item@Item@@UEAAPEAV1@XZ 00000000004503f0 f i field.obj
 0001:0004f400       ?get_tmp_table_item@Item@@UEAAPEAV1@PEAVTHD@@@Z 0000000000450400 f i field.obj
 0001:0004f460       ?compare_collation@Item@@UEAAPEAUcharset_info_st@@XZ 0000000000450460 f i field.obj
 0001:0004f470       ?walk@Item@@UEAAHP81@EAAHPEAE@Z0@Z 0000000000450470 f i field.obj
 0001:0004f4d0       ?compile@Item@@UEAAPEAV1@P81@EAAHPEAPEAE@Z0P81@EAAPEAV1@PEAE@Z2@Z 00000000004504d0 f i field.obj
 0001:0004f550       ?traverse_cond@Item@@UEAAXP6AXPEBV1@PEAX@Z1W4traverse_order@1@@Z 0000000000450550 f i field.obj
 0001:0004f5b0       ?remove_dependence_processor@Item@@UEAAHPEAE@Z 00000000004505b0 f i field.obj
 0001:0004f5d0       ?remove_fixed@Item@@UEAAHPEAE@Z 00000000004505d0 f i field.obj
 0001:0004f5f0       ?collect_item_field_processor@Item@@UEAAHPEAE@Z 00000000004505f0 f i field.obj
 0001:0004f610       ?find_item_in_field_list_processor@Item@@UEAAHPEAE@Z 0000000000450610 f i field.obj
 0001:0004f630       ?change_context_processor@Item@@UEAAHPEAE@Z 0000000000450630 f i field.obj
 0001:0004f650       ?reset_query_id_processor@Item@@UEAAHPEAE@Z 0000000000450650 f i field.obj
 0001:0004f670       ?is_expensive_processor@Item@@UEAAHPEAE@Z 0000000000450670 f i field.obj
 0001:0004f690       ?subst_argument_checker@Item@@UEAAHPEAPEAE@Z 0000000000450690 f i field.obj
 0001:0004f6d0       ?equal_fields_propagator@Item@@UEAAPEAV1@PEAE@Z 00000000004506d0 f i field.obj
 0001:0004f6f0       ?set_no_const_sub@Item@@UEAAHPEAE@Z 00000000004506f0 f i field.obj
 0001:0004f710       ?replace_equal_field@Item@@UEAAPEAV1@PEAE@Z 0000000000450710 f i field.obj
 0001:0004f730       ?this_item@Item@@UEAAPEAV1@XZ 0000000000450730 f i field.obj
 0001:0004f740       ?this_item@Item@@UEBAPEBV1@XZ 0000000000450740 f i field.obj
 0001:0004f750       ?this_item_addr@Item@@UEAAPEAPEAV1@PEAVTHD@@PEAPEAV1@@Z 0000000000450750 f i field.obj
 0001:0004f770       ?cols@Item@@UEAAIXZ        0000000000450770 f i field.obj
 0001:0004f780       ?element_index@Item@@UEAAPEAV1@I@Z 0000000000450780 f i field.obj
 0001:0004f7a0       ?addr@Item@@UEAAPEAPEAV1@I@Z 00000000004507a0 f i field.obj
 0001:0004f7c0       ?null_inside@Item@@UEAAHXZ 00000000004507c0 f i field.obj
 0001:0004f7d0       ?bring_value@Item@@UEAAXXZ 00000000004507d0 f i field.obj
 0001:0004f7e0       ?filed_for_view_update@Item@@UEAAPEAVItem_field@@XZ 00000000004507e0 f i field.obj
 0001:0004f7f0       ?neg_transformer@Item@@UEAAPEAV1@PEAVTHD@@@Z 00000000004507f0 f i field.obj
 0001:0004f810       ?update_value_transformer@Item@@UEAAPEAV1@PEAE@Z 0000000000450810 f i field.obj
 0001:0004f830       ?is_splocal@Item@@UEAAHXZ  0000000000450830 f i field.obj
 0001:0004f840       ?get_settable_routine_parameter@Item@@UEAAPEAVSettable_routine_parameter@@XZ 0000000000450840 f i field.obj
 0001:0004f850       ?result_as_longlong@Item@@UEAAHXZ 0000000000450850 f i field.obj
 0001:0004f860       ??_GItem@@UEAAPEAXI@Z      0000000000450860 f i field.obj
 0001:0004f860       ??_EItem@@UEAAPEAXI@Z      0000000000450860 f i field.obj
 0001:0004f8d0       ?type@Item_string@@UEBA?AW4Type@Item@@XZ 00000000004508d0 f i field.obj
 0001:0004f8e0       ?val_str@Item_string@@UEAAPEAVString@@PEAV2@@Z 00000000004508e0 f i field.obj
 0001:0004f960       ?result_type@Item_string@@UEBA?AW4Item_result@@XZ 0000000000450960 f i field.obj
 0001:0004f970       ?field_type@Item_string@@UEBA?AW4enum_field_types@@XZ 0000000000450970 f i field.obj
 0001:0004f980       ?basic_const_item@Item_string@@UEBAHXZ 0000000000450980 f i field.obj
 0001:0004f990       ?clone_item@Item_string@@UEAAPEAVItem@@XZ 0000000000450990 f i field.obj
 0001:0004fae0       ??0Item_string@@QEAA@PEBD0IPEAUcharset_info_st@@W4Derivation@@I@Z 0000000000450ae0 f i field.obj
 0001:0004fc40       ?cleanup@Item_string@@UEAAXXZ 0000000000450c40 f i field.obj
 0001:0004fc50       ??_GItem_string@@UEAAPEAXI@Z 0000000000450c50 f i field.obj
 0001:0004fc50       ??_EItem_string@@UEAAPEAXI@Z 0000000000450c50 f i field.obj
 0001:0004fcc0       ??1Item_string@@UEAA@XZ    0000000000450cc0 f i field.obj
 0001:0004fd00       ??0?$List@VString@@@@QEAA@XZ 0000000000450d00 f i field.obj
 0001:0004fd50       ??0base_list@@QEAA@XZ      0000000000450d50 f i field.obj
 0001:0004fde0       ?push_back@?$List@VString@@@@QEAAHPEAVString@@@Z 0000000000450de0 f i field.obj
 0001:0004fe30       ?push_back@base_list@@QEAAHPEAX@Z 0000000000450e30 f i field.obj
 0001:0004ff70       ??2Sql_alloc@@SAPEAX_K@Z   0000000000450f70 f i field.obj
 0001:0004ffb0       ??3Sql_alloc@@SAXPEAX_K@Z  0000000000450fb0 f i field.obj
 0001:00050010       ??0list_node@@QEAA@PEAXPEAU0@@Z 0000000000451010 f i field.obj
 0001:00050090       ??0?$List_iterator@VString@@@@QEAA@AEAV?$List@VString@@@@@Z 0000000000451090 f i field.obj
 0001:000500f0       ??0base_list_iterator@@QEAA@AEAVbase_list@@@Z 00000000004510f0 f i field.obj
 0001:00050150       ?init@base_list_iterator@@QEAAXAEAVbase_list@@@Z 0000000000451150 f i field.obj
 0001:000501b0       ??E?$List_iterator@VString@@@@QEAAPEAVString@@H@Z 00000000004511b0 f i field.obj
 0001:00050200       ?next@base_list_iterator@@QEAAPEAXXZ 0000000000451200 f i field.obj
 0001:00050270       ?set_field_to_null@@YAHPEAVField@@@Z 0000000000451270 f   field_conv.obj
 0001:00050340       ?set_field_to_null_with_conversions@@YAHPEAVField@@H@Z 0000000000451340 f   field_conv.obj
 0001:00050480       ?set@Copy_field@@QEAAXPEADPEAVField@@@Z 0000000000451480 f   field_conv.obj
 0001:00050780       ?set@Copy_field@@QEAAXPEAVField@@0H@Z 0000000000451780 f   field_conv.obj
 0001:00050fc0       ?get_copy_func@Copy_field@@AEAAP6AXPEAV1@@ZPEAVField@@1@Z 0000000000451fc0 f   field_conv.obj
 0001:00052b30       ?field_conv@@YAHPEAVField@@0@Z 0000000000453b30 f   field_conv.obj
 0001:00053fe0       ?real_maybe_null@Field@@QEAAHXZ 0000000000454fe0 f i field_conv.obj
 0001:00054040       ?set_quick@String@@QEAAXPEADKPEAUcharset_info_st@@@Z 0000000000455040 f i field_conv.obj
 0001:000540b0       ?is_alloced@String@@QEAAHXZ 00000000004550b0 f i field_conv.obj
 0001:000540d0       ?filesort@@YAKPEAVTHD@@PEAUst_table@@PEAUst_sort_field@@IPEAVSQL_SELECT@@KPEAK@Z 00000000004550d0 f   filesort.obj
 0001:00054bf0       ?filesort_free_buffers@@YAXPEAUst_table@@H@Z 0000000000455bf0 f   filesort.obj
 0001:00056d20       ?merge_many_buff@@YAHPEAUst_sort_param@@PEAEPEAUst_buffpek@@PEAIPEAUst_io_cache@@@Z 0000000000457d20 f   filesort.obj
 0001:000571d0       ?read_to_buffer@@YAIPEAUst_io_cache@@PEAUst_buffpek@@I@Z 00000000004581d0 f   filesort.obj
 0001:000572e0       ?reuse_freed_buff@@YAXPEAUst_queue@@PEAUst_buffpek@@I@Z 00000000004582e0 f   filesort.obj
 0001:00057420       ?merge_buffers@@YAHPEAUst_sort_param@@PEAUst_io_cache@@1PEAEPEAUst_buffpek@@33H@Z 0000000000458420 f   filesort.obj
 0001:00058ab0       ?change_double_for_sort@@YAXNPEAE@Z 0000000000459ab0 f   filesort.obj
 0001:00059f30       ?is_uncacheable@Item_subselect@@QEBAHXZ 000000000045af30 f i filesort.obj
 0001:00059f90       ?ha_rnd_init@handler@@QEAAHH@Z 000000000045af90 f i filesort.obj
 0001:0005a100       ?ha_rnd_end@handler@@QEAAHXZ 000000000045b100 f i filesort.obj
 0001:0005a250       ?skip_record@SQL_SELECT@@QEAAHXZ 000000000045b250 f i filesort.obj
 0001:0005a2f0       ?is_null@Field@@QEAAHI@Z   000000000045b2f0 f i filesort.obj
 0001:0005a3a0       ?get_next_toc_type@Gis_read_stream@@QEAA?AW4enum_tok_types@1@XZ 000000000045b3a0 f   gstream.obj
 0001:0005a4c0       ?get_next_word@Gis_read_stream@@QEAAHPEAUst_lex_string@@@Z 000000000045b4c0 f   gstream.obj
 0001:0005a5d0       ?get_next_number@Gis_read_stream@@QEAAHPEAN@Z 000000000045b5d0 f   gstream.obj
 0001:0005a750       ?check_next_symbol@Gis_read_stream@@QEAAHD@Z 000000000045b750 f   gstream.obj
 0001:0005a850       ?set_error_msg@Gis_read_stream@@QEAAXPEBD@Z 000000000045b850 f   gstream.obj
 0001:0005aa40       ?skip_space@Gis_read_stream@@QEAAXXZ 000000000045ba40 f i gstream.obj
 0001:0005aab0       ??0ha_blackhole@@QEAA@PEAUst_table@@@Z 000000000045bab0 f   ha_blackhole.obj
 0001:0005ab10       ?bas_ext@ha_blackhole@@UEBAPEAPEBDXZ 000000000045bb10 f   ha_blackhole.obj
 0001:0005ab30       ?open@ha_blackhole@@UEAAHPEBDHI@Z 000000000045bb30 f   ha_blackhole.obj
 0001:0005ac40       ?close@ha_blackhole@@UEAAHXZ 000000000045bc40 f   ha_blackhole.obj
 0001:0005ad10       ?create@ha_blackhole@@UEAAHPEBDPEAUst_table@@PEAUst_ha_create_information@@@Z 000000000045bd10 f   ha_blackhole.obj
 0001:0005ade0       ?index_type@ha_blackhole@@UEAAPEBDI@Z 000000000045bde0 f   ha_blackhole.obj
 0001:0005af80       ?write_row@ha_blackhole@@UEAAHPEAE@Z 000000000045bf80 f   ha_blackhole.obj
 0001:0005b040       ?rnd_init@ha_blackhole@@UEAAHH@Z 000000000045c040 f   ha_blackhole.obj
 0001:0005b100       ?rnd_next@ha_blackhole@@UEAAHPEAE@Z 000000000045c100 f   ha_blackhole.obj
 0001:0005b1c0       ?rnd_pos@ha_blackhole@@UEAAHPEAE0@Z 000000000045c1c0 f   ha_blackhole.obj
 0001:0005b2a0       ?position@ha_blackhole@@UEAAXPEBE@Z 000000000045c2a0 f   ha_blackhole.obj
 0001:0005b380       ?info@ha_blackhole@@UEAAHI@Z 000000000045c380 f   ha_blackhole.obj
 0001:0005b4e0       ?external_lock@ha_blackhole@@UEAAHPEAVTHD@@H@Z 000000000045c4e0 f   ha_blackhole.obj
 0001:0005b5a0       ?lock_count@ha_blackhole@@UEBAIXZ 000000000045c5a0 f   ha_blackhole.obj
 0001:0005b660       ?store_lock@ha_blackhole@@UEAAPEAPEAUst_thr_lock_data@@PEAVTHD@@PEAPEAU2@W4thr_lock_type@@@Z 000000000045c660 f   ha_blackhole.obj
 0001:0005b730       ?index_read@ha_blackhole@@UEAAHPEAEPEBEIW4ha_rkey_function@@@Z 000000000045c730 f   ha_blackhole.obj
 0001:0005b800       ?index_read_idx@ha_blackhole@@UEAAHPEAEIPEBEIW4ha_rkey_function@@@Z 000000000045c800 f   ha_blackhole.obj
 0001:0005b8d0       ?index_read_last@ha_blackhole@@UEAAHPEAEPEBEI@Z 000000000045c8d0 f   ha_blackhole.obj
 0001:0005b9a0       ?index_next@ha_blackhole@@UEAAHPEAE@Z 000000000045c9a0 f   ha_blackhole.obj
 0001:0005ba60       ?index_prev@ha_blackhole@@UEAAHPEAE@Z 000000000045ca60 f   ha_blackhole.obj
 0001:0005bb20       ?index_first@ha_blackhole@@UEAAHPEAE@Z 000000000045cb20 f   ha_blackhole.obj
 0001:0005bbe0       ?index_last@ha_blackhole@@UEAAHPEAE@Z 000000000045cbe0 f   ha_blackhole.obj
 0001:0005c110       ?index_init@handler@@MEAAHI@Z 000000000045d110 f i ha_blackhole.obj
 0001:0005c140       ?index_end@handler@@MEAAHXZ 000000000045d140 f i ha_blackhole.obj
 0001:0005c160       ?rnd_end@handler@@MEAAHXZ  000000000045d160 f i ha_blackhole.obj
 0001:0005c170       ??0handler@@QEAA@PEBUhandlerton@@PEAUst_table@@@Z 000000000045d170 f i ha_blackhole.obj
 0001:0005c380       ?external_lock@handler@@MEAAHPEAVTHD@@H@Z 000000000045d380 f i ha_blackhole.obj
 0001:0005c3a0       ?scan_time@handler@@UEAANXZ 000000000045d3a0 f i ha_blackhole.obj
 0001:0005c410       ?read_time@handler@@UEAANIIK@Z 000000000045d410 f i ha_blackhole.obj
 0001:0005c470       ?keys_to_use_for_scanning@handler@@UEAAPEBV?$Bitmap@$0EA@@@XZ 000000000045d470 f i ha_blackhole.obj
 0001:0005c490       ?has_transactions@handler@@UEAAHXZ 000000000045d490 f i ha_blackhole.obj
 0001:0005c4a0       ?extra_rec_buf_length@handler@@UEAAIXZ 000000000045d4a0 f i ha_blackhole.obj
 0001:0005c4b0       ?estimate_rows_upper_bound@handler@@UEAAKXZ 000000000045d4b0 f i ha_blackhole.obj
 0001:0005c4d0       ?get_row_type@handler@@UEBA?AW4row_type@@XZ 000000000045d4d0 f i ha_blackhole.obj
 0001:0005c4e0       ?index_type@handler@@UEAAPEBDI@Z 000000000045d4e0 f i ha_blackhole.obj
 0001:0005c550       ?write_row@handler@@UEAAHPEAE@Z 000000000045d550 f i ha_blackhole.obj
 0001:0005c570       ?update_row@handler@@UEAAHPEBEPEAE@Z 000000000045d570 f i ha_blackhole.obj
 0001:0005c590       ?delete_row@handler@@UEAAHPEBE@Z 000000000045d590 f i ha_blackhole.obj
 0001:0005c5b0       ?index_read@handler@@UEAAHPEAEPEBEIW4ha_rkey_function@@@Z 000000000045d5b0 f i ha_blackhole.obj
 0001:0005c5e0       ?index_next@handler@@UEAAHPEAE@Z 000000000045d5e0 f i ha_blackhole.obj
 0001:0005c600       ?index_prev@handler@@UEAAHPEAE@Z 000000000045d600 f i ha_blackhole.obj
 0001:0005c620       ?index_first@handler@@UEAAHPEAE@Z 000000000045d620 f i ha_blackhole.obj
 0001:0005c640       ?index_last@handler@@UEAAHPEAE@Z 000000000045d640 f i ha_blackhole.obj
 0001:0005c660       ?index_read_last@handler@@UEAAHPEAEPEBEI@Z 000000000045d660 f i ha_blackhole.obj
 0001:0005c6c0       ?ft_init@handler@@UEAAHXZ  000000000045d6c0 f i ha_blackhole.obj
 0001:0005c6d0       ?ft_init_ext@handler@@UEAAPEAUst_ft_info@@IIPEAVString@@@Z 000000000045d6d0 f i ha_blackhole.obj
 0001:0005c6f0       ?ft_read@handler@@UEAAHPEAE@Z 000000000045d6f0 f i ha_blackhole.obj
 0001:0005c710       ?restart_rnd_next@handler@@UEAAHPEAE0@Z 000000000045d710 f i ha_blackhole.obj
 0001:0005c730       ?rnd_same@handler@@UEAAHPEAEI@Z 000000000045d730 f i ha_blackhole.obj
 0001:0005c750       ?records_in_range@handler@@UEAAKIPEAUst_key_range@@0@Z 000000000045d750 f i ha_blackhole.obj
 0001:0005c780       ?extra@handler@@UEAAHW4ha_extra_function@@@Z 000000000045d780 f i ha_blackhole.obj
 0001:0005c7a0       ?extra_opt@handler@@UEAAHW4ha_extra_function@@K@Z 000000000045d7a0 f i ha_blackhole.obj
 0001:0005c800       ?reset@handler@@UEAAHXZ    000000000045d800 f i ha_blackhole.obj
 0001:0005c860       ?unlock_row@handler@@UEAAXXZ 000000000045d860 f i ha_blackhole.obj
 0001:0005c870       ?start_stmt@handler@@UEAAHPEAVTHD@@W4thr_lock_type@@@Z 000000000045d870 f i ha_blackhole.obj
 0001:0005c890       ?delete_all_rows@handler@@UEAAHXZ 000000000045d890 f i ha_blackhole.obj
 0001:0005c8e0       ?reset_auto_increment@handler@@UEAAH_K@Z 000000000045d8e0 f i ha_blackhole.obj
 0001:0005c900       ?update_create_info@handler@@UEAAXPEAUst_ha_create_information@@@Z 000000000045d900 f i ha_blackhole.obj
 0001:0005c910       ?check@handler@@MEAAHPEAVTHD@@PEAUst_ha_check_opt@@@Z 000000000045d910 f i ha_blackhole.obj
 0001:0005c930       ?check_for_upgrade@handler@@MEAAHPEAUst_ha_check_opt@@@Z 000000000045d930 f i ha_blackhole.obj
 0001:0005c950       ?backup@handler@@UEAAHPEAVTHD@@PEAUst_ha_check_opt@@@Z 000000000045d950 f i ha_blackhole.obj
 0001:0005c970       ?restore@handler@@UEAAHPEAVTHD@@PEAUst_ha_check_opt@@@Z 000000000045d970 f i ha_blackhole.obj
 0001:0005c990       ?repair@handler@@MEAAHPEAVTHD@@PEAUst_ha_check_opt@@@Z 000000000045d990 f i ha_blackhole.obj
 0001:0005c9b0       ?optimize@handler@@UEAAHPEAVTHD@@PEAUst_ha_check_opt@@@Z 000000000045d9b0 f i ha_blackhole.obj
 0001:0005c9d0       ?analyze@handler@@UEAAHPEAVTHD@@PEAUst_ha_check_opt@@@Z 000000000045d9d0 f i ha_blackhole.obj
 0001:0005c9f0       ?assign_to_keycache@handler@@UEAAHPEAVTHD@@PEAUst_ha_check_opt@@@Z 000000000045d9f0 f i ha_blackhole.obj
 0001:0005ca10       ?preload_keys@handler@@UEAAHPEAVTHD@@PEAUst_ha_check_opt@@@Z 000000000045da10 f i ha_blackhole.obj
 0001:0005ca30       ?check_and_repair@handler@@UEAAHPEAVTHD@@@Z 000000000045da30 f i ha_blackhole.obj
 0001:0005ca50       ?dump@handler@@UEAAHPEAVTHD@@H@Z 000000000045da50 f i ha_blackhole.obj
 0001:0005ca70       ?disable_indexes@handler@@UEAAHI@Z 000000000045da70 f i ha_blackhole.obj
 0001:0005ca90       ?enable_indexes@handler@@UEAAHI@Z 000000000045da90 f i ha_blackhole.obj
 0001:0005cab0       ?indexes_are_disabled@handler@@UEAAHXZ 000000000045dab0 f i ha_blackhole.obj
 0001:0005cac0       ?start_bulk_insert@handler@@UEAAXK@Z 000000000045dac0 f i ha_blackhole.obj
 0001:0005cad0       ?end_bulk_insert@handler@@UEAAHXZ 000000000045dad0 f i ha_blackhole.obj
 0001:0005cae0       ?discard_or_import_tablespace@handler@@UEAAHD@Z 000000000045dae0 f i ha_blackhole.obj
 0001:0005cb00       ?net_read_dump@handler@@UEAAHPEAUst_net@@@Z 000000000045db00 f i ha_blackhole.obj
 0001:0005cb20       ?update_table_comment@handler@@UEAAPEADPEBD@Z 000000000045db20 f i ha_blackhole.obj
 0001:0005cb40       ?append_create_info@handler@@UEAAXPEAVString@@@Z 000000000045db40 f i ha_blackhole.obj
 0001:0005cb50       ?get_foreign_key_create_info@handler@@UEAAPEADXZ 000000000045db50 f i ha_blackhole.obj
 0001:0005cb60       ?can_switch_engines@handler@@UEAAHXZ 000000000045db60 f i ha_blackhole.obj
 0001:0005cb70       ?get_foreign_key_list@handler@@UEAAHPEAVTHD@@PEAV?$List@Ust_foreign_key_info@@@@@Z 000000000045db70 f i ha_blackhole.obj
 0001:0005cb90       ?referenced_by_foreign_key@handler@@UEAAIXZ 000000000045db90 f i ha_blackhole.obj
 0001:0005cba0       ?init_table_handle_for_HANDLER@handler@@UEAAXXZ 000000000045dba0 f i ha_blackhole.obj
 0001:0005cbb0       ?free_foreign_key_create_info@handler@@UEAAXPEAD@Z 000000000045dbb0 f i ha_blackhole.obj
 0001:0005cbc0       ?index_ddl_flags@handler@@UEBAKPEAUst_key@@@Z 000000000045dbc0 f i ha_blackhole.obj
 0001:0005cbe0       ?add_index@handler@@UEAAHPEAUst_table@@PEAUst_key@@I@Z 000000000045dbe0 f i ha_blackhole.obj
 0001:0005cc10       ?drop_index@handler@@UEAAHPEAUst_table@@PEAII@Z 000000000045dc10 f i ha_blackhole.obj
 0001:0005cc40       ?max_supported_record_length@handler@@UEBAIXZ 000000000045dc40 f i ha_blackhole.obj
 0001:0005cc50       ?max_supported_keys@handler@@UEBAIXZ 000000000045dc50 f i ha_blackhole.obj
 0001:0005cc60       ?max_supported_key_parts@handler@@UEBAIXZ 000000000045dc60 f i ha_blackhole.obj
 0001:0005cc70       ?max_supported_key_length@handler@@UEBAIXZ 000000000045dc70 f i ha_blackhole.obj
 0001:0005cc80       ?max_supported_key_part_length@handler@@UEBAIXZ 000000000045dc80 f i ha_blackhole.obj
 0001:0005cc90       ?min_record_length@handler@@UEBAII@Z 000000000045dc90 f i ha_blackhole.obj
 0001:0005ccb0       ?low_byte_first@handler@@UEBAHXZ 000000000045dcb0 f i ha_blackhole.obj
 0001:0005ccc0       ?checksum@handler@@UEBAIXZ 000000000045dcc0 f i ha_blackhole.obj
 0001:0005ccd0       ?is_crashed@handler@@UEBAHXZ 000000000045dcd0 f i ha_blackhole.obj
 0001:0005cce0       ?auto_repair@handler@@UEBAHXZ 000000000045dce0 f i ha_blackhole.obj
 0001:0005ccf0       ?lock_count@handler@@UEBAIXZ 000000000045dcf0 f i ha_blackhole.obj
 0001:0005cd00       ?table_cache_type@handler@@UEAAEXZ 000000000045dd00 f i ha_blackhole.obj
 0001:0005cd10       ?register_query_cache_table@handler@@UEAADPEAVTHD@@PEADIPEAP6AD01IPEA_K@Z2@Z 000000000045dd10 f i ha_blackhole.obj
 0001:0005cd40       ?primary_key_is_clustered@handler@@UEAAHXZ 000000000045dd40 f i ha_blackhole.obj
 0001:0005cd50       ?cmp_ref@handler@@UEAAHPEBE0@Z 000000000045dd50 f i ha_blackhole.obj
 0001:0005cdc0       ?cond_push@handler@@UEAAPEBVItem@@PEBV2@@Z 000000000045ddc0 f i ha_blackhole.obj
 0001:0005cde0       ?cond_pop@handler@@UEAAXXZ 000000000045dde0 f i ha_blackhole.obj
 0001:0005cdf0       ??_Ehandler@@UEAAPEAXI@Z   000000000045ddf0 f i ha_blackhole.obj
 0001:0005cdf0       ??_Ghandler@@UEAAPEAXI@Z   000000000045ddf0 f i ha_blackhole.obj
 0001:0005ce60       ??1handler@@UEAA@XZ        000000000045de60 f i ha_blackhole.obj
 0001:0005cf10       ?table_type@ha_blackhole@@UEBAPEBDXZ 000000000045df10 f i ha_blackhole.obj
 0001:0005cf30       ?table_flags@ha_blackhole@@UEBAKXZ 000000000045df30 f i ha_blackhole.obj
 0001:0005cf40       ?index_flags@ha_blackhole@@UEBAKIIH@Z 000000000045df40 f i ha_blackhole.obj
 0001:0005cfc0       ?max_supported_keys@ha_blackhole@@UEBAIXZ 000000000045dfc0 f i ha_blackhole.obj
 0001:0005cfd0       ?max_supported_key_length@ha_blackhole@@UEBAIXZ 000000000045dfd0 f i ha_blackhole.obj
 0001:0005cfe0       ?max_supported_key_part_length@ha_blackhole@@UEBAIXZ 000000000045dfe0 f i ha_blackhole.obj
 0001:0005cff0       ??_Eha_blackhole@@UEAAPEAXI@Z 000000000045dff0 f i ha_blackhole.obj
 0001:0005cff0       ??_Gha_blackhole@@UEAAPEAXI@Z 000000000045dff0 f i ha_blackhole.obj
 0001:0005d060       ??1ha_blackhole@@UEAA@XZ   000000000045e060 f i ha_blackhole.obj
 0001:0005d0c0       ?archive_db_init@@YAHXZ    000000000045e0c0 f   ha_archive.obj
 0001:0005d2e0       ?archive_db_end@@YAHXZ     000000000045e2e0 f   ha_archive.obj
 0001:0005d340       ??0ha_archive@@QEAA@PEAUst_table@@@Z 000000000045e340 f   ha_archive.obj
 0001:0005d4a0       ?read_data_header@ha_archive@@QEAAHPEAX@Z 000000000045e4a0 f   ha_archive.obj
 0001:0005d6c0       ?write_data_header@ha_archive@@QEAAHPEAX@Z 000000000045e6c0 f   ha_archive.obj
 0001:0005d850       ?read_meta_file@ha_archive@@QEAAHHPEAK@Z 000000000045e850 f   ha_archive.obj
 0001:0005dba0       ?write_meta_file@ha_archive@@QEAAHHKH@Z 000000000045eba0 f   ha_archive.obj
 0001:0005df60       ?get_share@ha_archive@@QEAAPEAUst_archive_share@@PEBDPEAH@Z 000000000045ef60 f   ha_archive.obj
 0001:0005e420       ?free_share@ha_archive@@QEAAHXZ 000000000045f420 f   ha_archive.obj
 0001:0005e720       ?init_archive_writer@ha_archive@@QEAAHXZ 000000000045f720 f   ha_archive.obj
 0001:0005e900       ?bas_ext@ha_archive@@UEBAPEAPEBDXZ 000000000045f900 f   ha_archive.obj
 0001:0005e920       ?open@ha_archive@@UEAAHPEBDHI@Z 000000000045f920 f   ha_archive.obj
 0001:0005ecc0       ?close@ha_archive@@UEAAHXZ 000000000045fcc0 f   ha_archive.obj
 0001:0005edc0       ?create@ha_archive@@UEAAHPEBDPEAUst_table@@PEAUst_ha_create_information@@@Z 000000000045fdc0 f   ha_archive.obj
 0001:0005f0f0       ?real_write_row@ha_archive@@QEAAHPEAEPEAX@Z 00000000004600f0 f   ha_archive.obj
 0001:0005f5c0       ?write_row@ha_archive@@UEAAHPEAE@Z 00000000004605c0 f   ha_archive.obj
 0001:0005fa40       ?rnd_init@ha_archive@@UEAAHH@Z 0000000000460a40 f   ha_archive.obj
 0001:0005fce0       ?get_row@ha_archive@@QEAAHPEAXPEAE@Z 0000000000460ce0 f   ha_archive.obj
 0001:000600e0       ?rnd_next@ha_archive@@UEAAHPEAE@Z 00000000004610e0 f   ha_archive.obj
 0001:000602d0       ?position@ha_archive@@UEAAXPEBE@Z 00000000004612d0 f   ha_archive.obj
 0001:000603c0       ?rnd_pos@ha_archive@@UEAAHPEAE0@Z 00000000004613c0 f   ha_archive.obj
 0001:00060510       ?repair@ha_archive@@UEAAHPEAVTHD@@PEAUst_ha_check_opt@@@Z 0000000000461510 f   ha_archive.obj
 0001:00060660       ?optimize@ha_archive@@UEAAHPEAVTHD@@PEAUst_ha_check_opt@@@Z 0000000000461660 f   ha_archive.obj
 0001:00060ba0       ?store_lock@ha_archive@@UEAAPEAPEAUst_thr_lock_data@@PEAVTHD@@PEAPEAU2@W4thr_lock_type@@@Z 0000000000461ba0 f   ha_archive.obj
 0001:00060c80       ?info@ha_archive@@UEAAHI@Z 0000000000461c80 f   ha_archive.obj
 0001:00060e80       ?start_bulk_insert@ha_archive@@UEAAXK@Z 0000000000461e80 f   ha_archive.obj
 0001:00060f60       ?end_bulk_insert@ha_archive@@UEAAHXZ 0000000000461f60 f   ha_archive.obj
 0001:00061040       ?delete_all_rows@ha_archive@@UEAAHXZ 0000000000462040 f   ha_archive.obj
 0001:00061100       ?is_crashed@ha_archive@@UEBAHXZ 0000000000462100 f   ha_archive.obj
 0001:000611d0       ?check@ha_archive@@UEAAHPEAVTHD@@PEAUst_ha_check_opt@@@Z 00000000004621d0 f   ha_archive.obj
 0001:00061490       ?check_and_repair@ha_archive@@UEAAHPEAVTHD@@@Z 0000000000462490 f   ha_archive.obj
 0001:000626c0       ?set@String@@QEAAXPEADKPEAUcharset_info_st@@@Z 00000000004636c0 f i ha_archive.obj
 0001:00062770       ?table_type@ha_archive@@UEBAPEBDXZ 0000000000463770 f i ha_archive.obj
 0001:00062790       ?index_type@ha_archive@@UEAAPEBDI@Z 0000000000463790 f i ha_archive.obj
 0001:000627b0       ?table_flags@ha_archive@@UEBAKXZ 00000000004637b0 f i ha_archive.obj
 0001:000627c0       ?index_flags@ha_archive@@UEBAKIIH@Z 00000000004637c0 f i ha_archive.obj
 0001:000627e0       ?auto_repair@ha_archive@@UEBAHXZ 00000000004637e0 f i ha_archive.obj
 0001:000627f0       ?get_row_type@ha_archive@@UEBA?AW4row_type@@XZ 00000000004637f0 f i ha_archive.obj
 0001:00062800       ??_Gha_archive@@UEAAPEAXI@Z 0000000000463800 f i ha_archive.obj
 0001:00062800       ??_Eha_archive@@UEAAPEAXI@Z 0000000000463800 f i ha_archive.obj
 0001:00062870       ??1ha_archive@@UEAA@XZ     0000000000463870 f i ha_archive.obj
 0001:00062920       ?set_ptr@Field_blob@@QEAAXKPEAD@Z 0000000000463920 f i ha_archive.obj
 0001:000629a0       ??0st_ha_check_opt@@QEAA@XZ 00000000004639a0 f i ha_archive.obj
 0001:000629b0       ??0ha_heap@@QEAA@PEAUst_table@@@Z 00000000004639b0 f   ha_heap.obj
 0001:00062a90       ?bas_ext@ha_heap@@UEBAPEAPEBDXZ 0000000000463a90 f   ha_heap.obj
 0001:00062ab0       ?open@ha_heap@@UEAAHPEBDHI@Z 0000000000463ab0 f   ha_heap.obj
 0001:00062c70       ?close@ha_heap@@UEAAHXZ    0000000000463c70 f   ha_heap.obj
 0001:00062cb0       ?clone@ha_heap@@UEAAPEAVhandler@@PEAUst_mem_root@@@Z 0000000000463cb0 f   ha_heap.obj
 0001:00062d60       ?set_keys_for_scanning@ha_heap@@QEAAXXZ 0000000000463d60 f   ha_heap.obj
 0001:00062e10       ?update_key_stats@ha_heap@@AEAAXXZ 0000000000463e10 f   ha_heap.obj
 0001:00062fa0       ?write_row@ha_heap@@UEAAHPEAE@Z 0000000000463fa0 f   ha_heap.obj
 0001:000630f0       ?update_row@ha_heap@@UEAAHPEBEPEAE@Z 00000000004640f0 f   ha_heap.obj
 0001:00063200       ?delete_row@ha_heap@@UEAAHPEBE@Z 0000000000464200 f   ha_heap.obj
 0001:00063300       ?index_read@ha_heap@@UEAAHPEAEPEBEIW4ha_rkey_function@@@Z 0000000000464300 f   ha_heap.obj
 0001:000633f0       ?index_read_last@ha_heap@@UEAAHPEAEPEBEI@Z 00000000004643f0 f   ha_heap.obj
 0001:000634e0       ?index_read_idx@ha_heap@@UEAAHPEAEIPEBEIW4ha_rkey_function@@@Z 00000000004644e0 f   ha_heap.obj
 0001:000635a0       ?index_next@ha_heap@@UEAAHPEAE@Z 00000000004645a0 f   ha_heap.obj
 0001:00063660       ?index_prev@ha_heap@@UEAAHPEAE@Z 0000000000464660 f   ha_heap.obj
 0001:00063720       ?index_first@ha_heap@@UEAAHPEAE@Z 0000000000464720 f   ha_heap.obj
 0001:000637f0       ?index_last@ha_heap@@UEAAHPEAE@Z 00000000004647f0 f   ha_heap.obj
 0001:000638c0       ?rnd_init@ha_heap@@UEAAHH@Z 00000000004648c0 f   ha_heap.obj
 0001:00063920       ?rnd_next@ha_heap@@UEAAHPEAE@Z 0000000000464920 f   ha_heap.obj
 0001:000639c0       ?rnd_pos@ha_heap@@UEAAHPEAE0@Z 00000000004649c0 f   ha_heap.obj
 0001:00063a90       ?position@ha_heap@@UEAAXPEBE@Z 0000000000464a90 f   ha_heap.obj
 0001:00063af0       ?info@ha_heap@@UEAAHI@Z    0000000000464af0 f   ha_heap.obj
 0001:00063c50       ?extra@ha_heap@@UEAAHW4ha_extra_function@@@Z 0000000000464c50 f   ha_heap.obj
 0001:00063ca0       ?delete_all_rows@ha_heap@@UEAAHXZ 0000000000464ca0 f   ha_heap.obj
 0001:00063d30       ?external_lock@ha_heap@@UEAAHPEAVTHD@@H@Z 0000000000464d30 f   ha_heap.obj
 0001:00063d50       ?disable_indexes@ha_heap@@UEAAHI@Z 0000000000464d50 f   ha_heap.obj
 0001:00063dc0       ?enable_indexes@ha_heap@@UEAAHI@Z 0000000000464dc0 f   ha_heap.obj
 0001:00063e30       ?indexes_are_disabled@ha_heap@@UEAAHXZ 0000000000464e30 f   ha_heap.obj
 0001:00063e70       ?store_lock@ha_heap@@UEAAPEAPEAUst_thr_lock_data@@PEAVTHD@@PEAPEAU2@W4thr_lock_type@@@Z 0000000000464e70 f   ha_heap.obj
 0001:00063ef0       ?delete_table@ha_heap@@UEAAHPEBD@Z 0000000000464ef0 f   ha_heap.obj
 0001:00063fd0       ?rename_table@ha_heap@@UEAAHPEBD0@Z 0000000000464fd0 f   ha_heap.obj
 0001:00064020       ?records_in_range@ha_heap@@UEAAKIPEAUst_key_range@@0@Z 0000000000465020 f   ha_heap.obj
 0001:00064170       ?create@ha_heap@@UEAAHPEBDPEAUst_table@@PEAUst_ha_create_information@@@Z 0000000000465170 f   ha_heap.obj
 0001:00064930       ?update_create_info@ha_heap@@UEAAXPEAUst_ha_create_information@@@Z 0000000000465930 f   ha_heap.obj
 0001:000649b0       ?get_auto_increment@ha_heap@@UEAA_KXZ 00000000004659b0 f   ha_heap.obj
 0001:00065210       ??0?$Bitmap@$0EA@@@QEAA@XZ 0000000000466210 f i ha_heap.obj
 0001:00065220       ?table_type@ha_heap@@UEBAPEBDXZ 0000000000466220 f i ha_heap.obj
 0001:000652a0       ?index_type@ha_heap@@UEAAPEBDI@Z 00000000004662a0 f i ha_heap.obj
 0001:00065320       ?get_row_type@ha_heap@@UEBA?AW4row_type@@XZ 0000000000466320 f i ha_heap.obj
 0001:00065330       ?table_flags@ha_heap@@UEBAKXZ 0000000000466330 f i ha_heap.obj
 0001:00065340       ?index_flags@ha_heap@@UEBAKIIH@Z 0000000000466340 f i ha_heap.obj
 0001:000653c0       ?keys_to_use_for_scanning@ha_heap@@UEAAPEBV?$Bitmap@$0EA@@@XZ 00000000004663c0 f i ha_heap.obj
 0001:000653e0       ?max_supported_keys@ha_heap@@UEBAIXZ 00000000004663e0 f i ha_heap.obj
 0001:000653f0       ?max_supported_key_part_length@ha_heap@@UEBAIXZ 00000000004663f0 f i ha_heap.obj
 0001:00065400       ?scan_time@ha_heap@@UEAANXZ 0000000000466400 f i ha_heap.obj
 0001:00065470       ?read_time@ha_heap@@UEAANIIK@Z 0000000000466470 f i ha_heap.obj
 0001:000654e0       ?cmp_ref@ha_heap@@UEAAHPEBE0@Z 00000000004664e0 f i ha_heap.obj
 0001:00065540       ??_Eha_heap@@UEAAPEAXI@Z   0000000000466540 f i ha_heap.obj
 0001:00065540       ??_Gha_heap@@UEAAPEAXI@Z   0000000000466540 f i ha_heap.obj
 0001:000655b0       ??1ha_heap@@UEAA@XZ        00000000004665b0 f i ha_heap.obj
 0001:00065610       ??0st_ha_create_information@@QEAA@XZ 0000000000466610 f i ha_heap.obj
 0001:00065660       ??0st_sql_list@@QEAA@XZ    0000000000466660 f i ha_heap.obj
 0001:00065670       ?set_bit@?$Bitmap@$0EA@@@QEAAXI@Z 0000000000466670 f i ha_heap.obj
 0001:000656e0       ?clear_all@?$Bitmap@$0EA@@@QEAAXXZ 00000000004666e0 f i ha_heap.obj
 0001:00065700       ?table2myisam@@YAHPEAUst_table@@PEAPEAUst_mi_keydef@@PEAPEAUst_columndef@@PEAI@Z 0000000000466700 f   ha_myisam.obj
 0001:00066460       ?check_definition@@YAHPEAUst_mi_keydef@@PEAUst_columndef@@II01IIH@Z 0000000000467460 f   ha_myisam.obj
 0001:00067020       killed_ptr                 0000000000468020 f   ha_myisam.obj
 0001:00067040       mi_check_print_error       0000000000468040 f   ha_myisam.obj
 0001:00067340       mi_check_print_info        0000000000468340 f   ha_myisam.obj
 0001:000673c0       mi_check_print_warning     00000000004683c0 f   ha_myisam.obj
 0001:00067460       ??0ha_myisam@@QEAA@PEAUst_table@@@Z 0000000000468460 f   ha_myisam.obj
 0001:000674f0       ?clone@ha_myisam@@UEAAPEAVhandler@@PEAUst_mem_root@@@Z 00000000004684f0 f   ha_myisam.obj
 0001:00067570       ?bas_ext@ha_myisam@@UEBAPEAPEBDXZ 0000000000468570 f   ha_myisam.obj
 0001:00067590       ?index_type@ha_myisam@@UEAAPEBDI@Z 0000000000468590 f   ha_myisam.obj
 0001:00067670       ?net_read_dump@ha_myisam@@UEAAHPEAUst_net@@@Z 0000000000468670 f   ha_myisam.obj
 0001:00067750       ?dump@ha_myisam@@UEAAHPEAVTHD@@H@Z 0000000000468750 f   ha_myisam.obj
 0001:000679b0       ?open@ha_myisam@@UEAAHPEBDHI@Z 00000000004689b0 f   ha_myisam.obj
 0001:00067b10       ?close@ha_myisam@@UEAAHXZ  0000000000468b10 f   ha_myisam.obj
 0001:00067b70       ?write_row@ha_myisam@@UEAAHPEAE@Z 0000000000468b70 f   ha_myisam.obj
 0001:00067c40       ?check@ha_myisam@@UEAAHPEAVTHD@@PEAUst_ha_check_opt@@@Z 0000000000468c40 f   ha_myisam.obj
 0001:00068350       ?analyze@ha_myisam@@UEAAHPEAVTHD@@PEAUst_ha_check_opt@@@Z 0000000000469350 f   ha_myisam.obj
 0001:000685e0       ?restore@ha_myisam@@UEAAHPEAVTHD@@PEAUst_ha_check_opt@@@Z 00000000004695e0 f   ha_myisam.obj
 0001:000688e0       ?backup@ha_myisam@@UEAAHPEAVTHD@@PEAUst_ha_check_opt@@@Z 00000000004698e0 f   ha_myisam.obj
 0001:00068c50       ?repair@ha_myisam@@UEAAHPEAVTHD@@PEAUst_ha_check_opt@@@Z 0000000000469c50 f   ha_myisam.obj
 0001:00068f60       ?optimize@ha_myisam@@UEAAHPEAVTHD@@PEAUst_ha_check_opt@@@Z 0000000000469f60 f   ha_myisam.obj
 0001:00069100       ?repair@ha_myisam@@AEAAHPEAVTHD@@AEAUst_mi_check_param@@H@Z 000000000046a100 f   ha_myisam.obj
 0001:00069f70       ?assign_to_keycache@ha_myisam@@UEAAHPEAVTHD@@PEAUst_ha_check_opt@@@Z 000000000046af70 f   ha_myisam.obj
 0001:0006a220       ?preload_keys@ha_myisam@@UEAAHPEAVTHD@@PEAUst_ha_check_opt@@@Z 000000000046b220 f   ha_myisam.obj
 0001:0006a570       ?disable_indexes@ha_myisam@@UEAAHI@Z 000000000046b570 f   ha_myisam.obj
 0001:0006a610       ?enable_indexes@ha_myisam@@UEAAHI@Z 000000000046b610 f   ha_myisam.obj
 0001:0006a9c0       ?indexes_are_disabled@ha_myisam@@UEAAHXZ 000000000046b9c0 f   ha_myisam.obj
 0001:0006aa00       ?start_bulk_insert@ha_myisam@@UEAAXK@Z 000000000046ba00 f   ha_myisam.obj
 0001:0006ad20       ?end_bulk_insert@ha_myisam@@UEAAHXZ 000000000046bd20 f   ha_myisam.obj
 0001:0006add0       ?check_and_repair@ha_myisam@@UEAAHPEAVTHD@@@Z 000000000046bdd0 f   ha_myisam.obj
 0001:0006b100       ?is_crashed@ha_myisam@@UEBAHXZ 000000000046c100 f   ha_myisam.obj
 0001:0006b190       ?update_row@ha_myisam@@UEAAHPEBEPEAE@Z 000000000046c190 f   ha_myisam.obj
 0001:0006b230       ?delete_row@ha_myisam@@UEAAHPEBE@Z 000000000046c230 f   ha_myisam.obj
 0001:0006b2a0       ?index_read@ha_myisam@@UEAAHPEAEPEBEIW4ha_rkey_function@@@Z 000000000046c2a0 f   ha_myisam.obj
 0001:0006b390       ?index_read_idx@ha_myisam@@UEAAHPEAEIPEBEIW4ha_rkey_function@@@Z 000000000046c390 f   ha_myisam.obj
 0001:0006b450       ?index_read_last@ha_myisam@@UEAAHPEAEPEBEI@Z 000000000046c450 f   ha_myisam.obj
 0001:0006b540       ?index_next@ha_myisam@@UEAAHPEAE@Z 000000000046c540 f   ha_myisam.obj
 0001:0006b610       ?index_prev@ha_myisam@@UEAAHPEAE@Z 000000000046c610 f   ha_myisam.obj
 0001:0006b6e0       ?index_first@ha_myisam@@UEAAHPEAE@Z 000000000046c6e0 f   ha_myisam.obj
 0001:0006b7b0       ?index_last@ha_myisam@@UEAAHPEAE@Z 000000000046c7b0 f   ha_myisam.obj
 0001:0006b880       ?index_next_same@ha_myisam@@UEAAHPEAEPEBEI@Z 000000000046c880 f   ha_myisam.obj
 0001:0006b950       ?rnd_init@ha_myisam@@UEAAHH@Z 000000000046c950 f   ha_myisam.obj
 0001:0006b9c0       ?rnd_next@ha_myisam@@UEAAHPEAE@Z 000000000046c9c0 f   ha_myisam.obj
 0001:0006ba60       ?restart_rnd_next@ha_myisam@@UEAAHPEAE0@Z 000000000046ca60 f   ha_myisam.obj
 0001:0006bac0       ?rnd_pos@ha_myisam@@UEAAHPEAE0@Z 000000000046cac0 f   ha_myisam.obj
 0001:0006bb80       ?position@ha_myisam@@UEAAXPEBE@Z 000000000046cb80 f   ha_myisam.obj
 0001:0006bbf0       ?info@ha_myisam@@UEAAHI@Z  000000000046cbf0 f   ha_myisam.obj
 0001:0006c030       ?extra@ha_myisam@@UEAAHW4ha_extra_function@@@Z 000000000046d030 f   ha_myisam.obj
 0001:0006c0a0       ?extra_opt@ha_myisam@@UEAAHW4ha_extra_function@@K@Z 000000000046d0a0 f   ha_myisam.obj
 0001:0006c110       ?delete_all_rows@ha_myisam@@UEAAHXZ 000000000046d110 f   ha_myisam.obj
 0001:0006c150       ?delete_table@ha_myisam@@UEAAHPEBD@Z 000000000046d150 f   ha_myisam.obj
 0001:0006c190       ?external_lock@ha_myisam@@UEAAHPEAVTHD@@H@Z 000000000046d190 f   ha_myisam.obj
 0001:0006c220       ?store_lock@ha_myisam@@UEAAPEAPEAUst_thr_lock_data@@PEAVTHD@@PEAPEAU2@W4thr_lock_type@@@Z 000000000046d220 f   ha_myisam.obj
 0001:0006c2a0       ?update_create_info@ha_myisam@@UEAAXPEAUst_ha_create_information@@@Z 000000000046d2a0 f   ha_myisam.obj
 0001:0006c380       ?create@ha_myisam@@UEAAHPEBDPEAUst_table@@PEAUst_ha_create_information@@@Z 000000000046d380 f   ha_myisam.obj
 0001:0006c7d0       ?rename_table@ha_myisam@@UEAAHPEBD0@Z 000000000046d7d0 f   ha_myisam.obj
 0001:0006c820       ?get_auto_increment@ha_myisam@@UEAA_KXZ 000000000046d820 f   ha_myisam.obj
 0001:0006ca40       ?records_in_range@ha_myisam@@UEAAKIPEAUst_key_range@@0@Z 000000000046da40 f   ha_myisam.obj
 0001:0006caa0       ?ft_read@ha_myisam@@UEAAHPEAE@Z 000000000046daa0 f   ha_myisam.obj
 0001:0006cb60       ?checksum@ha_myisam@@UEBAIXZ 000000000046db60 f   ha_myisam.obj
 0001:0006cb90       ?register_query_cache_table@ha_myisam@@UEAADPEAVTHD@@PEADIPEAP6AD01IPEA_K@Z2@Z 000000000046db90 f   ha_myisam.obj
 0001:0006e970       ?vio_ok@THD@@QEBAHXZ       000000000046f970 f i ha_myisam.obj
 0001:0006e9d0       ?table_type@ha_myisam@@UEBAPEBDXZ 000000000046f9d0 f i ha_myisam.obj
 0001:0006e9f0       ?table_flags@ha_myisam@@UEBAKXZ 000000000046f9f0 f i ha_myisam.obj
 0001:0006ea10       ?index_flags@ha_myisam@@UEBAKIIH@Z 000000000046fa10 f i ha_myisam.obj
 0001:0006ea90       ?max_supported_keys@ha_myisam@@UEBAIXZ 000000000046fa90 f i ha_myisam.obj
 0001:0006eaa0       ?max_supported_key_length@ha_myisam@@UEBAIXZ 000000000046faa0 f i ha_myisam.obj
 0001:0006eab0       ?max_supported_key_part_length@ha_myisam@@UEBAIXZ 000000000046fab0 f i ha_myisam.obj
 0001:0006eac0       ?ft_init@ha_myisam@@UEAAHXZ 000000000046fac0 f i ha_myisam.obj
 0001:0006eb40       ?ft_init_ext@ha_myisam@@UEAAPEAUst_ft_info@@IIPEAVString@@@Z 000000000046fb40 f i ha_myisam.obj
 0001:0006ec30       ?auto_repair@ha_myisam@@UEBAHXZ 000000000046fc30 f i ha_myisam.obj
 0001:0006ec90       ??_Eha_myisam@@UEAAPEAXI@Z 000000000046fc90 f i ha_myisam.obj
 0001:0006ec90       ??_Gha_myisam@@UEAAPEAXI@Z 000000000046fc90 f i ha_myisam.obj
 0001:0006ed00       ??1ha_myisam@@UEAA@XZ      000000000046fd00 f i ha_myisam.obj
 0001:0006ed60       ?to_ulonglong@?$Bitmap@$0EA@@@QEBA_KXZ 000000000046fd60 f i ha_myisam.obj
 0001:0006ed80       ?is_clear_all@?$Bitmap@$0EA@@@QEBADXZ 000000000046fd80 f i ha_myisam.obj
 0001:0006ede0       ?is_set_all@?$Bitmap@$0EA@@@QEBADXZ 000000000046fde0 f i ha_myisam.obj
 0001:0006ee40       ?clear_error@THD@@QEAAXXZ  000000000046fe40 f i ha_myisam.obj
 0001:0006ee90       ?intersect@?$Bitmap@$0EA@@@QEAAXAEAV1@@Z 000000000046fe90 f i ha_myisam.obj
 0001:0006eed0       ?intersect_extended@?$Bitmap@$0EA@@@QEAAX_K@Z 000000000046fed0 f i ha_myisam.obj
 0001:0006ef00       ?val_int_offset@Field@@QEAA_JI@Z 000000000046ff00 f i ha_myisam.obj
 0001:0006efa0       ??0ha_myisammrg@@QEAA@PEAUst_table@@@Z 000000000046ffa0 f   ha_myisammrg.obj
 0001:0006f010       myrg_print_wrong_table     0000000000470010 f   ha_myisammrg.obj
 0001:0006f120       ?bas_ext@ha_myisammrg@@UEBAPEAPEBDXZ 0000000000470120 f   ha_myisammrg.obj
 0001:0006f140       ?index_type@ha_myisammrg@@UEAAPEBDI@Z 0000000000470140 f   ha_myisammrg.obj
 0001:0006f220       ?open@ha_myisammrg@@UEAAHPEBDHI@Z 0000000000470220 f   ha_myisammrg.obj
 0001:0006f770       ?close@ha_myisammrg@@UEAAHXZ 0000000000470770 f   ha_myisammrg.obj
 0001:0006f7b0       ?write_row@ha_myisammrg@@UEAAHPEAE@Z 00000000004707b0 f   ha_myisammrg.obj
 0001:0006f8b0       ?update_row@ha_myisammrg@@UEAAHPEBEPEAE@Z 00000000004708b0 f   ha_myisammrg.obj
 0001:0006f950       ?delete_row@ha_myisammrg@@UEAAHPEBE@Z 0000000000470950 f   ha_myisammrg.obj
 0001:0006f9c0       ?index_read@ha_myisammrg@@UEAAHPEAEPEBEIW4ha_rkey_function@@@Z 00000000004709c0 f   ha_myisammrg.obj
 0001:0006fa80       ?index_read_idx@ha_myisammrg@@UEAAHPEAEIPEBEIW4ha_rkey_function@@@Z 0000000000470a80 f   ha_myisammrg.obj
 0001:0006fb40       ?index_read_last@ha_myisammrg@@UEAAHPEAEPEBEI@Z 0000000000470b40 f   ha_myisammrg.obj
 0001:0006fc00       ?index_next@ha_myisammrg@@UEAAHPEAE@Z 0000000000470c00 f   ha_myisammrg.obj
 0001:0006fcb0       ?index_prev@ha_myisammrg@@UEAAHPEAE@Z 0000000000470cb0 f   ha_myisammrg.obj
 0001:0006fd60       ?index_first@ha_myisammrg@@UEAAHPEAE@Z 0000000000470d60 f   ha_myisammrg.obj
 0001:0006fe10       ?index_last@ha_myisammrg@@UEAAHPEAE@Z 0000000000470e10 f   ha_myisammrg.obj
 0001:0006fec0       ?index_next_same@ha_myisammrg@@UEAAHPEAEPEBEI@Z 0000000000470ec0 f   ha_myisammrg.obj
 0001:0006ff60       ?rnd_init@ha_myisammrg@@UEAAHH@Z 0000000000470f60 f   ha_myisammrg.obj
 0001:0006ffb0       ?rnd_next@ha_myisammrg@@UEAAHPEAE@Z 0000000000470fb0 f   ha_myisammrg.obj
 0001:00070050       ?rnd_pos@ha_myisammrg@@UEAAHPEAE0@Z 0000000000471050 f   ha_myisammrg.obj
 0001:00070110       ?position@ha_myisammrg@@UEAAXPEBE@Z 0000000000471110 f   ha_myisammrg.obj
 0001:00070180       ?records_in_range@ha_myisammrg@@UEAAKIPEAUst_key_range@@0@Z 0000000000471180 f   ha_myisammrg.obj
 0001:000701e0       ?info@ha_myisammrg@@UEAAHI@Z 00000000004711e0 f   ha_myisammrg.obj
 0001:00070480       ?extra@ha_myisammrg@@UEAAHW4ha_extra_function@@@Z 0000000000471480 f   ha_myisammrg.obj
 0001:000704e0       ?extra_opt@ha_myisammrg@@UEAAHW4ha_extra_function@@K@Z 00000000004714e0 f   ha_myisammrg.obj
 0001:00070550       ?external_lock@ha_myisammrg@@UEAAHPEAVTHD@@H@Z 0000000000471550 f   ha_myisammrg.obj
 0001:000705a0       ?lock_count@ha_myisammrg@@UEBAIXZ 00000000004715a0 f   ha_myisammrg.obj
 0001:000705c0       ?store_lock@ha_myisammrg@@UEAAPEAPEAUst_thr_lock_data@@PEAVTHD@@PEAPEAU2@W4thr_lock_type@@@Z 00000000004715c0 f   ha_myisammrg.obj
 0001:000707e0       ?update_create_info@ha_myisammrg@@UEAAXPEAUst_ha_create_information@@@Z 00000000004717e0 f   ha_myisammrg.obj
 0001:00070b10       ?create@ha_myisammrg@@UEAAHPEBDPEAUst_table@@PEAUst_ha_create_information@@@Z 0000000000471b10 f   ha_myisammrg.obj
 0001:00070ed0       ?append_create_info@ha_myisammrg@@UEAAXPEAVString@@@Z 0000000000471ed0 f   ha_myisammrg.obj
 0001:000710f0       ?check@ha_myisammrg@@UEAAHPEAVTHD@@PEAUst_ha_check_opt@@@Z 00000000004720f0 f   ha_myisammrg.obj
 0001:00071960       ?table_type@ha_myisammrg@@UEBAPEBDXZ 0000000000472960 f i ha_myisammrg.obj
 0001:00071980       ?table_flags@ha_myisammrg@@UEBAKXZ 0000000000472980 f i ha_myisammrg.obj
 0001:00071990       ?index_flags@ha_myisammrg@@UEBAKIIH@Z 0000000000472990 f i ha_myisammrg.obj
 0001:00071a10       ?max_supported_keys@ha_myisammrg@@UEBAIXZ 0000000000472a10 f i ha_myisammrg.obj
 0001:00071a20       ?max_supported_key_length@ha_myisammrg@@UEBAIXZ 0000000000472a20 f i ha_myisammrg.obj
 0001:00071a30       ?max_supported_key_part_length@ha_myisammrg@@UEBAIXZ 0000000000472a30 f i ha_myisammrg.obj
 0001:00071a40       ?scan_time@ha_myisammrg@@UEAANXZ 0000000000472a40 f i ha_myisammrg.obj
 0001:00071ac0       ??_Gha_myisammrg@@UEAAPEAXI@Z 0000000000472ac0 f i ha_myisammrg.obj
 0001:00071ac0       ??_Eha_myisammrg@@UEAAPEAXI@Z 0000000000472ac0 f i ha_myisammrg.obj
 0001:00071b30       ??1ha_myisammrg@@UEAA@XZ   0000000000472b30 f i ha_myisammrg.obj
 0001:00071b90       ?calloc@Query_arena@@QEAAPEADI@Z 0000000000472b90 f i ha_myisammrg.obj
 0001:00071c10       ?strmake@Query_arena@@QEAAPEADPEBDI@Z 0000000000472c10 f i ha_myisammrg.obj
 0001:00071c70       ?alloc@Query_arena@@QEAAPEADI@Z 0000000000472c70 f i ha_myisammrg.obj
 0001:00071cc0       ?innobase_release_temporary_latches@@YAXPEAVTHD@@@Z 0000000000472cc0 f   ha_innodb.obj
 0001:00071d30       innobase_mysql_prepare_print_arbitrary_thd 0000000000472d30 f   ha_innodb.obj
 0001:00071d70       innobase_mysql_end_print_arbitrary_thd 0000000000472d70 f   ha_innodb.obj
 0001:00071db0       innobase_mysql_print_thd   0000000000472db0 f   ha_innodb.obj
 0001:000720b0       innobase_get_cset_width    00000000004730b0 f   ha_innodb.obj
 0001:000721e0       innobase_strcasecmp        00000000004731e0 f   ha_innodb.obj
 0001:00072240       innobase_casedn_str        0000000000473240 f   ha_innodb.obj
 0001:00072290       innobase_mysql_tmpfile     0000000000473290 f   ha_innodb.obj
 0001:000723f0       ??0ha_innobase@@QEAA@PEAUst_table@@@Z 00000000004733f0 f   ha_innodb.obj
 0001:00072480       ?innobase_query_caching_of_table_permitted@@YADPEAVTHD@@PEADIPEA_K@Z 0000000000473480 f   ha_innodb.obj
 0001:000728d0       innobase_invalidate_query_cache 00000000004738d0 f   ha_innodb.obj
 0001:00072930       mysql_get_identifier_quote_char 0000000000473930 f   ha_innodb.obj
 0001:000729b0       trx_is_interrupted         00000000004739b0 f   ha_innodb.obj
 0001:00072a30       innobase_current_thd       0000000000473a30 f   ha_innodb.obj
 0001:00072a60       ?init_table_handle_for_HANDLER@ha_innobase@@UEAAXXZ 0000000000473a60 f   ha_innodb.obj
 0001:00072b80       ?innobase_init@@YAHXZ      0000000000473b80 f   ha_innodb.obj
 0001:00073400       ?innobase_end@@YAHXZ       0000000000474400 f   ha_innodb.obj
 0001:00073560       ?innobase_flush_logs@@YAHXZ 0000000000474560 f   ha_innodb.obj
 0001:00073620       ?innobase_commit_low@@YAXPEAUtrx_struct@@@Z 0000000000474620 f   ha_innodb.obj
 0001:000736c0       ?innobase_start_trx_and_assign_read_view@@YAHPEAVTHD@@@Z 00000000004746c0 f   ha_innodb.obj
 0001:00073ab0       ?innobase_report_binlog_offset_and_commit@@YAHPEAVTHD@@PEAXPEAD_K@Z 0000000000474ab0 f   ha_innodb.obj
 0001:00073be0       ?innobase_commit_complete@@YAHPEAVTHD@@@Z 0000000000474be0 f   ha_innodb.obj
 0001:00073fe0       ?innobase_rollback_trx@@YAHPEAUtrx_struct@@@Z 0000000000474fe0 f   ha_innodb.obj
 0001:00074670       ?get_row_type@ha_innobase@@UEBA?AW4row_type@@XZ 0000000000475670 f   ha_innodb.obj
 0001:000746f0       ?bas_ext@ha_innobase@@UEBAPEAPEBDXZ 00000000004756f0 f   ha_innodb.obj
 0001:00074710       ?open@ha_innobase@@UEAAHPEBDHI@Z 0000000000475710 f   ha_innodb.obj
 0001:00074e60       ?max_supported_key_part_length@ha_innobase@@UEBAIXZ 0000000000475e60 f   ha_innodb.obj
 0001:00074e80       ?close@ha_innobase@@UEAAHXZ 0000000000475e80 f   ha_innodb.obj
 0001:00074fb0       innobase_mysql_cmp         0000000000475fb0 f   ha_innodb.obj
 0001:000751c0       ?store_key_val_for_row@ha_innobase@@AEAAIIPEADIPEBE@Z 00000000004761c0 f   ha_innodb.obj
 0001:00075c30       ?write_row@ha_innobase@@UEAAHPEAE@Z 0000000000476c30 f   ha_innodb.obj
 0001:00076920       ?update_row@ha_innobase@@UEAAHPEBEPEAE@Z 0000000000477920 f   ha_innodb.obj
 0001:00077210       ?delete_row@ha_innobase@@UEAAHPEBE@Z 0000000000478210 f   ha_innodb.obj
 0001:000773d0       ?unlock_row@ha_innobase@@UEAAXXZ 00000000004783d0 f   ha_innodb.obj
 0001:00077590       ?index_init@ha_innobase@@UEAAHI@Z 0000000000478590 f   ha_innodb.obj
 0001:00077670       ?index_end@ha_innobase@@UEAAHXZ 0000000000478670 f   ha_innodb.obj
 0001:00077750       ?index_read@ha_innobase@@UEAAHPEAEPEBEIW4ha_rkey_function@@@Z 0000000000478750 f   ha_innodb.obj
 0001:00077ad0       ?index_read_last@ha_innobase@@UEAAHPEAEPEBEI@Z 0000000000478ad0 f   ha_innodb.obj
 0001:00077b40       ?change_active_index@ha_innobase@@AEAAHI@Z 0000000000478b40 f   ha_innodb.obj
 0001:00077df0       ?index_read_idx@ha_innobase@@UEAAHPEAEIPEBEIW4ha_rkey_function@@@Z 0000000000478df0 f   ha_innodb.obj
 0001:00077e80       ?general_fetch@ha_innobase@@AEAAHPEAEII@Z 0000000000478e80 f   ha_innodb.obj
 0001:00078070       ?index_next@ha_innobase@@UEAAHPEAE@Z 0000000000479070 f   ha_innodb.obj
 0001:000780d0       ?index_next_same@ha_innobase@@UEAAHPEAEPEBEI@Z 00000000004790d0 f   ha_innodb.obj
 0001:00078140       ?index_prev@ha_innobase@@UEAAHPEAE@Z 0000000000479140 f   ha_innodb.obj
 0001:000781a0       ?index_first@ha_innobase@@UEAAHPEAE@Z 00000000004791a0 f   ha_innodb.obj
 0001:000782b0       ?index_last@ha_innobase@@UEAAHPEAE@Z 00000000004792b0 f   ha_innodb.obj
 0001:000783c0       ?rnd_init@ha_innobase@@UEAAHH@Z 00000000004793c0 f   ha_innodb.obj
 0001:00078460       ?rnd_end@ha_innobase@@UEAAHXZ 0000000000479460 f   ha_innodb.obj
 0001:000784a0       ?rnd_next@ha_innobase@@UEAAHPEAE@Z 00000000004794a0 f   ha_innodb.obj
 0001:000785f0       ?rnd_pos@ha_innobase@@UEAAHPEAE0@Z 00000000004795f0 f   ha_innodb.obj
 0001:00078850       ?position@ha_innobase@@UEAAXPEBE@Z 0000000000479850 f   ha_innodb.obj
 0001:00078940       ?update_create_info@ha_innobase@@UEAAXPEAUst_ha_create_information@@@Z 0000000000479940 f   ha_innodb.obj
 0001:000789b0       ?create@ha_innobase@@UEAAHPEBDPEAUst_table@@PEAUst_ha_create_information@@@Z 00000000004799b0 f   ha_innodb.obj
 0001:00079a40       ?discard_or_import_tablespace@ha_innobase@@UEAAHD@Z 000000000047aa40 f   ha_innodb.obj
 0001:00079ce0       ?delete_all_rows@ha_innobase@@UEAAHXZ 000000000047ace0 f   ha_innodb.obj
 0001:00079e50       ?delete_table@ha_innobase@@UEAAHPEBD@Z 000000000047ae50 f   ha_innodb.obj
 0001:0007a0c0       ?innobase_drop_database@@YAHPEAD@Z 000000000047b0c0 f   ha_innodb.obj
 0001:0007a2a0       ?rename_table@ha_innobase@@UEAAHPEBD0@Z 000000000047b2a0 f   ha_innodb.obj
 0001:0007a510       ?records_in_range@ha_innobase@@UEAAKIPEAUst_key_range@@0@Z 000000000047b510 f   ha_innodb.obj
 0001:0007a9b0       ?estimate_rows_upper_bound@ha_innobase@@UEAAKXZ 000000000047b9b0 f   ha_innodb.obj
 0001:0007ab40       ?scan_time@ha_innobase@@UEAANXZ 000000000047bb40 f   ha_innodb.obj
 0001:0007abb0       ?read_time@ha_innobase@@UEAANIIK@Z 000000000047bbb0 f   ha_innodb.obj
 0001:0007aca0       ?info@ha_innobase@@UEAAHI@Z 000000000047bca0 f   ha_innodb.obj
 0001:0007b3f0       ?analyze@ha_innobase@@UEAAHPEAVTHD@@PEAUst_ha_check_opt@@@Z 000000000047c3f0 f   ha_innodb.obj
 0001:0007b450       ?optimize@ha_innobase@@UEAAHPEAVTHD@@PEAUst_ha_check_opt@@@Z 000000000047c450 f   ha_innodb.obj
 0001:0007b470       ?check@ha_innobase@@UEAAHPEAVTHD@@PEAUst_ha_check_opt@@@Z 000000000047c470 f   ha_innodb.obj
 0001:0007b650       ?update_table_comment@ha_innobase@@UEAAPEADPEBD@Z 000000000047c650 f   ha_innodb.obj
 0001:0007b8b0       ?get_foreign_key_create_info@ha_innobase@@UEAAPEADXZ 000000000047c8b0 f   ha_innodb.obj
 0001:0007bac0       ?get_foreign_key_list@ha_innobase@@UEAAHPEAVTHD@@PEAV?$List@Ust_foreign_key_info@@@@@Z 000000000047cac0 f   ha_innodb.obj
 0001:0007c130       ?can_switch_engines@ha_innobase@@UEAAHXZ 000000000047d130 f   ha_innodb.obj
 0001:0007c290       ?referenced_by_foreign_key@ha_innobase@@UEAAIXZ 000000000047d290 f   ha_innodb.obj
 0001:0007c2f0       ?free_foreign_key_create_info@ha_innobase@@UEAAXPEAD@Z 000000000047d2f0 f   ha_innodb.obj
 0001:0007c350       ?extra@ha_innobase@@UEAAHW4ha_extra_function@@@Z 000000000047d350 f   ha_innodb.obj
 0001:0007c500       ?start_stmt@ha_innobase@@UEAAHPEAVTHD@@W4thr_lock_type@@@Z 000000000047d500 f   ha_innodb.obj
 0001:0007c660       ?external_lock@ha_innobase@@UEAAHPEAVTHD@@H@Z 000000000047d660 f   ha_innodb.obj
 0001:0007cb10       ?transactional_table_lock@ha_innobase@@QEAAHPEAVTHD@@H@Z 000000000047db10 f   ha_innodb.obj
 0001:0007cee0       ?innodb_export_status@@YAXXZ 000000000047dee0 f   ha_innodb.obj
 0001:0007cf10       ?innodb_show_status@@YAHPEAVTHD@@@Z 000000000047df10 f   ha_innodb.obj
 0001:0007d5a0       ?innodb_mutex_show_status@@YAHPEAVTHD@@@Z 000000000047e5a0 f   ha_innodb.obj
 0001:0007dcb0       ?store_lock@ha_innobase@@UEAAPEAPEAUst_thr_lock_data@@PEAVTHD@@PEAPEAU2@W4thr_lock_type@@@Z 000000000047ecb0 f   ha_innodb.obj
 0001:0007df70       ?innobase_read_and_init_auto_inc@ha_innobase@@AEAAHPEA_J@Z 000000000047ef70 f   ha_innodb.obj
 0001:0007e3e0       ?get_auto_increment@ha_innobase@@UEAA_KXZ 000000000047f3e0 f   ha_innodb.obj
 0001:0007e470       ?reset_auto_increment@ha_innobase@@UEAAH_K@Z 000000000047f470 f   ha_innodb.obj
 0001:0007e5d0       ?get_error_message@ha_innobase@@UEAAHHPEAVString@@@Z 000000000047f5d0 f   ha_innodb.obj
 0001:0007e660       ?cmp_ref@ha_innobase@@UEAAHPEBE0@Z 000000000047f660 f   ha_innodb.obj
 0001:0007e8b0       ?get_mysql_bin_log_name@ha_innobase@@SAPEADXZ 000000000047f8b0 f   ha_innodb.obj
 0001:0007e8d0       ?get_mysql_bin_log_pos@ha_innobase@@SA_KXZ 000000000047f8d0 f   ha_innodb.obj
 0001:0007e8f0       innobase_get_at_most_n_mbchars 000000000047f8f0 f   ha_innodb.obj
 0001:0007ea00       innobase_query_is_update   000000000047fa00 f   ha_innodb.obj
 0001:0007eac0       ?innobase_xa_prepare@@YAHPEAVTHD@@H@Z 000000000047fac0 f   ha_innodb.obj
 0001:0007ec30       ?innobase_xa_recover@@YAHPEAUxid_t@@I@Z 000000000047fc30 f   ha_innodb.obj
 0001:0007ec90       ?innobase_commit_by_xid@@YAHPEAUxid_t@@@Z 000000000047fc90 f   ha_innodb.obj
 0001:0007ecf0       ?innobase_rollback_by_xid@@YAHPEAUxid_t@@@Z 000000000047fcf0 f   ha_innodb.obj
 0001:0007ed50       ?innobase_create_cursor_view@@YAPEAXXZ 000000000047fd50 f   ha_innodb.obj
 0001:0007ed90       ?innobase_close_cursor_view@@YAXPEAX@Z 000000000047fd90 f   ha_innodb.obj
 0001:0007ede0       ?innobase_set_cursor_view@@YAXPEAX@Z 000000000047fde0 f   ha_innodb.obj
 0001:00082280       ?innobase_release_stat_resources@@YAXPEAUtrx_struct@@@Z 0000000000483280 f i ha_innodb.obj
 0001:00082300       ?table_type@ha_innobase@@UEBAPEBDXZ 0000000000483300 f i ha_innodb.obj
 0001:00082320       ?index_type@ha_innobase@@UEAAPEBDI@Z 0000000000483320 f i ha_innodb.obj
 0001:00082340       ?table_flags@ha_innobase@@UEBAKXZ 0000000000483340 f i ha_innodb.obj
 0001:00082360       ?index_flags@ha_innobase@@UEBAKIIH@Z 0000000000483360 f i ha_innodb.obj
 0001:00082390       ?max_supported_keys@ha_innobase@@UEBAIXZ 0000000000483390 f i ha_innodb.obj
 0001:000823a0       ?max_supported_key_length@ha_innobase@@UEBAIXZ 00000000004833a0 f i ha_innodb.obj
 0001:000823b0       ?keys_to_use_for_scanning@ha_innobase@@UEAAPEBV?$Bitmap@$0EA@@@XZ 00000000004833b0 f i ha_innodb.obj
 0001:000823d0       ?has_transactions@ha_innobase@@UEAAHXZ 00000000004833d0 f i ha_innodb.obj
 0001:000823e0       ?table_cache_type@ha_innobase@@UEAAEXZ 00000000004833e0 f i ha_innodb.obj
 0001:000823f0       ?register_query_cache_table@ha_innobase@@UEAADPEAVTHD@@PEADIPEAP6AD01IPEA_K@Z2@Z 00000000004833f0 f i ha_innodb.obj
 0001:00082480       ?primary_key_is_clustered@ha_innobase@@UEAAHXZ 0000000000483480 f i ha_innodb.obj
 0001:00082490       ??_Gha_innobase@@UEAAPEAXI@Z 0000000000483490 f i ha_innodb.obj
 0001:00082490       ??_Eha_innobase@@UEAAPEAXI@Z 0000000000483490 f i ha_innodb.obj
 0001:00082500       ??1ha_innobase@@UEAA@XZ    0000000000483500 f i ha_innodb.obj
 0001:00082560       ?innobase_register_trx_and_stmt@@YAXPEAVTHD@@@Z 0000000000483560 f i ha_innodb.obj
 0001:000825e0       ?innobase_register_stmt@@YAXPEAVTHD@@@Z 00000000004835e0 f i ha_innodb.obj
 0001:00082630       ?update_thd@ha_innobase@@AEAAHPEAVTHD@@@Z 0000000000483630 f i ha_innodb.obj
 0001:000826d0       ?get_log_fname@MYSQL_LOG@@QEAAPEADXZ 00000000004836d0 f i ha_innodb.obj
 0001:000826f0       ?get_log_file@MYSQL_LOG@@QEAAPEAUst_io_cache@@XZ 00000000004836f0 f i ha_innodb.obj
 0001:00082710       ?get_field_offset@@YAIPEAUst_table@@PEAVField@@@Z 0000000000483710 f i ha_innodb.obj
 0001:00082740       ?innobase_write_to_2_little_endian@@YAXPEAE_K@Z 0000000000483740 f i ha_innodb.obj
 0001:00082870       ?innodb_srv_conc_enter_innodb@@YAXPEAUtrx_struct@@@Z 0000000000483870 f i ha_innodb.obj
 0001:000828c0       ?innodb_srv_conc_exit_innodb@@YAXPEAUtrx_struct@@@Z 00000000004838c0 f i ha_innodb.obj
 0001:00082910       ?innobase_active_small@@YAXXZ 0000000000483910 f i ha_innodb.obj
 0001:00082970       ?field_in_record_is_null@@YAIPEAUst_table@@PEAVField@@PEAD@Z 0000000000483970 f i ha_innodb.obj
 0001:00082a10       ?convert_search_mode_to_innobase@@YA_KW4ha_rkey_function@@@Z 0000000000483a10 f i ha_innodb.obj
 0001:00082b50       ?charset@THD@@QEAAPEAUcharset_info_st@@XZ 0000000000483b50 f i ha_innodb.obj
 0001:00082b70       ?get_innobase_type_from_mysql_type@@YA_KPEA_KPEAVField@@@Z 0000000000483b70 f i ha_innodb.obj
 0001:00082f00       ?memdup@Query_arena@@QEAAPEADPEBDI@Z 0000000000483f00 f i ha_innodb.obj
 0001:00082f60       ??0st_foreign_key_info@@QEAA@XZ 0000000000483f60 f i ha_innodb.obj
 0001:00083010       ??1?$List@Ust_lex_string@@@@QEAA@XZ 0000000000484010 f i ha_innodb.obj
 0001:00083050       ??1st_foreign_key_info@@QEAA@XZ 0000000000484050 f i ha_innodb.obj
 0001:00083100       ?innobase_map_isolation_level@@YA_KW4enum_tx_isolation@@@Z 0000000000484100 f i ha_innodb.obj
 0001:00083220       ??0Item_empty_string@@QEAA@PEBDIPEAUcharset_info_st@@@Z 0000000000484220 f i ha_innodb.obj
 0001:00083330       ??_EItem_empty_string@@UEAAPEAXI@Z 0000000000484330 f i ha_innodb.obj
 0001:00083330       ??_GItem_empty_string@@UEAAPEAXI@Z 0000000000484330 f i ha_innodb.obj
 0001:000833a0       ??1Item_empty_string@@UEAA@XZ 00000000004843a0 f i ha_innodb.obj
 0001:000833e0       ??1?$List@VItem@@@@QEAA@XZ 00000000004843e0 f i ha_innodb.obj
 0001:00083420       ?store@Protocol@@QEAAH_K@Z 0000000000484420 f i ha_innodb.obj
 0001:00083480       ?innobase_read_from_2_little_endian@@YAIPEBE@Z 0000000000484480 f i ha_innodb.obj
 0001:000834b0       ??0?$List@Ust_lex_string@@@@QEAA@XZ 00000000004844b0 f i ha_innodb.obj
 0001:00083500       ?push_back@?$List@Ust_lex_string@@@@QEAAHPEAUst_lex_string@@@Z 0000000000484500 f i ha_innodb.obj
 0001:00083550       ??0?$List@VItem@@@@QEAA@XZ 0000000000484550 f i ha_innodb.obj
 0001:000835a0       ?push_back@?$List@VItem@@@@QEAAHPEAVItem@@@Z 00000000004845a0 f i ha_innodb.obj
 0001:000835f0       ?push_back@?$List@Ust_foreign_key_info@@@@QEAAHPEAUst_foreign_key_info@@@Z 00000000004845f0 f i ha_innodb.obj
 0001:00083640       ?federated_db_init@@YAHXZ  0000000000484640 f   ha_federated.obj
 0001:000837e0       ?federated_db_end@@YAHXZ   00000000004847e0 f   ha_federated.obj
 0001:00083840       ??0ha_federated@@QEAA@PEAUst_table@@@Z 0000000000484840 f   ha_federated.obj
 0001:000838e0       ?convert_row_to_internal_format@ha_federated@@AEAAIPEAEPEAPEADPEAUst_mysql_res@@@Z 00000000004848e0 f   ha_federated.obj
 0001:00083b50       ?create_where_from_key@ha_federated@@AEAAHPEAVString@@PEAUst_key@@PEBUst_key_range@@2H@Z 0000000000484b50 f   ha_federated.obj
 0001:00085650       ?records_in_range@ha_federated@@UEAAKIPEAUst_key_range@@0@Z 0000000000486650 f   ha_federated.obj
 0001:00085720       ?bas_ext@ha_federated@@UEBAPEAPEBDXZ 0000000000486720 f   ha_federated.obj
 0001:00085740       ?open@ha_federated@@UEAAHPEBDHI@Z 0000000000486740 f   ha_federated.obj
 0001:00086840       ?close@ha_federated@@UEAAHXZ 0000000000487840 f   ha_federated.obj
 0001:00086b10       ?append_stmt_insert@ha_federated@@AEAAHPEAVString@@@Z 0000000000487b10 f   ha_federated.obj
 0001:00086eb0       ?write_row@ha_federated@@UEAAHPEAE@Z 0000000000487eb0 f   ha_federated.obj
 0001:00087640       ?start_bulk_insert@ha_federated@@UEAAXK@Z 0000000000488640 f   ha_federated.obj
 0001:000877f0       ?end_bulk_insert@ha_federated@@UEAAHXZ 00000000004887f0 f   ha_federated.obj
 0001:00087960       ?update_auto_increment@ha_federated@@QEAAXXZ 0000000000488960 f   ha_federated.obj
 0001:00087a80       ?optimize@ha_federated@@UEAAHPEAVTHD@@PEAUst_ha_check_opt@@@Z 0000000000488a80 f   ha_federated.obj
 0001:00087d00       ?repair@ha_federated@@UEAAHPEAVTHD@@PEAUst_ha_check_opt@@@Z 0000000000488d00 f   ha_federated.obj
 0001:00087ff0       ?update_row@ha_federated@@UEAAHPEBEPEAE@Z 0000000000488ff0 f   ha_federated.obj
 0001:000886a0       ?delete_row@ha_federated@@UEAAHPEBE@Z 00000000004896a0 f   ha_federated.obj
 0001:00088c00       ?index_read@ha_federated@@UEAAHPEAEPEBEIW4ha_rkey_function@@@Z 0000000000489c00 f   ha_federated.obj
 0001:00088d40       ?index_read_idx@ha_federated@@UEAAHPEAEIPEBEIW4ha_rkey_function@@@Z 0000000000489d40 f   ha_federated.obj
 0001:00088ea0       ?index_read_idx_with_result_set@ha_federated@@AEAAHPEAEIPEBEIW4ha_rkey_function@@PEAPEAUst_mysql_res@@@Z 0000000000489ea0 f   ha_federated.obj
 0001:00089390       ?index_init@ha_federated@@UEAAHI@Z 000000000048a390 f   ha_federated.obj
 0001:000894b0       ?read_range_first@ha_federated@@UEAAHPEBUst_key_range@@0HH@Z 000000000048a4b0 f   ha_federated.obj
 0001:00089850       ?read_range_next@ha_federated@@UEAAHXZ 000000000048a850 f   ha_federated.obj
 0001:00089950       ?index_next@ha_federated@@UEAAHPEAE@Z 000000000048a950 f   ha_federated.obj
 0001:00089a50       ?rnd_init@ha_federated@@UEAAHH@Z 000000000048aa50 f   ha_federated.obj
 0001:00089c00       ?rnd_end@ha_federated@@UEAAHXZ 000000000048ac00 f   ha_federated.obj
 0001:00089cd0       ?index_end@ha_federated@@UEAAHXZ 000000000048acd0 f   ha_federated.obj
 0001:00089dd0       ?rnd_next@ha_federated@@UEAAHPEAE@Z 000000000048add0 f   ha_federated.obj
 0001:00089ef0       ?read_next@ha_federated@@AEAAHPEAEPEAUst_mysql_res@@@Z 000000000048aef0 f   ha_federated.obj
 0001:0008a050       ?position@ha_federated@@UEAAXPEBE@Z 000000000048b050 f   ha_federated.obj
 0001:0008a1a0       ?rnd_pos@ha_federated@@UEAAHPEAE0@Z 000000000048b1a0 f   ha_federated.obj
 0001:0008a370       ?info@ha_federated@@UEAAHI@Z 000000000048b370 f   ha_federated.obj
 0001:0008a8b0       ?extra@ha_federated@@UEAAHW4ha_extra_function@@@Z 000000000048b8b0 f   ha_federated.obj
 0001:0008aaf0       ?delete_all_rows@ha_federated@@UEAAHXZ 000000000048baf0 f   ha_federated.obj
 0001:0008ad90       ?store_lock@ha_federated@@UEAAPEAPEAUst_thr_lock_data@@PEAVTHD@@PEAPEAU2@W4thr_lock_type@@@Z 000000000048bd90 f   ha_federated.obj
 0001:0008af10       ?create@ha_federated@@UEAAHPEBDPEAUst_table@@PEAUst_ha_create_information@@@Z 000000000048bf10 f   ha_federated.obj
 0001:0008b020       ?real_connect@ha_federated@@AEAAHXZ 000000000048c020 f   ha_federated.obj
 0001:0008b5e0       ?real_query@ha_federated@@AEAAHPEBDI@Z 000000000048c5e0 f   ha_federated.obj
 0001:0008b720       ?stash_remote_error@ha_federated@@AEAAHXZ 000000000048c720 f   ha_federated.obj
 0001:0008b8d0       ?get_error_message@ha_federated@@UEAAHHPEAVString@@@Z 000000000048c8d0 f   ha_federated.obj
 0001:0008dbb0       ?table_type@ha_federated@@UEBAPEBDXZ 000000000048ebb0 f i ha_federated.obj
 0001:0008dbd0       ?index_type@ha_federated@@UEAAPEBDI@Z 000000000048ebd0 f i ha_federated.obj
 0001:0008dbf0       ?table_flags@ha_federated@@UEBAKXZ 000000000048ebf0 f i ha_federated.obj
 0001:0008dc00       ?index_flags@ha_federated@@UEBAKIIH@Z 000000000048ec00 f i ha_federated.obj
 0001:0008dc30       ?max_supported_record_length@ha_federated@@UEBAIXZ 000000000048ec30 f i ha_federated.obj
 0001:0008dc40       ?max_supported_keys@ha_federated@@UEBAIXZ 000000000048ec40 f i ha_federated.obj
 0001:0008dc50       ?max_supported_key_parts@ha_federated@@UEBAIXZ 000000000048ec50 f i ha_federated.obj
 0001:0008dc60       ?max_supported_key_length@ha_federated@@UEBAIXZ 000000000048ec60 f i ha_federated.obj
 0001:0008dc70       ?max_supported_key_part_length@ha_federated@@UEBAIXZ 000000000048ec70 f i ha_federated.obj
 0001:0008dc80       ?scan_time@ha_federated@@UEAANXZ 000000000048ec80 f i ha_federated.obj
 0001:0008dd10       ?read_time@ha_federated@@UEAANIIK@Z 000000000048ed10 f i ha_federated.obj
 0001:0008dd80       ?keys_to_use_for_scanning@ha_federated@@UEAAPEBV?$Bitmap@$0EA@@@XZ 000000000048ed80 f i ha_federated.obj
 0001:0008dda0       ?table_cache_type@ha_federated@@UEAAEXZ 000000000048eda0 f i ha_federated.obj
 0001:0008ddb0       ??_Gha_federated@@UEAAPEAXI@Z 000000000048edb0 f i ha_federated.obj
 0001:0008ddb0       ??_Eha_federated@@UEAAPEAXI@Z 000000000048edb0 f i ha_federated.obj
 0001:0008de20       ??1ha_federated@@UEAA@XZ   000000000048ee20 f i ha_federated.obj
 0001:0008de80       ?reserve@String@@QEAAHK@Z  000000000048ee80 f i ha_federated.obj
 0001:0008dee0       ?val_str@Field@@QEAAPEAVString@@PEAV2@PEAD@Z 000000000048eee0 f i ha_federated.obj
 0001:0008df70       ?strchr@@YAPEADPEADH@Z     000000000048ef70 f i ha_federated.obj
 0001:0008dfc0       ?strstr@@YAPEADPEADPEBD@Z  000000000048efc0 f i ha_federated.obj
 0001:0008e010       ?insert_id@THD@@QEAAX_K@Z  000000000048f010 f i ha_federated.obj
 0001:0008e060       ?ha_resolve_by_name@@YA?AW4db_type@@PEBDI@Z 000000000048f060 f   handler.obj
 0001:0008e1f0       ?ha_get_storage_engine@@YAPEBDW4db_type@@@Z 000000000048f1f0 f   handler.obj
 0001:0008e270       ?ha_check_storage_engine_flag@@YAHW4db_type@@K@Z 000000000048f270 f   handler.obj
 0001:0008e310       ?ha_storage_engine_is_enabled@@YADW4db_type@@@Z 000000000048f310 f   handler.obj
 0001:0008e390       ?ha_checktype@@YA?AW4db_type@@PEAVTHD@@W41@HH@Z 000000000048f390 f   handler.obj
 0001:0008e480       ?get_new_handler@@YAPEAVhandler@@PEAUst_table@@PEAUst_mem_root@@W4db_type@@@Z 000000000048f480 f   handler.obj
 0001:0008e9e0       ?ha_init@@YAHXZ            000000000048f9e0 f   handler.obj
 0001:0008ef90       ?ha_panic@@YAHW4ha_panic_function@@@Z 000000000048ff90 f   handler.obj
 0001:0008f0e0       ?ha_drop_database@@YAXPEAD@Z 00000000004900e0 f   handler.obj
 0001:0008f130       ?ha_close_connection@@YAXPEAVTHD@@@Z 0000000000490130 f   handler.obj
 0001:0008f1c0       ?trans_register_ha@@YAXPEAVTHD@@HPEAUhandlerton@@@Z 00000000004901c0 f   handler.obj
 0001:0008f460       ?ha_prepare@@YAHPEAVTHD@@@Z 0000000000490460 f   handler.obj
 0001:0008f660       ?ha_commit_trans@@YAHPEAVTHD@@H@Z 0000000000490660 f   handler.obj
 0001:0008fb90       ?ha_commit_one_phase@@YAHPEAVTHD@@H@Z 0000000000490b90 f   handler.obj
 0001:0008fe30       ?ha_rollback_trans@@YAHPEAVTHD@@H@Z 0000000000490e30 f   handler.obj
 0001:000901d0       ?ha_autocommit_or_rollback@@YAHPEAVTHD@@H@Z 00000000004911d0 f   handler.obj
 0001:00090330       ?ha_commit_or_rollback_by_xid@@YAHPEAUxid_t@@H@Z 0000000000491330 f   handler.obj
 0001:00090400       ?ha_recover@@YAHPEAUst_hash@@@Z 0000000000491400 f   handler.obj
 0001:00090ce0       ?mysql_xa_recover@@YAHPEAVTHD@@@Z 0000000000491ce0 f   handler.obj
 0001:000912f0       ?ha_release_temporary_latches@@YAHPEAVTHD@@@Z 00000000004922f0 f   handler.obj
 0001:00091340       ?ha_update_statistics@@YAHXZ 0000000000492340 f   handler.obj
 0001:00091380       ?ha_rollback_to_savepoint@@YAHPEAVTHD@@PEAUst_savepoint@@@Z 0000000000492380 f   handler.obj
 0001:000916a0       ?ha_savepoint@@YAHPEAVTHD@@PEAUst_savepoint@@@Z 00000000004926a0 f   handler.obj
 0001:000918b0       ?ha_release_savepoint@@YAHPEAVTHD@@PEAUst_savepoint@@@Z 00000000004928b0 f   handler.obj
 0001:00091a90       ?ha_start_consistent_snapshot@@YAHPEAVTHD@@@Z 0000000000492a90 f   handler.obj
 0001:00091b00       ?ha_flush_logs@@YAHXZ      0000000000492b00 f   handler.obj
 0001:00091b50       ?ha_delete_table@@YAHPEAVTHD@@W4db_type@@PEBD2H@Z 0000000000492b50 f   handler.obj
 0001:00091fe0       ?clone@handler@@UEAAPEAV1@PEAUst_mem_root@@@Z 0000000000492fe0 f   handler.obj
 0001:00092090       ?ha_open@handler@@QEAAHPEBDHH@Z 0000000000493090 f   handler.obj
 0001:00092420       ?read_first_row@handler@@UEAAHPEAEI@Z 0000000000493420 f   handler.obj
 0001:000925d0       ?adjust_next_insert_id_after_explicit_value@handler@@QEAAX_K@Z 00000000004935d0 f   handler.obj
 0001:000926c0       ?update_auto_increment@handler@@QEAAHXZ 00000000004936c0 f   handler.obj
 0001:00092b30       ?restore_auto_increment@handler@@UEAAXXZ 0000000000493b30 f   handler.obj
 0001:00092bb0       ?get_auto_increment@handler@@UEAA_KXZ 0000000000493bb0 f   handler.obj
 0001:00092e10       ?print_error@handler@@UEAAXHH@Z 0000000000493e10 f   handler.obj
 0001:00093810       ?get_error_message@handler@@UEAAHHPEAVString@@@Z 0000000000494810 f   handler.obj
 0001:00093830       ?ha_check_for_upgrade@handler@@QEAAHPEAUst_ha_check_opt@@@Z 0000000000494830 f   handler.obj
 0001:000939c0       ?check_old_types@handler@@QEAAHXZ 00000000004949c0 f   handler.obj
 0001:00093a90       ?get_dup_key@handler@@QEAAIH@Z 0000000000494a90 f   handler.obj
 0001:00093bc0       ?delete_table@handler@@UEAAHPEBD@Z 0000000000494bc0 f   handler.obj
 0001:00093d00       ?rename_table@handler@@UEAAHPEBD0@Z 0000000000494d00 f   handler.obj
 0001:00093dc0       ?ha_check@handler@@QEAAHPEAVTHD@@PEAUst_ha_check_opt@@@Z 0000000000494dc0 f   handler.obj
 0001:00094260       ?ha_repair@handler@@QEAAHPEAVTHD@@PEAUst_ha_check_opt@@@Z 0000000000495260 f   handler.obj
 0001:000942e0       ?ha_enable_transaction@@YAHPEAVTHD@@H@Z 00000000004952e0 f   handler.obj
 0001:000943f0       ?index_next_same@handler@@UEAAHPEAEPEBEI@Z 00000000004953f0 f   handler.obj
 0001:000944a0       ?ha_create_table@@YAHPEBDPEAUst_ha_create_information@@H@Z 00000000004954a0 f   handler.obj
 0001:00094710       ?ha_create_table_from_engine@@YAHPEAVTHD@@PEBD1@Z 0000000000495710 f   handler.obj
 0001:00094ae0       ?init@st_ha_check_opt@@QEAAXXZ 0000000000495ae0 f   handler.obj
 0001:00094b40       ?ha_init_key_cache@@YAHPEBDPEAUst_key_cache@@@Z 0000000000495b40 f   handler.obj
 0001:00094d00       ?ha_resize_key_cache@@YAHPEAUst_key_cache@@@Z 0000000000495d00 f   handler.obj
 0001:00094eb0       ?ha_change_key_cache_param@@YAHPEAUst_key_cache@@@Z 0000000000495eb0 f   handler.obj
 0001:00094f40       ?ha_end_key_cache@@YAHPEAUst_key_cache@@@Z 0000000000495f40 f   handler.obj
 0001:00094f80       ?ha_change_key_cache@@YAHPEAUst_key_cache@@0@Z 0000000000495f80 f   handler.obj
 0001:00094fd0       ?ha_discover@@YAHPEAVTHD@@PEBD1PEAPEBXPEAI@Z 0000000000495fd0 f   handler.obj
 0001:00095140       ?ha_find_files@@YAHPEAVTHD@@PEBD11HPEAV?$List@D@@@Z 0000000000496140 f   handler.obj
 0001:00095260       ?ha_table_exists_in_engine@@YAHPEAVTHD@@PEBD1@Z 0000000000496260 f   handler.obj
 0001:000953a0       ?read_multi_range_first@handler@@UEAAHPEAPEAUst_key_multi_range@@PEAU2@IHPEAUst_handler_buffer@@@Z 00000000004963a0 f   handler.obj
 0001:00095670       ?read_multi_range_next@handler@@UEAAHPEAPEAUst_key_multi_range@@@Z 0000000000496670 f   handler.obj
 0001:000959a0       ?read_range_first@handler@@UEAAHPEBUst_key_range@@0HH@Z 00000000004969a0 f   handler.obj
 0001:00095cd0       ?read_range_next@handler@@UEAAHXZ 0000000000496cd0 f   handler.obj
 0001:00095ed0       ?compare_key@handler@@QEAAHPEAUst_key_range@@@Z 0000000000496ed0 f   handler.obj
 0001:00095f50       ?index_read_idx@handler@@UEAAHPEAEIPEBEIW4ha_rkey_function@@@Z 0000000000496f50 f   handler.obj
 0001:00095ff0       ?ha_known_exts@@YAPEAUst_typelib@@XZ 0000000000496ff0 f   handler.obj
 0001:000983c0       ??2Sql_alloc@@SAPEAX_KPEAUst_mem_root@@@Z 00000000004993c0 f i handler.obj
 0001:00098410       ??3Sql_alloc@@SAXPEAXPEAUst_mem_root@@@Z 0000000000499410 f i handler.obj
 0001:00098420       ?set@xid_t@@QEAAX_K@Z      0000000000499420 f i handler.obj
 0001:00098500       ?set@xid_t@@QEAAXJJPEBD@Z  0000000000499500 f i handler.obj
 0001:000985a0       ?is_null@xid_t@@QEAAHXZ    00000000004995a0 f i handler.obj
 0001:00098600       ?get_my_xid@xid_t@@QEAA_KXZ 0000000000499600 f i handler.obj
 0001:000986d0       ?quick_get_my_xid@xid_t@@QEAA_KXZ 00000000004996d0 f i handler.obj
 0001:00098750       ?null@xid_t@@QEAAXXZ       0000000000499750 f i handler.obj
 0001:00098770       ?cleanup@st_transactions@THD@@QEAAXXZ 0000000000499770 f i handler.obj
 0001:000987f0       ??0Item_int@@QEAA@PEBD_JI@Z 00000000004997f0 f i handler.obj
 0001:000988a0       ??0Item_num@@QEAA@XZ       00000000004998a0 f i handler.obj
 0001:00098900       ??_GItem_num@@UEAAPEAXI@Z  0000000000499900 f i handler.obj
 0001:00098900       ??_EItem_num@@UEAAPEAXI@Z  0000000000499900 f i handler.obj
 0001:00098970       ??1Item_num@@UEAA@XZ       0000000000499970 f i handler.obj
 0001:000989b0       ?type@Item_int@@UEBA?AW4Type@Item@@XZ 00000000004999b0 f i handler.obj
 0001:000989c0       ?result_type@Item_int@@UEBA?AW4Item_result@@XZ 00000000004999c0 f i handler.obj
 0001:000989d0       ?field_type@Item_int@@UEBA?AW4enum_field_types@@XZ 00000000004999d0 f i handler.obj
 0001:000989e0       ?val_int@Item_int@@UEAA_JXZ 00000000004999e0 f i handler.obj
 0001:00098a60       ?val_real@Item_int@@UEAANXZ 0000000000499a60 f i handler.obj
 0001:00098ae0       ?basic_const_item@Item_int@@UEBAHXZ 0000000000499ae0 f i handler.obj
 0001:00098af0       ?clone_item@Item_int@@UEAAPEAVItem@@XZ 0000000000499af0 f i handler.obj
 0001:00098be0       ?cleanup@Item_int@@UEAAXXZ 0000000000499be0 f i handler.obj
 0001:00098bf0       ?neg@Item_int@@UEAAPEAVItem_num@@XZ 0000000000499bf0 f i handler.obj
 0001:00098c20       ?decimal_precision@Item_int@@UEBAIXZ 0000000000499c20 f i handler.obj
 0001:00098c90       ??_GItem_int@@UEAAPEAXI@Z  0000000000499c90 f i handler.obj
 0001:00098c90       ??_EItem_int@@UEAAPEAXI@Z  0000000000499c90 f i handler.obj
 0001:00098d00       ??1Item_int@@UEAA@XZ       0000000000499d00 f i handler.obj
 0001:00098d40       ??0st_table@@QEAA@XZ       0000000000499d40 f i handler.obj
 0001:00098df0       ??0st_table_share@@QEAA@XZ 0000000000499df0 f i handler.obj
 0001:00098e60       ?ha_index_init@handler@@QEAAHI@Z 0000000000499e60 f i handler.obj
 0001:00098fb0       ?ha_index_end@handler@@QEAAHXZ 0000000000499fb0 f i handler.obj
 0001:00099100       ?next_insert_id@@YA_K_KPEAUsystem_variables@@@Z 000000000049a100 f i handler.obj
 0001:00099180       ?prev_insert_id@@YA_K_KPEAUsystem_variables@@@Z 000000000049a180 f i handler.obj
 0001:00099290       ?is_empty@String@@QEAAHXZ  000000000049a290 f i handler.obj
 0001:000992f0       ?c_ptr_safe@String@@QEAAPEADXZ 000000000049a2f0 f i handler.obj
 0001:00099390       ??1?$List@D@@QEAA@XZ       000000000049a390 f i handler.obj
 0001:000993d0       ??0?$List@D@@QEAA@XZ       000000000049a3d0 f i handler.obj
 0001:00099420       ?push_back@?$List@D@@QEAAHPEAD@Z 000000000049a420 f i handler.obj
 0001:00099470       ??0?$List_iterator_fast@D@@QEAA@AEAV?$List@D@@@Z 000000000049a470 f i handler.obj
 0001:000994d0       ??E?$List_iterator_fast@D@@QEAAPEADH@Z 000000000049a4d0 f i handler.obj
 0001:00099520       ?next_fast@base_list_iterator@@QEAAPEAXXZ 000000000049a520 f i handler.obj
 0001:00099590       ?rewind@?$List_iterator_fast@D@@QEAAXXZ 000000000049a590 f i handler.obj
 0001:000995d0       ?rewind@base_list_iterator@@QEAAXXZ 000000000049a5d0 f i handler.obj
 0001:000995f0       ?hostname_cache_refresh@@YAXXZ 000000000049a5f0 f   hostname.obj
 0001:00099630       ?hostname_cache_init@@YAHXZ 000000000049a630 f   hostname.obj
 0001:000997b0       ?hostname_cache_free@@YAXXZ 000000000049a7b0 f   hostname.obj
 0001:00099840       ?inc_host_errors@@YAXPEAUin_addr@@@Z 000000000049a840 f   hostname.obj
 0001:000998d0       ?reset_host_errors@@YAXPEAUin_addr@@@Z 000000000049a8d0 f   hostname.obj
 0001:00099960       ?ip_to_hostname@@YAPEADPEAUin_addr@@PEAI@Z 000000000049a960 f   hostname.obj
 0001:0009a370       ?clear@hash_filo@@QEAAXH@Z 000000000049b370 f i hostname.obj
 0001:0009a4e0       ??0hash_filo@@QEAA@IIIP6APEAEPEBEPEAID@ZP6AXPEAX@ZPEAUcharset_info_st@@@Z 000000000049b4e0 f i hostname.obj
 0001:0009a5c0       ??0host_entry@@QEAA@XZ     000000000049b5c0 f i hostname.obj
 0001:0009a610       ??0hash_filo_element@@QEAA@XZ 000000000049b610 f i hostname.obj
 0001:0009a620       ??_Ghash_filo@@QEAAPEAXI@Z 000000000049b620 f i hostname.obj
 0001:0009a690       ??1hash_filo@@QEAA@XZ      000000000049b690 f i hostname.obj
 0001:0009a710       ?search@hash_filo@@QEAAPEAVhash_filo_element@@PEADI@Z 000000000049b710 f i hostname.obj
 0001:0009a860       ?add@hash_filo@@QEAADPEAVhash_filo_element@@@Z 000000000049b860 f i hostname.obj
 0001:0009a9b0       ?add_wrong_ip@@YAXPEAUin_addr@@@Z 000000000049b9b0 f i hostname.obj
 0001:0009aa00       ?unireg_init@@YAXK@Z       000000000049ba00 f   init.obj
 0001:0009ab70       ?fix_length_and_dec@Hybrid_type_traits@@UEBAXPEAVItem@@0@Z 000000000049bb70 f   item.obj
 0001:0009abd0       ?instance@Hybrid_type_traits@@SAPEBU1@XZ 000000000049bbd0 f   item.obj
 0001:0009abf0       ?val_decimal@Hybrid_type_traits@@UEBAPEAVmy_decimal@@PEAUHybrid_type@@PEAV2@@Z 000000000049bbf0 f   item.obj
 0001:0009ac60       ?val_str@Hybrid_type_traits@@UEBAPEAVString@@PEAUHybrid_type@@PEAV2@E@Z 000000000049bc60 f   item.obj
 0001:0009acd0       ?instance@Hybrid_type_traits_decimal@@SAPEBU1@XZ 000000000049bcd0 f   item.obj
 0001:0009acf0       ?fix_length_and_dec@Hybrid_type_traits_decimal@@UEBAXPEAVItem@@0@Z 000000000049bcf0 f   item.obj
 0001:0009ad70       ?set_zero@Hybrid_type_traits_decimal@@UEBAXPEAUHybrid_type@@@Z 000000000049bd70 f   item.obj
 0001:0009add0       ?add@Hybrid_type_traits_decimal@@UEBAXPEAUHybrid_type@@PEAVField@@@Z 000000000049bdd0 f   item.obj
 0001:0009aea0       ?div@Hybrid_type_traits_decimal@@UEBAXPEAUHybrid_type@@_K@Z 000000000049bea0 f   item.obj
 0001:0009af70       ?val_int@Hybrid_type_traits_decimal@@UEBA_JPEAUHybrid_type@@H@Z 000000000049bf70 f   item.obj
 0001:0009b000       ?val_real@Hybrid_type_traits_decimal@@UEBANPEAUHybrid_type@@@Z 000000000049c000 f   item.obj
 0001:0009b080       ?val_str@Hybrid_type_traits_decimal@@UEBAPEAVString@@PEAUHybrid_type@@PEAV2@E@Z 000000000049c080 f   item.obj
 0001:0009b130       ?instance@Hybrid_type_traits_integer@@SAPEBU1@XZ 000000000049c130 f   item.obj
 0001:0009b150       ?fix_length_and_dec@Hybrid_type_traits_integer@@UEBAXPEAVItem@@0@Z 000000000049c150 f   item.obj
 0001:0009b190       ?item_init@@YAXXZ          000000000049c190 f   item.obj
 0001:0009b1c0       ?val_bool@Item@@UEAAHXZ    000000000049c1c0 f   item.obj
 0001:0009b370       ?val_string_from_real@Item@@QEAAPEAVString@@PEAV2@@Z 000000000049c370 f   item.obj
 0001:0009b400       ?val_string_from_int@Item@@QEAAPEAVString@@PEAV2@@Z 000000000049c400 f   item.obj
 0001:0009b4a0       ?val_string_from_decimal@Item@@QEAAPEAVString@@PEAV2@@Z 000000000049c4a0 f   item.obj
 0001:0009b5a0       ?val_decimal_from_real@Item@@QEAAPEAVmy_decimal@@PEAV2@@Z 000000000049c5a0 f   item.obj
 0001:0009b620       ?val_decimal_from_int@Item@@QEAAPEAVmy_decimal@@PEAV2@@Z 000000000049c620 f   item.obj
 0001:0009b6a0       ?val_decimal_from_string@Item@@QEAAPEAVmy_decimal@@PEAV2@@Z 000000000049c6a0 f   item.obj
 0001:0009b800       ?val_decimal_from_date@Item@@QEAAPEAVmy_decimal@@PEAV2@@Z 000000000049c800 f   item.obj
 0001:0009b8c0       ?val_decimal_from_time@Item@@QEAAPEAVmy_decimal@@PEAV2@@Z 000000000049c8c0 f   item.obj
 0001:0009b970       ?val_real_from_decimal@Item@@QEAANXZ 000000000049c970 f   item.obj
 0001:0009ba30       ?val_int_from_decimal@Item@@QEAA_JXZ 000000000049ca30 f   item.obj
 0001:0009baf0       ?save_time_in_field@Item@@QEAAHPEAVField@@@Z 000000000049caf0 f   item.obj
 0001:0009bb90       ?save_date_in_field@Item@@QEAAHPEAVField@@@Z 000000000049cb90 f   item.obj
 0001:0009bc30       ?save_str_value_in_field@Item@@QEAAHPEAVField@@PEAVString@@@Z 000000000049cc30 f   item.obj
 0001:0009bce0       ??0Item@@QEAA@XZ           000000000049cce0 f   item.obj
 0001:0009bec0       ??0Item@@QEAA@PEAVTHD@@PEAV0@@Z 000000000049cec0 f   item.obj
 0001:0009c040       ?decimal_precision@Item@@UEBAIXZ 000000000049d040 f   item.obj
 0001:0009c120       ?print_item_w_name@Item@@QEAAXPEAVString@@@Z 000000000049d120 f   item.obj
 0001:0009c1d0       ?cleanup@Item@@UEAAXXZ     000000000049d1d0 f   item.obj
 0001:0009c2c0       ?cleanup_processor@Item@@UEAAHPEAE@Z 000000000049d2c0 f   item.obj
 0001:0009c320       ?rename@Item@@QEAAXPEAD@Z  000000000049d320 f   item.obj
 0001:0009c370       ?transform@Item@@UEAAPEAV1@P81@EAAPEAV1@PEAE@Z0@Z 000000000049d370 f   item.obj
 0001:0009c3f0       ??0Item_ident@@QEAA@PEAUName_resolution_context@@PEBD11@Z 000000000049d3f0 f   item.obj
 0001:0009c510       ??0Item_ident@@QEAA@PEAVTHD@@PEAV0@@Z 000000000049d510 f   item.obj
 0001:0009c670       ?cleanup@Item_ident@@UEAAXXZ 000000000049d670 f   item.obj
 0001:0009c7a0       ?remove_dependence_processor@Item_ident@@UEAAHPEAE@Z 000000000049d7a0 f   item.obj
 0001:0009c890       ?collect_item_field_processor@Item_field@@UEAAHPEAE@Z 000000000049d890 f   item.obj
 0001:0009ca70       ?find_item_in_field_list_processor@Item_field@@UEAAHPEAE@Z 000000000049da70 f   item.obj
 0001:0009cb20       ?check_cols@Item@@UEAAHI@Z 000000000049db20 f   item.obj
 0001:0009cb80       ?set_name@Item@@QEAAXPEBDIPEAUcharset_info_st@@@Z 000000000049db80 f   item.obj
 0001:0009ce10       ?eq@Item@@UEBAHPEBV1@H@Z   000000000049de10 f   item.obj
 0001:0009cee0       ?safe_charset_converter@Item@@UEAAPEAV1@PEAUcharset_info_st@@@Z 000000000049dee0 f   item.obj
 0001:0009cfd0       ?safe_charset_converter@Item_num@@UEAAPEAVItem@@PEAUcharset_info_st@@@Z 000000000049dfd0 f   item.obj
 0001:0009d210       ?safe_charset_converter@Item_static_float_func@@UEAAPEAVItem@@PEAUcharset_info_st@@@Z 000000000049e210 f   item.obj
 0001:0009d450       ?safe_charset_converter@Item_string@@UEAAPEAVItem@@PEAUcharset_info_st@@@Z 000000000049e450 f   item.obj
 0001:0009d750       ?safe_charset_converter@Item_param@@UEAAPEAVItem@@PEAUcharset_info_st@@@Z 000000000049e750 f   item.obj
 0001:0009d8d0       ?safe_charset_converter@Item_static_string_func@@UEAAPEAVItem@@PEAUcharset_info_st@@@Z 000000000049e8d0 f   item.obj
 0001:0009dbe0       ?eq@Item_string@@UEBAHPEBVItem@@H@Z 000000000049ebe0 f   item.obj
 0001:0009dd00       ?get_date@Item@@UEAAHPEAUst_mysql_time@@I@Z 000000000049ed00 f   item.obj
 0001:0009df60       ?get_time@Item@@UEAAHPEAUst_mysql_time@@@Z 000000000049ef60 f   item.obj
 0001:0009e0f0       ?default_charset@Item@@SAPEAUcharset_info_st@@XZ 000000000049f0f0 f   item.obj
 0001:0009e130       ?save_in_field_no_warnings@Item@@QEAAHPEAVField@@H@Z 000000000049f130 f   item.obj
 0001:0009e1d0       ??0Item_sp_variable@@QEAA@PEADI@Z 000000000049f1d0 f   item.obj
 0001:0009e270       ?fix_fields@Item_sp_variable@@UEAAHPEAVTHD@@PEAPEAVItem@@@Z 000000000049f270 f   item.obj
 0001:0009e360       ?val_real@Item_sp_variable@@UEAANXZ 000000000049f360 f   item.obj
 0001:0009e400       ?val_int@Item_sp_variable@@UEAA_JXZ 000000000049f400 f   item.obj
 0001:0009e4a0       ?val_str@Item_sp_variable@@UEAAPEAVString@@PEAV2@@Z 000000000049f4a0 f   item.obj
 0001:0009e5c0       ?val_decimal@Item_sp_variable@@UEAAPEAVmy_decimal@@PEAV2@@Z 000000000049f5c0 f   item.obj
 0001:0009e670       ?is_null@Item_sp_variable@@UEAAHXZ 000000000049f670 f   item.obj
 0001:0009e6d0       ??0Item_splocal@@QEAA@AEBUst_lex_string@@IW4enum_field_types@@II@Z 000000000049f6d0 f   item.obj
 0001:0009e840       ?this_item@Item_splocal@@UEAAPEAVItem@@XZ 000000000049f840 f   item.obj
 0001:0009e8d0       ?this_item@Item_splocal@@UEBAPEBVItem@@XZ 000000000049f8d0 f   item.obj
 0001:0009e960       ?this_item_addr@Item_splocal@@UEAAPEAPEAVItem@@PEAVTHD@@PEAPEAV2@@Z 000000000049f960 f   item.obj
 0001:0009e9f0       ?print@Item_splocal@@UEAAXPEAVString@@@Z 000000000049f9f0 f   item.obj
 0001:0009ea80       ?set_value@Item_splocal@@EEAAHPEAVTHD@@PEAVsp_rcontext@@PEAPEAVItem@@@Z 000000000049fa80 f   item.obj
 0001:0009eaf0       ??0Item_case_expr@@QEAA@H@Z 000000000049faf0 f   item.obj
 0001:0009eb60       ?this_item@Item_case_expr@@UEAAPEAVItem@@XZ 000000000049fb60 f   item.obj
 0001:0009ebf0       ?this_item@Item_case_expr@@UEBAPEBVItem@@XZ 000000000049fbf0 f   item.obj
 0001:0009ec80       ?this_item_addr@Item_case_expr@@UEAAPEAPEAVItem@@PEAVTHD@@PEAPEAV2@@Z 000000000049fc80 f   item.obj
 0001:0009ed10       ?print@Item_case_expr@@UEAAXPEAVString@@@Z 000000000049fd10 f   item.obj
 0001:0009ed70       ?val_real@Item_name_const@@UEAANXZ 000000000049fd70 f   item.obj
 0001:0009ee00       ?val_int@Item_name_const@@UEAA_JXZ 000000000049fe00 f   item.obj
 0001:0009ee90       ?val_str@Item_name_const@@UEAAPEAVString@@PEAV2@@Z 000000000049fe90 f   item.obj
 0001:0009ef30       ?val_decimal@Item_name_const@@UEAAPEAVmy_decimal@@PEAV2@@Z 000000000049ff30 f   item.obj
 0001:0009efd0       ?is_null@Item_name_const@@UEAAHXZ 000000000049ffd0 f   item.obj
 0001:0009f020       ?type@Item_name_const@@UEBA?AW4Type@Item@@XZ 00000000004a0020 f   item.obj
 0001:0009f070       ?fix_fields@Item_name_const@@UEAAHPEAVTHD@@PEAPEAVItem@@@Z 00000000004a0070 f   item.obj
 0001:0009f3a0       ?print@Item_name_const@@UEAAXPEAVString@@@Z 00000000004a03a0 f   item.obj
 0001:0009f450       ?split_sum_func2@Item@@QEAAXPEAVTHD@@PEAPEAV1@AEAV?$List@VItem@@@@1H@Z 00000000004a0450 f   item.obj
 0001:0009f790       ?aggregate@DTCollation@@QEAAHAEAV1@I@Z 00000000004a0790 f   item.obj
 0001:0009faf0       ?agg_item_collations@@YAHAEAVDTCollation@@PEBDPEAPEAVItem@@IIH@Z 00000000004a0af0 f   item.obj
 0001:0009fe80       ?agg_item_collations_for_comparison@@YAHAEAVDTCollation@@PEBDPEAPEAVItem@@II@Z 00000000004a0e80 f   item.obj
 0001:0009fef0       ?agg_item_charsets@@YAHAEAVDTCollation@@PEBDPEAPEAVItem@@IIH@Z 00000000004a0ef0 f   item.obj
 0001:000a0350       ?make_field@Item_ident_for_show@@UEAAXPEAVSend_field@@@Z 00000000004a1350 f   item.obj
 0001:000a04b0       ??0Item_field@@QEAA@PEAVField@@@Z 00000000004a14b0 f   item.obj
 0001:000a05d0       ??0Item_field@@QEAA@PEAVTHD@@PEAUName_resolution_context@@PEAVField@@@Z 00000000004a15d0 f   item.obj
 0001:000a07a0       ??0Item_field@@QEAA@PEAUName_resolution_context@@PEBD11@Z 00000000004a17a0 f   item.obj
 0001:000a0900       ??0Item_field@@QEAA@PEAVTHD@@PEAV0@@Z 00000000004a1900 f   item.obj
 0001:000a0a40       ?set_field@Item_field@@IEAAXPEAVField@@@Z 00000000004a1a40 f   item.obj
 0001:000a0c10       ?reset_field@Item_field@@QEAAXPEAVField@@@Z 00000000004a1c10 f   item.obj
 0001:000a0c70       ?full_name@Item_ident@@UEBAPEBDXZ 00000000004a1c70 f   item.obj
 0001:000a0ed0       ?print@Item_ident@@UEAAXPEAVString@@@Z 00000000004a1ed0 f   item.obj
 0001:000a1390       ?val_str@Item_field@@UEAAPEAVString@@PEAV2@@Z 00000000004a2390 f   item.obj
 0001:000a1480       ?val_real@Item_field@@UEAANXZ 00000000004a2480 f   item.obj
 0001:000a1530       ?val_int@Item_field@@UEAA_JXZ 00000000004a2530 f   item.obj
 0001:000a15e0       ?val_decimal@Item_field@@UEAAPEAVmy_decimal@@PEAV2@@Z 00000000004a25e0 f   item.obj
 0001:000a1670       ?str_result@Item_field@@UEAAPEAVString@@PEAV2@@Z 00000000004a2670 f   item.obj
 0001:000a1740       ?get_date@Item_field@@UEAAHPEAUst_mysql_time@@I@Z 00000000004a2740 f   item.obj
 0001:000a17f0       ?get_date_result@Item_field@@UEAAHPEAUst_mysql_time@@I@Z 00000000004a27f0 f   item.obj
 0001:000a18a0       ?get_time@Item_field@@UEAAHPEAUst_mysql_time@@@Z 00000000004a28a0 f   item.obj
 0001:000a1950       ?val_result@Item_field@@UEAANXZ 00000000004a2950 f   item.obj
 0001:000a19d0       ?val_int_result@Item_field@@UEAA_JXZ 00000000004a29d0 f   item.obj
 0001:000a1a50       ?val_decimal_result@Item_field@@UEAAPEAVmy_decimal@@PEAV2@@Z 00000000004a2a50 f   item.obj
 0001:000a1ae0       ?val_bool_result@Item_field@@UEAAHXZ 00000000004a2ae0 f   item.obj
 0001:000a1d00       ?eq@Item_field@@UEBAHPEBVItem@@H@Z 00000000004a2d00 f   item.obj
 0001:000a1ec0       ?used_tables@Item_field@@UEBA_KXZ 00000000004a2ec0 f   item.obj
 0001:000a1f50       ?get_tmp_table_item@Item_field@@UEAAPEAVItem@@PEAVTHD@@@Z 00000000004a2f50 f   item.obj
 0001:000a2030       ??0Item_int@@QEAA@PEBDI@Z  00000000004a3030 f   item.obj
 0001:000a2100       ?val_decimal@Item_int@@UEAAPEAVmy_decimal@@PEAV2@@Z 00000000004a3100 f   item.obj
 0001:000a2160       ?val_str@Item_int@@UEAAPEAVString@@PEAV2@@Z 00000000004a3160 f   item.obj
 0001:000a21e0       ?print@Item_int@@UEAAXPEAVString@@@Z 00000000004a31e0 f   item.obj
 0001:000a2250       ??0Item_uint@@QEAA@PEBDI@Z 00000000004a3250 f   item.obj
 0001:000a22c0       ??0Item_uint@@QEAA@PEBD_JI@Z 00000000004a32c0 f   item.obj
 0001:000a2340       ?val_str@Item_uint@@UEAAPEAVString@@PEAV2@@Z 00000000004a3340 f   item.obj
 0001:000a23c0       ?print@Item_uint@@UEAAXPEAVString@@@Z 00000000004a33c0 f   item.obj
 0001:000a2430       ??0Item_decimal@@QEAA@PEBDIPEAUcharset_info_st@@@Z 00000000004a3430 f   item.obj
 0001:000a2560       ??0Item_decimal@@QEAA@_JH@Z 00000000004a3560 f   item.obj
 0001:000a2670       ??0Item_decimal@@QEAA@NHH@Z 00000000004a3670 f   item.obj
 0001:000a2780       ??0Item_decimal@@QEAA@PEBDPEBVmy_decimal@@II@Z 00000000004a3780 f   item.obj
 0001:000a2870       ??0Item_decimal@@QEAA@PEAVmy_decimal@@@Z 00000000004a3870 f   item.obj
 0001:000a2970       ??0Item_decimal@@QEAA@PEBDHH@Z 00000000004a3970 f   item.obj
 0001:000a2a80       ?val_int@Item_decimal@@UEAA_JXZ 00000000004a3a80 f   item.obj
 0001:000a2af0       ?val_real@Item_decimal@@UEAANXZ 00000000004a3af0 f   item.obj
 0001:000a2b60       ?val_str@Item_decimal@@UEAAPEAVString@@PEAV2@@Z 00000000004a3b60 f   item.obj
 0001:000a2be0       ?print@Item_decimal@@UEAAXPEAVString@@@Z 00000000004a3be0 f   item.obj
 0001:000a2c60       ?eq@Item_decimal@@UEBAHPEBVItem@@H@Z 00000000004a3c60 f   item.obj
 0001:000a2d40       ?set_decimal_value@Item_decimal@@QEAAXPEAVmy_decimal@@@Z 00000000004a3d40 f   item.obj
 0001:000a2e00       ?val_str@Item_float@@UEAAPEAVString@@PEAV2@@Z 00000000004a3e00 f   item.obj
 0001:000a2e90       ?val_decimal@Item_float@@UEAAPEAVmy_decimal@@PEAV2@@Z 00000000004a3e90 f   item.obj
 0001:000a2f10       ?print@Item_string@@UEAAXPEAVString@@@Z 00000000004a3f10 f   item.obj
 0001:000a2fa0       ?val_real@Item_string@@UEAANXZ 00000000004a3fa0 f   item.obj
 0001:000a3220       ?val_int@Item_string@@UEAA_JXZ 00000000004a4220 f   item.obj
 0001:000a33d0       ?val_decimal@Item_string@@UEAAPEAVmy_decimal@@PEAV2@@Z 00000000004a43d0 f   item.obj
 0001:000a3420       ?eq@Item_null@@UEBAHPEBVItem@@H@Z 00000000004a4420 f   item.obj
 0001:000a34b0       ?val_real@Item_null@@UEAANXZ 00000000004a44b0 f   item.obj
 0001:000a3520       ?val_int@Item_null@@UEAA_JXZ 00000000004a4520 f   item.obj
 0001:000a3590       ?val_str@Item_null@@UEAAPEAVString@@PEAV2@@Z 00000000004a4590 f   item.obj
 0001:000a3600       ?val_decimal@Item_null@@UEAAPEAVmy_decimal@@PEAV2@@Z 00000000004a4600 f   item.obj
 0001:000a3620       ?safe_charset_converter@Item_null@@UEAAPEAVItem@@PEAUcharset_info_st@@@Z 00000000004a4620 f   item.obj
 0001:000a3670       ??0Item_param@@QEAA@I@Z    00000000004a4670 f   item.obj
 0001:000a3930       ?set_null@Item_param@@QEAAXXZ 00000000004a4930 f   item.obj
 0001:000a3a30       ?set_int@Item_param@@QEAAX_JK@Z 00000000004a4a30 f   item.obj
 0001:000a3b40       ?set_double@Item_param@@QEAAXN@Z 00000000004a4b40 f   item.obj
 0001:000a3c50       ?set_decimal@Item_param@@QEAAXPEBDK@Z 00000000004a4c50 f   item.obj
 0001:000a3de0       ?set_time@Item_param@@QEAAXPEAUst_mysql_time@@W4enum_mysql_timestamp_type@@K@Z 00000000004a4de0 f   item.obj
 0001:000a4040       ?set_str@Item_param@@QEAAHPEBDK@Z 00000000004a5040 f   item.obj
 0001:000a41a0       ?set_longdata@Item_param@@QEAAHPEBDK@Z 00000000004a51a0 f   item.obj
 0001:000a42e0       ?set_from_user_var@Item_param@@QEAAHPEAVTHD@@PEBVuser_var_entry@@@Z 00000000004a52e0 f   item.obj
 0001:000a46f0       ?reset@Item_param@@QEAAXXZ 00000000004a56f0 f   item.obj
 0001:000a4870       ?save_in_field@Item_param@@UEAAHPEAVField@@H@Z 00000000004a5870 f   item.obj
 0001:000a4a70       ?get_time@Item_param@@UEAAHPEAUst_mysql_time@@@Z 00000000004a5a70 f   item.obj
 0001:000a4b00       ?get_date@Item_param@@UEAAHPEAUst_mysql_time@@I@Z 00000000004a5b00 f   item.obj
 0001:000a4ba0       ?val_real@Item_param@@UEAANXZ 00000000004a5ba0 f   item.obj
 0001:000a4db0       ?val_int@Item_param@@UEAA_JXZ 00000000004a5db0 f   item.obj
 0001:000a4fa0       ?val_decimal@Item_param@@UEAAPEAVmy_decimal@@PEAV2@@Z 00000000004a5fa0 f   item.obj
 0001:000a5110       ?val_str@Item_param@@UEAAPEAVString@@PEAV2@@Z 00000000004a6110 f   item.obj
 0001:000a52d0       ?query_val_str@Item_param@@QEBAPEBVString@@PEAV2@@Z 00000000004a62d0 f   item.obj
 0001:000a5500       ?convert_str_value@Item_param@@QEAAHPEAVTHD@@@Z 00000000004a6500 f   item.obj
 0001:000a5670       ?basic_const_item@Item_param@@UEBAHXZ 00000000004a6670 f   item.obj
 0001:000a56b0       ?clone_item@Item_param@@UEAAPEAVItem@@XZ 00000000004a66b0 f   item.obj
 0001:000a5b50       ?eq@Item_param@@UEBAHPEBVItem@@H@Z 00000000004a6b50 f   item.obj
 0001:000a5d60       ?print@Item_param@@UEAAXPEAVString@@@Z 00000000004a6d60 f   item.obj
 0001:000a5e90       ?copy@Item_copy_string@@QEAAXXZ 00000000004a6e90 f   item.obj
 0001:000a5f50       ?val_str@Item_copy_string@@UEAAPEAVString@@PEAV2@@Z 00000000004a6f50 f   item.obj
 0001:000a5f80       ?val_decimal@Item_copy_string@@UEAAPEAVmy_decimal@@PEAV2@@Z 00000000004a6f80 f   item.obj
 0001:000a5ff0       ?fix_fields@Item@@UEAAHPEAVTHD@@PEAPEAV1@@Z 00000000004a6ff0 f   item.obj
 0001:000a6080       ?val_real@Item_ref_null_helper@@UEAANXZ 00000000004a7080 f   item.obj
 0001:000a6160       ?val_int@Item_ref_null_helper@@UEAA_JXZ 00000000004a7160 f   item.obj
 0001:000a6240       ?val_decimal@Item_ref_null_helper@@UEAAPEAVmy_decimal@@PEAV2@@Z 00000000004a7240 f   item.obj
 0001:000a6320       ?val_bool@Item_ref_null_helper@@UEAAHXZ 00000000004a7320 f   item.obj
 0001:000a6400       ?val_str@Item_ref_null_helper@@UEAAPEAVString@@PEAV2@@Z 00000000004a7400 f   item.obj
 0001:000a64e0       ?get_date@Item_ref_null_helper@@UEAAHPEAUst_mysql_time@@I@Z 00000000004a74e0 f   item.obj
 0001:000a65a0       ?mark_select_range_as_dependent@@YAXPEAVTHD@@PEAVst_select_lex@@1PEAVField@@PEAVItem@@PEAVItem_ident@@@Z 00000000004a75a0 f   item.obj
 0001:000a69f0       ?fix_outer_field@Item_field@@QEAAHPEAVTHD@@PEAPEAVField@@PEAPEAVItem@@@Z 00000000004a79f0 f   item.obj
 0001:000a8150       ?fix_fields@Item_field@@UEAAHPEAVTHD@@PEAPEAVItem@@@Z 00000000004a9150 f   item.obj
 0001:000a8a90       ?safe_charset_converter@Item_field@@UEAAPEAVItem@@PEAUcharset_info_st@@@Z 00000000004a9a90 f   item.obj
 0001:000a8af0       ?cleanup@Item_field@@UEAAXXZ 00000000004a9af0 f   item.obj
 0001:000a8be0       ?find_item_equal@Item_field@@QEAAPEAVItem_equal@@PEAVCOND_EQUAL@@@Z 00000000004a9be0 f   item.obj
 0001:000a8cb0       ?subst_argument_checker@Item_field@@UEAAHPEAPEAE@Z 00000000004a9cb0 f   item.obj
 0001:000a8d20       ?equal_fields_propagator@Item_field@@UEAAPEAVItem@@PEAE@Z 00000000004a9d20 f   item.obj
 0001:000a8df0       ?set_no_const_sub@Item_field@@UEAAHPEAE@Z 00000000004a9df0 f   item.obj
 0001:000a8e70       ?replace_equal_field@Item_field@@UEAAPEAVItem@@PEAE@Z 00000000004a9e70 f   item.obj
 0001:000a8f60       ?init_make_field@Item@@QEAAXPEAVSend_field@@W4enum_field_types@@@Z 00000000004a9f60 f   item.obj
 0001:000a90b0       ?make_field@Item@@UEAAXPEAVSend_field@@@Z 00000000004aa0b0 f   item.obj
 0001:000a9110       ?make_field@Item_empty_string@@UEAAXPEAVSend_field@@@Z 00000000004aa110 f   item.obj
 0001:000a9190       ?field_type@Item@@UEBA?AW4enum_field_types@@XZ 00000000004aa190 f   item.obj
 0001:000a9240       ?is_datetime@Item@@QEAAHXZ 00000000004aa240 f   item.obj
 0001:000a92b0       ?make_string_field@Item@@QEAAPEAVField@@PEAUst_table@@@Z 00000000004aa2b0 f   item.obj
 0001:000a95d0       ?tmp_table_field_from_field_type@Item@@QEAAPEAVField@@PEAUst_table@@@Z 00000000004aa5d0 f   item.obj
 0001:000aa710       ?make_field@Item_field@@UEAAXPEAVSend_field@@@Z 00000000004ab710 f   item.obj
 0001:000aa800       ?save_org_in_field@Item_field@@UEAAXPEAVField@@@Z 00000000004ab800 f   item.obj
 0001:000aa890       ?save_in_field@Item_field@@UEAAHPEAVField@@H@Z 00000000004ab890 f   item.obj
 0001:000aa930       ?save_in_field@Item_null@@UEAAHPEAVField@@H@Z 00000000004ab930 f   item.obj
 0001:000aa980       ?save_safe_in_field@Item_null@@UEAAHPEAVField@@@Z 00000000004ab980 f   item.obj
 0001:000aa9c0       ?save_in_field@Item@@UEAAHPEAVField@@H@Z 00000000004ab9c0 f   item.obj
 0001:000aadb0       ?save_in_field@Item_string@@UEAAHPEAVField@@H@Z 00000000004abdb0 f   item.obj
 0001:000aae30       ?save_in_field@Item_uint@@UEAAHPEAVField@@H@Z 00000000004abe30 f   item.obj
 0001:000aae80       ?save_in_field@Item_int@@UEAAHPEAVField@@H@Z 00000000004abe80 f   item.obj
 0001:000aaf20       ?save_in_field@Item_decimal@@UEAAHPEAVField@@H@Z 00000000004abf20 f   item.obj
 0001:000aaf90       ?eq@Item_int@@UEBAHPEBVItem@@H@Z 00000000004abf90 f   item.obj
 0001:000ab070       ?clone_item@Item_int_with_ref@@UEAAPEAVItem@@XZ 00000000004ac070 f   item.obj
 0001:000ab2b0       ?neg@Item_uint@@UEAAPEAVItem_num@@XZ 00000000004ac2b0 f   item.obj
 0001:000ab380       ??0Item_float@@QEAA@PEBDI@Z 00000000004ac380 f   item.obj
 0001:000ab650       ?save_in_field@Item_float@@UEAAHPEAVField@@H@Z 00000000004ac650 f   item.obj
 0001:000ab6e0       ?print@Item_float@@UEAAXPEAVString@@@Z 00000000004ac6e0 f   item.obj
 0001:000ab820       ?eq@Item_float@@UEBAHPEBVItem@@H@Z 00000000004ac820 f   item.obj
 0001:000ab8f0       ??0Item_hex_string@@QEAA@PEBDI@Z 00000000004ac8f0 f   item.obj
 0001:000abae0       ?val_int@Item_hex_string@@UEAA_JXZ 00000000004acae0 f   item.obj
 0001:000abc10       ?val_decimal@Item_hex_string@@UEAAPEAVmy_decimal@@PEAV2@@Z 00000000004acc10 f   item.obj
 0001:000abca0       ?save_in_field@Item_hex_string@@UEAAHPEAVField@@H@Z 00000000004acca0 f   item.obj
 0001:000abe50       ?eq@Item_hex_string@@UEBAHPEBVItem@@H@Z 00000000004ace50 f   item.obj
 0001:000abf60       ?safe_charset_converter@Item_hex_string@@UEAAPEAVItem@@PEAUcharset_info_st@@@Z 00000000004acf60 f   item.obj
 0001:000ac160       ??0Item_bin_string@@QEAA@PEBDI@Z 00000000004ad160 f   item.obj
 0001:000ac340       ?send@Item_null@@UEAAHPEAVProtocol@@PEAVString@@@Z 00000000004ad340 f   item.obj
 0001:000ac390       ?send@Item@@UEAAHPEAVProtocol@@PEAVString@@@Z 00000000004ad390 f   item.obj
 0001:000ac880       ?send@Item_field@@UEAAHPEAVProtocol@@PEAVString@@@Z 00000000004ad880 f   item.obj
 0001:000ac8e0       ?update_null_value@Item_field@@UEAAXXZ 00000000004ad8e0 f   item.obj
 0001:000ac960       ?update_value_transformer@Item_field@@UEAAPEAVItem@@PEAE@Z 00000000004ad960 f   item.obj
 0001:000acb50       ?print@Item_field@@UEAAXPEAVString@@@Z 00000000004adb50 f   item.obj
 0001:000accd0       ??0Item_ref@@QEAA@PEAUName_resolution_context@@PEAPEAVItem@@PEBD2H@Z 00000000004adcd0 f   item.obj
 0001:000acdf0       ?fix_fields@Item_ref@@UEAAHPEAVTHD@@PEAPEAVItem@@@Z 00000000004addf0 f   item.obj
 0001:000ad9e0       ?set_properties@Item_ref@@IEAAXXZ 00000000004ae9e0 f   item.obj
 0001:000adb30       ?cleanup@Item_ref@@UEAAXXZ 00000000004aeb30 f   item.obj
 0001:000adc00       ?print@Item_ref@@UEAAXPEAVString@@@Z 00000000004aec00 f   item.obj
 0001:000add30       ?send@Item_ref@@UEAAHPEAVProtocol@@PEAVString@@@Z 00000000004aed30 f   item.obj
 0001:000addd0       ?val_result@Item_ref@@UEAANXZ 00000000004aedd0 f   item.obj
 0001:000ade70       ?val_int_result@Item_ref@@UEAA_JXZ 00000000004aee70 f   item.obj
 0001:000adf10       ?str_result@Item_ref@@UEAAPEAVString@@PEAV2@@Z 00000000004aef10 f   item.obj
 0001:000ae000       ?val_decimal_result@Item_ref@@UEAAPEAVmy_decimal@@PEAV2@@Z 00000000004af000 f   item.obj
 0001:000ae0b0       ?val_bool_result@Item_ref@@UEAAHXZ 00000000004af0b0 f   item.obj
 0001:000ae300       ?val_real@Item_ref@@UEAANXZ 00000000004af300 f   item.obj
 0001:000ae3b0       ?val_int@Item_ref@@UEAA_JXZ 00000000004af3b0 f   item.obj
 0001:000ae460       ?val_bool@Item_ref@@UEAAHXZ 00000000004af460 f   item.obj
 0001:000ae510       ?val_str@Item_ref@@UEAAPEAVString@@PEAV2@@Z 00000000004af510 f   item.obj
 0001:000ae5c0       ?is_null@Item_ref@@UEAAHXZ 00000000004af5c0 f   item.obj
 0001:000ae640       ?get_date@Item_ref@@UEAAHPEAUst_mysql_time@@I@Z 00000000004af640 f   item.obj
 0001:000ae6c0       ?val_decimal@Item_ref@@UEAAPEAVmy_decimal@@PEAV2@@Z 00000000004af6c0 f   item.obj
 0001:000ae750       ?save_in_field@Item_ref@@UEAAHPEAVField@@H@Z 00000000004af750 f   item.obj
 0001:000ae810       ?save_org_in_field@Item_ref@@UEAAXPEAVField@@@Z 00000000004af810 f   item.obj
 0001:000ae870       ?make_field@Item_ref@@UEAAXPEAVSend_field@@@Z 00000000004af870 f   item.obj
 0001:000ae940       ?get_tmp_table_item@Item_ref@@UEAAPEAVItem@@PEAVTHD@@@Z 00000000004af940 f   item.obj
 0001:000aea80       ?print@Item_ref_null_helper@@UEAAXPEAVString@@@Z 00000000004afa80 f   item.obj
 0001:000aeb20       ?val_real@Item_direct_ref@@UEAANXZ 00000000004afb20 f   item.obj
 0001:000aeba0       ?val_int@Item_direct_ref@@UEAA_JXZ 00000000004afba0 f   item.obj
 0001:000aec20       ?val_str@Item_direct_ref@@UEAAPEAVString@@PEAV2@@Z 00000000004afc20 f   item.obj
 0001:000aecb0       ?val_decimal@Item_direct_ref@@UEAAPEAVmy_decimal@@PEAV2@@Z 00000000004afcb0 f   item.obj
 0001:000aed40       ?val_bool@Item_direct_ref@@UEAAHXZ 00000000004afd40 f   item.obj
 0001:000aedc0       ?is_null@Item_direct_ref@@UEAAHXZ 00000000004afdc0 f   item.obj
 0001:000aee20       ?get_date@Item_direct_ref@@UEAAHPEAUst_mysql_time@@I@Z 00000000004afe20 f   item.obj
 0001:000aeea0       ?fix_fields@Item_direct_view_ref@@UEAAHPEAVTHD@@PEAPEAVItem@@@Z 00000000004afea0 f   item.obj
 0001:000aef80       ?fix_fields@Item_outer_ref@@UEAAHPEAVTHD@@PEAPEAVItem@@@Z 00000000004aff80 f   item.obj
 0001:000af0b0       ?eq@Item_direct_view_ref@@UEBAHPEBVItem@@H@Z 00000000004b00b0 f   item.obj
 0001:000af1b0       ?eq@Item_default_value@@UEBAHPEBVItem@@H@Z 00000000004b01b0 f   item.obj
 0001:000af250       ?fix_fields@Item_default_value@@UEAAHPEAVTHD@@PEAPEAVItem@@@Z 00000000004b0250 f   item.obj
 0001:000af4d0       ?print@Item_default_value@@UEAAXPEAVString@@@Z 00000000004b04d0 f   item.obj
 0001:000af580       ?save_in_field@Item_default_value@@UEAAHPEAVField@@H@Z 00000000004b0580 f   item.obj
 0001:000af710       ?transform@Item_default_value@@UEAAPEAVItem@@P82@EAAPEAV2@PEAE@Z0@Z 00000000004b0710 f   item.obj
 0001:000af800       ?eq@Item_insert_value@@UEBAHPEBVItem@@H@Z 00000000004b0800 f   item.obj
 0001:000af8a0       ?fix_fields@Item_insert_value@@UEAAHPEAVTHD@@PEAPEAVItem@@@Z 00000000004b08a0 f   item.obj
 0001:000afcb0       ?print@Item_insert_value@@UEAAXPEAVString@@@Z 00000000004b0cb0 f   item.obj
 0001:000afd30       ?setup_field@Item_trigger_field@@QEAAXPEAVTHD@@PEAUst_table@@PEAUst_grant_info@@@Z 00000000004b0d30 f   item.obj
 0001:000afe10       ?eq@Item_trigger_field@@UEBAHPEBVItem@@H@Z 00000000004b0e10 f   item.obj
 0001:000afec0       ?set_required_privilege@Item_trigger_field@@EEAAXH@Z 00000000004b0ec0 f   item.obj
 0001:000aff20       ?set_value@Item_trigger_field@@EEAAHPEAVTHD@@PEAVsp_rcontext@@PEAPEAVItem@@@Z 00000000004b0f20 f   item.obj
 0001:000b0000       ?fix_fields@Item_trigger_field@@UEAAHPEAVTHD@@PEAPEAVItem@@@Z 00000000004b1000 f   item.obj
 0001:000b0210       ?print@Item_trigger_field@@UEAAXPEAVString@@@Z 00000000004b1210 f   item.obj
 0001:000b02b0       ?cleanup@Item_trigger_field@@UEAAXXZ 00000000004b12b0 f   item.obj
 0001:000b0300       ?item_cmp_type@@YA?AW4Item_result@@W41@0@Z 00000000004b1300 f   item.obj
 0001:000b0380       ?resolve_const_item@@YAXPEAVTHD@@PEAPEAVItem@@PEAV2@@Z 00000000004b1380 f   item.obj
 0001:000b0e60       ?field_is_equal_to_item@@YAHPEAVField@@PEAVItem@@@Z 00000000004b1e60 f   item.obj
 0001:000b1220       ?get_cache@Item_cache@@SAPEAV1@W4Item_result@@@Z 00000000004b2220 f   item.obj
 0001:000b1530       ?print@Item_cache@@UEAAXPEAVString@@@Z 00000000004b2530 f   item.obj
 0001:000b15d0       ?store@Item_cache_int@@UEAAXPEAVItem@@@Z 00000000004b25d0 f   item.obj
 0001:000b1650       ?store@Item_cache_int@@QEAAXPEAVItem@@_J@Z 00000000004b2650 f   item.obj
 0001:000b16a0       ?val_str@Item_cache_int@@UEAAPEAVString@@PEAV2@@Z 00000000004b26a0 f   item.obj
 0001:000b1720       ?val_decimal@Item_cache_int@@UEAAPEAVmy_decimal@@PEAV2@@Z 00000000004b2720 f   item.obj
 0001:000b17b0       ?store@Item_cache_real@@UEAAXPEAVItem@@@Z 00000000004b27b0 f   item.obj
 0001:000b1820       ?val_int@Item_cache_real@@UEAA_JXZ 00000000004b2820 f   item.obj
 0001:000b1890       ?val_str@Item_cache_real@@UEAAPEAVString@@PEAV2@@Z 00000000004b2890 f   item.obj
 0001:000b1920       ?val_decimal@Item_cache_real@@UEAAPEAVmy_decimal@@PEAV2@@Z 00000000004b2920 f   item.obj
 0001:000b19a0       ?store@Item_cache_decimal@@UEAAXPEAVItem@@@Z 00000000004b29a0 f   item.obj
 0001:000b1a50       ?val_real@Item_cache_decimal@@UEAANXZ 00000000004b2a50 f   item.obj
 0001:000b1af0       ?val_int@Item_cache_decimal@@UEAA_JXZ 00000000004b2af0 f   item.obj
 0001:000b1b90       ?val_str@Item_cache_decimal@@UEAAPEAVString@@PEAV2@@Z 00000000004b2b90 f   item.obj
 0001:000b1c60       ?val_decimal@Item_cache_decimal@@UEAAPEAVmy_decimal@@PEAV2@@Z 00000000004b2c60 f   item.obj
 0001:000b1cd0       ?store@Item_cache_str@@UEAAXPEAVItem@@@Z 00000000004b2cd0 f   item.obj
 0001:000b1df0       ?val_real@Item_cache_str@@UEAANXZ 00000000004b2df0 f   item.obj
 0001:000b1f20       ?val_int@Item_cache_str@@UEAA_JXZ 00000000004b2f20 f   item.obj
 0001:000b2040       ?val_decimal@Item_cache_str@@UEAAPEAVmy_decimal@@PEAV2@@Z 00000000004b3040 f   item.obj
 0001:000b20e0       ?allocate@Item_cache_row@@UEAAHI@Z 00000000004b30e0 f   item.obj
 0001:000b2180       ?setup@Item_cache_row@@UEAAHPEAVItem@@@Z 00000000004b3180 f   item.obj
 0001:000b22d0       ?store@Item_cache_row@@UEAAXPEAVItem@@@Z 00000000004b32d0 f   item.obj
 0001:000b23e0       ?illegal_method_call@Item_cache_row@@QEAAXPEBD@Z 00000000004b33e0 f   item.obj
 0001:000b2500       ?check_cols@Item_cache_row@@UEAAHI@Z 00000000004b3500 f   item.obj
 0001:000b2560       ?null_inside@Item_cache_row@@UEAAHXZ 00000000004b3560 f   item.obj
 0001:000b2690       ?bring_value@Item_cache_row@@UEAAXXZ 00000000004b3690 f   item.obj
 0001:000b2720       ??0Item_type_holder@@QEAA@PEAVTHD@@PEAVItem@@@Z 00000000004b3720 f   item.obj
 0001:000b28d0       ?result_type@Item_type_holder@@UEBA?AW4Item_result@@XZ 00000000004b38d0 f   item.obj
 0001:000b2910       ?get_real_type@Item_type_holder@@SA?AW4enum_field_types@@PEAVItem@@@Z 00000000004b3910 f   item.obj
 0001:000b2ab0       ?join_types@Item_type_holder@@QEAAHPEAVTHD@@PEAVItem@@@Z 00000000004b3ab0 f   item.obj
 0001:000b3410       ?display_length@Item_type_holder@@SAKPEAVItem@@@Z 00000000004b4410 f   item.obj
 0001:000b3670       ?make_field_by_type@Item_type_holder@@QEAAPEAVField@@PEAUst_table@@@Z 00000000004b4670 f   item.obj
 0001:000b39a0       ?get_full_info@Item_type_holder@@IEAAXPEAVItem@@@Z 00000000004b49a0 f   item.obj
 0001:000b3b00       ?val_real@Item_type_holder@@UEAANXZ 00000000004b4b00 f   item.obj
 0001:000b3b60       ?val_int@Item_type_holder@@UEAA_JXZ 00000000004b4b60 f   item.obj
 0001:000b3bc0       ?val_decimal@Item_type_holder@@UEAAPEAVmy_decimal@@PEAV2@@Z 00000000004b4bc0 f   item.obj
 0001:000b3c20       ?val_str@Item_type_holder@@UEAAPEAVString@@PEAV2@@Z 00000000004b4c20 f   item.obj
 0001:000b3c80       ?cleanup@Item_result_field@@UEAAXXZ 00000000004b4c80 f   item.obj
 0001:000b3d50       ?dummy_error_processor@@YAXPEAVTHD@@PEAX@Z 00000000004b4d50 f   item.obj
 0001:000b3d70       ?view_error_processor@@YAXPEAVTHD@@PEAX@Z 00000000004b4d70 f   item.obj
 0001:000ba240       ?float_length@Item@@QEBAII@Z 00000000004bb240 f i item.obj
 0001:000ba2b0       ?my_decimal_add@@YAHIPEAVmy_decimal@@PEBV1@1@Z 00000000004bb2b0 f i item.obj
 0001:000ba320       ?my_decimal_div@@YAHIPEAVmy_decimal@@PEBV1@1H@Z 00000000004bb320 f i item.obj
 0001:000ba3a0       ?my_decimal_round@@YAHIPEBVmy_decimal@@HHPEAV1@@Z 00000000004bb3a0 f i item.obj
 0001:000ba430       ?my_decimal_is_zero@@YAHPEBVmy_decimal@@@Z 00000000004bb430 f i item.obj
 0001:000ba470       ??0DTCollation@@QEAA@PEAUcharset_info_st@@W4Derivation@@@Z 00000000004bb470 f i item.obj
 0001:000ba4f0       ?set_repertoire_from_charset@DTCollation@@QEAAXPEAUcharset_info_st@@@Z 00000000004bb4f0 f i item.obj
 0001:000ba560       ??0String@@QEAA@AEBV0@@Z   00000000004bb560 f i item.obj
 0001:000ba5e0       ?is_stmt_prepare@Query_arena@@QEBAHXZ 00000000004bb5e0 f i item.obj
 0001:000ba640       ?change_context_processor@Item_ident@@UEAAHPEAE@Z 00000000004bb640 f i item.obj
 0001:000ba670       ??_EItem_ident@@UEAAPEAXI@Z 00000000004bb670 f i item.obj
 0001:000ba670       ??_GItem_ident@@UEAAPEAXI@Z 00000000004bb670 f i item.obj
 0001:000ba6e0       ??1Item_ident@@UEAA@XZ     00000000004bb6e0 f i item.obj
 0001:000ba720       ??0Item_func_conv_charset@@QEAA@PEAVItem@@PEAUcharset_info_st@@H@Z 00000000004bb720 f i item.obj
 0001:000bab40       ?mark_as_const@String@@QEAAXXZ 00000000004bbb40 f i item.obj
 0001:000bab60       ?get_tmp_table_field@Item_result_field@@UEAAPEAVField@@XZ 00000000004bbb60 f i item.obj
 0001:000bab80       ?set_result_field@Item_result_field@@UEAAXPEAVField@@@Z 00000000004bbb80 f i item.obj
 0001:000babb0       ?is_result_field@Item_result_field@@UEAAHXZ 00000000004bbbb0 f i item.obj
 0001:000babc0       ?save_in_result_field@Item_result_field@@UEAAXH@Z 00000000004bbbc0 f i item.obj
 0001:000bac20       ?type@Item_func@@UEBA?AW4Type@Item@@XZ 00000000004bbc20 f i item.obj
 0001:000bac30       ?functype@Item_func@@UEBA?AW4Functype@1@XZ 00000000004bbc30 f i item.obj
 0001:000bac40       ?select_optimize@Item_func@@UEBA?AW4optimize_type@1@XZ 00000000004bbc40 f i item.obj
 0001:000bac50       ?have_rev_func@Item_func@@UEBAHXZ 00000000004bbc50 f i item.obj
 0001:000bac60       ?key_item@Item_func@@UEBAPEAVItem@@XZ 00000000004bbc60 f i item.obj
 0001:000bac80       ?const_item@Item_func@@UEBAHXZ 00000000004bbc80 f i item.obj
 0001:000baca0       ?is_null@Item_func@@UEAAHXZ 00000000004bbca0 f i item.obj
 0001:000bad00       ?is_expensive@Item_func@@UEAAHXZ 00000000004bbd00 f i item.obj
 0001:000bad10       ??0Item_str_func@@QEAA@PEAVItem@@@Z 00000000004bbd10 f i item.obj
 0001:000bad80       ??0Item_func@@QEAA@PEAVItem@@@Z 00000000004bbd80 f i item.obj
 0001:000bae50       ??0Item_result_field@@QEAA@XZ 00000000004bbe50 f i item.obj
 0001:000baec0       ?tmp_table_field@Item_result_field@@UEAAPEAVField@@PEAUst_table@@@Z 00000000004bbec0 f i item.obj
 0001:000baee0       ?used_tables@Item_result_field@@UEBA_KXZ 00000000004bbee0 f i item.obj
 0001:000baf00       ??_EItem_result_field@@UEAAPEAXI@Z 00000000004bbf00 f i item.obj
 0001:000baf00       ??_GItem_result_field@@UEAAPEAXI@Z 00000000004bbf00 f i item.obj
 0001:000baf70       ??1Item_result_field@@UEAA@XZ 00000000004bbf70 f i item.obj
 0001:000bafd0       ??_EItem_func@@UEAAPEAXI@Z 00000000004bbfd0 f i item.obj
 0001:000bafd0       ??_GItem_func@@UEAAPEAXI@Z 00000000004bbfd0 f i item.obj
 0001:000bb040       ??1Item_func@@UEAA@XZ      00000000004bc040 f i item.obj
 0001:000bb080       ?result_type@Item_str_func@@UEBA?AW4Item_result@@XZ 00000000004bc080 f i item.obj
 0001:000bb090       ??_GItem_str_func@@UEAAPEAXI@Z 00000000004bc090 f i item.obj
 0001:000bb090       ??_EItem_str_func@@UEAAPEAXI@Z 00000000004bc090 f i item.obj
 0001:000bb100       ??1Item_str_func@@UEAA@XZ  00000000004bc100 f i item.obj
 0001:000bb140       ?func_name@Item_func_conv_charset@@UEBAPEBDXZ 00000000004bc140 f i item.obj
 0001:000bb160       ??_EItem_func_conv_charset@@UEAAPEAXI@Z 00000000004bc160 f i item.obj
 0001:000bb160       ??_GItem_func_conv_charset@@UEAAPEAXI@Z 00000000004bc160 f i item.obj
 0001:000bb1d0       ??1Item_func_conv_charset@@UEAA@XZ 00000000004bc1d0 f i item.obj
 0001:000bb210       ??0Item_static_string_func@@QEAA@PEBD0IPEAUcharset_info_st@@W4Derivation@@@Z 00000000004bc210 f i item.obj
 0001:000bb2c0       ?print@Item_static_string_func@@UEAAXPEAVString@@@Z 00000000004bc2c0 f i item.obj
 0001:000bb320       ??_GItem_static_string_func@@UEAAPEAXI@Z 00000000004bc320 f i item.obj
 0001:000bb320       ??_EItem_static_string_func@@UEAAPEAXI@Z 00000000004bc320 f i item.obj
 0001:000bb390       ??1Item_static_string_func@@UEAA@XZ 00000000004bc390 f i item.obj
 0001:000bb3d0       ?make_field@Item_sp_variable@@UEAAXPEAVSend_field@@@Z 00000000004bc3d0 f i item.obj
 0001:000bb4c0       ?const_item@Item_sp_variable@@UEBAHXZ 00000000004bc4c0 f i item.obj
 0001:000bb4d0       ?save_in_field@Item_sp_variable@@UEAAHPEAVField@@H@Z 00000000004bc4d0 f i item.obj
 0001:000bb550       ?send@Item_sp_variable@@UEAAHPEAVProtocol@@PEAVString@@@Z 00000000004bc550 f i item.obj
 0001:000bb5d0       ??_GItem_sp_variable@@UEAAPEAXI@Z 00000000004bc5d0 f i item.obj
 0001:000bb5d0       ??_EItem_sp_variable@@UEAAPEAXI@Z 00000000004bc5d0 f i item.obj
 0001:000bb640       ??1Item_sp_variable@@UEAA@XZ 00000000004bc640 f i item.obj
 0001:000bb680       ?set@DTCollation@@QEAAXPEAUcharset_info_st@@W4Derivation@@@Z 00000000004bc680 f i item.obj
 0001:000bb700       ??0Settable_routine_parameter@@QEAA@XZ 00000000004bc700 f i item.obj
 0001:000bb730       ??1Settable_routine_parameter@@UEAA@XZ 00000000004bc730 f i item.obj
 0001:000bb750       ?set_required_privilege@Settable_routine_parameter@@UEAAXH@Z 00000000004bc750 f i item.obj
 0001:000bb760       ??_GSettable_routine_parameter@@UEAAPEAXI@Z 00000000004bc760 f i item.obj
 0001:000bb760       ??_ESettable_routine_parameter@@UEAAPEAXI@Z 00000000004bc760 f i item.obj
 0001:000bb7d0       ?is_splocal@Item_splocal@@UEAAHXZ 00000000004bc7d0 f i item.obj
 0001:000bb7e0       ?field_type@Item_splocal@@UEBA?AW4enum_field_types@@XZ 00000000004bc7e0 f i item.obj
 0001:000bb800       ?get_settable_routine_parameter@Item_splocal@@UEAAPEAVSettable_routine_parameter@@XZ 00000000004bc800 f i item.obj
 0001:000bb870       ?type@Item_splocal@@UEBA?AW4Type@Item@@XZ 00000000004bc870 f i item.obj
 0001:000bb890       ?result_type@Item_splocal@@UEBA?AW4Item_result@@XZ 00000000004bc890 f i item.obj
 0001:000bb8b0       ??_EItem_splocal@@UEAAPEAXI@Z 00000000004bc8b0 f i item.obj
 0001:000bb8b0       ??_GItem_splocal@@UEAAPEAXI@Z 00000000004bc8b0 f i item.obj
 0001:000bb920       ??1Item_splocal@@UEAA@XZ   00000000004bc920 f i item.obj
 0001:000bb9e0       ?get_var_idx@Item_splocal@@QEBAIXZ 00000000004bc9e0 f i item.obj
 0001:000bba00       ?type@Item_case_expr@@UEBA?AW4Type@Item@@XZ 00000000004bca00 f i item.obj
 0001:000bba70       ?result_type@Item_case_expr@@UEBA?AW4Item_result@@XZ 00000000004bca70 f i item.obj
 0001:000bbae0       ??_EItem_case_expr@@UEAAPEAXI@Z 00000000004bcae0 f i item.obj
 0001:000bbae0       ??_GItem_case_expr@@UEAAPEAXI@Z 00000000004bcae0 f i item.obj
 0001:000bbb50       ??1Item_case_expr@@UEAA@XZ 00000000004bcb50 f i item.obj
 0001:000bbb90       ?depended_from@Item_sum@@QEAAPEAVst_select_lex@@XZ 00000000004bcb90 f i item.obj
 0001:000bbc10       ?change_item_tree@THD@@QEAAXPEAPEAVItem@@PEAV2@@Z 00000000004bcc10 f i item.obj
 0001:000bbcb0       ?is_conventional@Query_arena@@QEBAHXZ 00000000004bccb0 f i item.obj
 0001:000bbd10       ??0Item_aggregate_ref@@QEAA@PEAUName_resolution_context@@PEAPEAVItem@@PEBD2@Z 00000000004bcd10 f i item.obj
 0001:000bbdb0       ?type@Item_ref@@UEBA?AW4Type@Item@@XZ 00000000004bcdb0 f i item.obj
 0001:000bbdc0       ?eq@Item_ref@@UEBAHPEBVItem@@H@Z 00000000004bcdc0 f i item.obj
 0001:000bbe90       ?result_type@Item_ref@@UEBA?AW4Item_result@@XZ 00000000004bce90 f i item.obj
 0001:000bbef0       ?field_type@Item_ref@@UEBA?AW4enum_field_types@@XZ 00000000004bcef0 f i item.obj
 0001:000bbf50       ?get_tmp_table_field@Item_ref@@UEAAPEAVField@@XZ 00000000004bcf50 f i item.obj
 0001:000bbff0       ?used_tables@Item_ref@@UEBA_KXZ 00000000004bcff0 f i item.obj
 0001:000bc090       ?update_used_tables@Item_ref@@UEAAXXZ 00000000004bd090 f i item.obj
 0001:000bc110       ?not_null_tables@Item_ref@@UEBA_KXZ 00000000004bd110 f i item.obj
 0001:000bc180       ?set_result_field@Item_ref@@UEAAXPEAVField@@@Z 00000000004bd180 f i item.obj
 0001:000bc1b0       ?is_result_field@Item_ref@@UEAAHXZ 00000000004bd1b0 f i item.obj
 0001:000bc1c0       ?save_in_result_field@Item_ref@@UEAAXH@Z 00000000004bd1c0 f i item.obj
 0001:000bc240       ?real_item@Item_ref@@UEAAPEAVItem@@XZ 00000000004bd240 f i item.obj
 0001:000bc2e0       ?walk@Item_ref@@UEAAHP8Item@@EAAHPEAE@Z0@Z 00000000004bd2e0 f i item.obj
 0001:000bc360       ?result_as_longlong@Item_ref@@UEAAHXZ 00000000004bd360 f i item.obj
 0001:000bc3d0       ?filed_for_view_update@Item_ref@@UEAAPEAVItem_field@@XZ 00000000004bd3d0 f i item.obj
 0001:000bc440       ?ref_type@Item_ref@@UEAA?AW4Ref_Type@1@XZ 00000000004bd440 f i item.obj
 0001:000bc450       ?print@Item_aggregate_ref@@UEAAXPEAVString@@@Z 00000000004bd450 f i item.obj
 0001:000bc4f0       ??_EItem_aggregate_ref@@UEAAPEAXI@Z 00000000004bd4f0 f i item.obj
 0001:000bc4f0       ??_GItem_aggregate_ref@@UEAAPEAXI@Z 00000000004bd4f0 f i item.obj
 0001:000bc560       ??1Item_aggregate_ref@@UEAA@XZ 00000000004bd560 f i item.obj
 0001:000bc5a0       ??1Item_ref@@UEAA@XZ       00000000004bd5a0 f i item.obj
 0001:000bc5e0       ?set@DTCollation@@QEAAXAEAV1@@Z 00000000004bd5e0 f i item.obj
 0001:000bc630       ?derivation_name@DTCollation@@QEBAPEBDXZ 00000000004bd630 f i item.obj
 0001:000bc710       ??0Query_arena@@QEAA@XZ    00000000004bd710 f i item.obj
 0001:000bc750       ??1Query_arena@@UEAA@XZ    00000000004bd750 f i item.obj
 0001:000bc770       ??_EQuery_arena@@UEAAPEAXI@Z 00000000004bd770 f i item.obj
 0001:000bc770       ??_GQuery_arena@@UEAAPEAXI@Z 00000000004bd770 f i item.obj
 0001:000bc7e0       ?activate_stmt_arena_if_needed@THD@@QEAAPEAVQuery_arena@@PEAV2@@Z 00000000004bd7e0 f i item.obj
 0001:000bc890       ?type@Item_field@@UEBA?AW4Type@Item@@XZ 00000000004bd890 f i item.obj
 0001:000bc8a0       ?result_type@Item_field@@UEBA?AW4Item_result@@XZ 00000000004bd8a0 f i item.obj
 0001:000bc900       ?cast_to_int_type@Item_field@@UEBA?AW4Item_result@@XZ 00000000004bd900 f i item.obj
 0001:000bc960       ?field_type@Item_field@@UEBA?AW4enum_field_types@@XZ 00000000004bd960 f i item.obj
 0001:000bc9c0       ?get_tmp_table_field@Item_field@@UEAAPEAVField@@XZ 00000000004bd9c0 f i item.obj
 0001:000bc9e0       ?tmp_table_field@Item_field@@UEAAPEAVField@@PEAUst_table@@@Z 00000000004bd9e0 f i item.obj
 0001:000bca00       ?is_null@Item_field@@UEAAHXZ 00000000004bda00 f i item.obj
 0001:000bca50       ?reset_query_id_processor@Item_field@@UEAAHPEAE@Z 00000000004bda50 f i item.obj
 0001:000bcac0       ?result_as_longlong@Item_field@@UEAAHXZ 00000000004bdac0 f i item.obj
 0001:000bcb20       ?filed_for_view_update@Item_field@@UEAAPEAV1@XZ 00000000004bdb20 f i item.obj
 0001:000bcb30       ??_EItem_field@@UEAAPEAXI@Z 00000000004bdb30 f i item.obj
 0001:000bcb30       ??_GItem_field@@UEAAPEAXI@Z 00000000004bdb30 f i item.obj
 0001:000bcba0       ??1Item_field@@UEAA@XZ     00000000004bdba0 f i item.obj
 0001:000bcbe0       ?is_stmt_prepare_or_first_sp_execute@Query_arena@@QEBAHXZ 00000000004bdbe0 f i item.obj
 0001:000bcc40       ?strdup@Query_arena@@QEAAPEADPEBD@Z 00000000004bdc40 f i item.obj
 0001:000bcca0       ?set@DTCollation@@QEAAXW4Derivation@@@Z 00000000004bdca0 f i item.obj
 0001:000bccc0       ?val_real@Item_uint@@UEAANXZ 00000000004bdcc0 f i item.obj
 0001:000bcd50       ?clone_item@Item_uint@@UEAAPEAVItem@@XZ 00000000004bdd50 f i item.obj
 0001:000bce40       ?decimal_precision@Item_uint@@UEBAIXZ 00000000004bde40 f i item.obj
 0001:000bce60       ??_EItem_uint@@UEAAPEAXI@Z 00000000004bde60 f i item.obj
 0001:000bce60       ??_GItem_uint@@UEAAPEAXI@Z 00000000004bde60 f i item.obj
 0001:000bced0       ??1Item_uint@@UEAA@XZ      00000000004bded0 f i item.obj
 0001:000bcf10       ?type@Item_decimal@@UEBA?AW4Type@Item@@XZ 00000000004bdf10 f i item.obj
 0001:000bcf20       ?result_type@Item_decimal@@UEBA?AW4Item_result@@XZ 00000000004bdf20 f i item.obj
 0001:000bcf30       ?field_type@Item_decimal@@UEBA?AW4enum_field_types@@XZ 00000000004bdf30 f i item.obj
 0001:000bcf40       ?val_decimal@Item_decimal@@UEAAPEAVmy_decimal@@PEAV2@@Z 00000000004bdf40 f i item.obj
 0001:000bcf60       ?basic_const_item@Item_decimal@@UEBAHXZ 00000000004bdf60 f i item.obj
 0001:000bcf70       ?clone_item@Item_decimal@@UEAAPEAVItem@@XZ 00000000004bdf70 f i item.obj
 0001:000bd070       ?cleanup@Item_decimal@@UEAAXXZ 00000000004be070 f i item.obj
 0001:000bd080       ?neg@Item_decimal@@UEAAPEAVItem_num@@XZ 00000000004be080 f i item.obj
 0001:000bd110       ?my_decimal_neg@@YAXPEAUst_decimal_t@@@Z 00000000004be110 f i item.obj
 0001:000bd190       ?decimal_precision@Item_decimal@@UEBAIXZ 00000000004be190 f i item.obj
 0001:000bd1e0       ?precision@my_decimal@@QEBAIXZ 00000000004be1e0 f i item.obj
 0001:000bd200       ??_EItem_decimal@@UEAAPEAXI@Z 00000000004be200 f i item.obj
 0001:000bd200       ??_GItem_decimal@@UEAAPEAXI@Z 00000000004be200 f i item.obj
 0001:000bd270       ??1Item_decimal@@UEAA@XZ   00000000004be270 f i item.obj
 0001:000bd2b0       ?my_decimal2decimal@@YAXPEBVmy_decimal@@PEAV1@@Z 00000000004be2b0 f i item.obj
 0001:000bd340       ?my_decimal_cmp@@YAHPEBVmy_decimal@@0@Z 00000000004be340 f i item.obj
 0001:000bd390       ?set@DTCollation@@QEAAXPEAUcharset_info_st@@@Z 00000000004be390 f i item.obj
 0001:000bd3f0       ?result_type@Item_param@@UEBA?AW4Item_result@@XZ 00000000004be3f0 f i item.obj
 0001:000bd410       ?type@Item_param@@UEBA?AW4Type@Item@@XZ 00000000004be410 f i item.obj
 0001:000bd430       ?field_type@Item_param@@UEBA?AW4enum_field_types@@XZ 00000000004be430 f i item.obj
 0001:000bd450       ?used_tables@Item_param@@UEBA_KXZ 00000000004be450 f i item.obj
 0001:000bd4c0       ?is_null@Item_param@@UEAAHXZ 00000000004be4c0 f i item.obj
 0001:000bd560       ??_EItem_param@@UEAAPEAXI@Z 00000000004be560 f i item.obj
 0001:000bd560       ??_GItem_param@@UEAAPEAXI@Z 00000000004be560 f i item.obj
 0001:000bd5d0       ??1Item_param@@UEAA@XZ     00000000004be5d0 f i item.obj
 0001:000bd6d0       ?str2my_decimal@@YAHIPEBDPEAVmy_decimal@@PEAPEAD@Z 00000000004be6d0 f i item.obj
 0001:000bd750       ?string2my_decimal@@YAHIPEBVString@@PEAVmy_decimal@@@Z 00000000004be750 f i item.obj
 0001:000bd7f0       ??0Item_null@@QEAA@PEAD@Z  00000000004be7f0 f i item.obj
 0001:000bd920       ?type@Item_null@@UEBA?AW4Type@Item@@XZ 00000000004be920 f i item.obj
 0001:000bd930       ?result_type@Item_null@@UEBA?AW4Item_result@@XZ 00000000004be930 f i item.obj
 0001:000bd940       ?field_type@Item_null@@UEBA?AW4enum_field_types@@XZ 00000000004be940 f i item.obj
 0001:000bd950       ?cleanup@Item_null@@UEAAXXZ 00000000004be950 f i item.obj
 0001:000bd960       ?basic_const_item@Item_null@@UEBAHXZ 00000000004be960 f i item.obj
 0001:000bd970       ?clone_item@Item_null@@UEAAPEAVItem@@XZ 00000000004be970 f i item.obj
 0001:000bda50       ?is_null@Item_null@@UEAAHXZ 00000000004bea50 f i item.obj
 0001:000bda60       ?print@Item_null@@UEAAXPEAVString@@@Z 00000000004bea60 f i item.obj
 0001:000bdac0       ??_EItem_null@@UEAAPEAXI@Z 00000000004beac0 f i item.obj
 0001:000bdac0       ??_GItem_null@@UEAAPEAXI@Z 00000000004beac0 f i item.obj
 0001:000bdb30       ??1Item_null@@UEAA@XZ      00000000004beb30 f i item.obj
 0001:000bdb70       ??0Item_float@@QEAA@PEBDNII@Z 00000000004beb70 f i item.obj
 0001:000bdc40       ?type@Item_float@@UEBA?AW4Type@Item@@XZ 00000000004bec40 f i item.obj
 0001:000bdc50       ?field_type@Item_float@@UEBA?AW4enum_field_types@@XZ 00000000004bec50 f i item.obj
 0001:000bdc60       ?val_real@Item_float@@UEAANXZ 00000000004bec60 f i item.obj
 0001:000bdce0       ?val_int@Item_float@@UEAA_JXZ 00000000004bece0 f i item.obj
 0001:000bddc0       ?basic_const_item@Item_float@@UEBAHXZ 00000000004bedc0 f i item.obj
 0001:000bddd0       ?cleanup@Item_float@@UEAAXXZ 00000000004bedd0 f i item.obj
 0001:000bdde0       ?clone_item@Item_float@@UEAAPEAVItem@@XZ 00000000004bede0 f i item.obj
 0001:000bdee0       ?neg@Item_float@@UEAAPEAVItem_num@@XZ 00000000004beee0 f i item.obj
 0001:000bdf20       ??_EItem_float@@UEAAPEAXI@Z 00000000004bef20 f i item.obj
 0001:000bdf20       ??_GItem_float@@UEAAPEAXI@Z 00000000004bef20 f i item.obj
 0001:000bdf90       ??1Item_float@@UEAA@XZ     00000000004bef90 f i item.obj
 0001:000bdfd0       ??0Item_ref@@QEAA@PEAUName_resolution_context@@PEBD11@Z 00000000004befd0 f i item.obj
 0001:000be090       ??_EItem_ref@@UEAAPEAXI@Z  00000000004bf090 f i item.obj
 0001:000be090       ??_GItem_ref@@UEAAPEAXI@Z  00000000004bf090 f i item.obj
 0001:000be100       ??0Item_direct_ref@@QEAA@PEAUName_resolution_context@@PEAPEAVItem@@PEBD2H@Z 00000000004bf100 f i item.obj
 0001:000be1a0       ?ref_type@Item_direct_ref@@UEAA?AW4Ref_Type@Item_ref@@XZ 00000000004bf1a0 f i item.obj
 0001:000be1b0       ??_EItem_direct_ref@@UEAAPEAXI@Z 00000000004bf1b0 f i item.obj
 0001:000be1b0       ??_GItem_direct_ref@@UEAAPEAXI@Z 00000000004bf1b0 f i item.obj
 0001:000be220       ??1Item_direct_ref@@UEAA@XZ 00000000004bf220 f i item.obj
 0001:000be260       ??0Item_outer_ref@@QEAA@PEAUName_resolution_context@@PEAVItem_field@@@Z 00000000004bf260 f i item.obj
 0001:000be3c0       ??0Item_outer_ref@@QEAA@PEAUName_resolution_context@@PEAPEAVItem@@PEBD2H@Z 00000000004bf3c0 f i item.obj
 0001:000be490       ?save_in_result_field@Item_outer_ref@@UEAAXH@Z 00000000004bf490 f i item.obj
 0001:000be500       ?used_tables@Item_outer_ref@@UEBA_KXZ 00000000004bf500 f i item.obj
 0001:000be590       ?ref_type@Item_outer_ref@@UEAA?AW4Ref_Type@Item_ref@@XZ 00000000004bf590 f i item.obj
 0001:000be5a0       ??_GItem_outer_ref@@UEAAPEAXI@Z 00000000004bf5a0 f i item.obj
 0001:000be5a0       ??_EItem_outer_ref@@UEAAPEAXI@Z 00000000004bf5a0 f i item.obj
 0001:000be610       ??1Item_outer_ref@@UEAA@XZ 00000000004bf610 f i item.obj
 0001:000be650       ?first_select@st_select_lex_unit@@QEAAPEAVst_select_lex@@XZ 00000000004bf650 f i item.obj
 0001:000be670       ?process_error@Name_resolution_context@@QEAAXPEAVTHD@@@Z 00000000004bf670 f i item.obj
 0001:000be6d0       ?get_const@Item_equal@@QEAAPEAVItem@@XZ 00000000004bf6d0 f i item.obj
 0001:000be6f0       ?get_first@Item_equal@@QEAAPEAVItem_field@@XZ 00000000004bf6f0 f i item.obj
 0001:000be740       ??0Field_string@@QEAA@KHPEBDPEAUst_table@@PEAUcharset_info_st@@@Z 00000000004bf740 f i item.obj
 0001:000be840       ??0Field_blob@@QEAA@KHPEBDPEAUst_table@@PEAUcharset_info_st@@@Z 00000000004bf840 f i item.obj
 0001:000be9b0       ??0Field_date@@QEAA@HPEBDPEAUst_table@@PEAUcharset_info_st@@@Z 00000000004bf9b0 f i item.obj
 0001:000beaa0       ??0Field_time@@QEAA@HPEBDPEAUst_table@@PEAUcharset_info_st@@@Z 00000000004bfaa0 f i item.obj
 0001:000beb90       ??0Field_datetime@@QEAA@HPEBDPEAUst_table@@PEAUcharset_info_st@@@Z 00000000004bfb90 f i item.obj
 0001:000bec80       ??0Field_blob@@QEAA@KHPEBDPEAUst_table@@PEAUcharset_info_st@@H@Z 00000000004bfc80 f i item.obj
 0001:000beed0       ??0Field_geom@@QEAA@KHPEBDPEAUst_table@@W4geometry_type@Field@@@Z 00000000004bfed0 f i item.obj
 0001:000bef80       ?get_geometry_type@Item_type_holder@@QEAA?AW4geometry_type@Field@@XZ 00000000004bff80 f i item.obj
 0001:000befa0       ?type@Item_hex_string@@UEBA?AW4Type@Item@@XZ 00000000004bffa0 f i item.obj
 0001:000befb0       ?val_real@Item_hex_string@@UEAANXZ 00000000004bffb0 f i item.obj
 0001:000bf040       ?basic_const_item@Item_hex_string@@UEBAHXZ 00000000004c0040 f i item.obj
 0001:000bf050       ?val_str@Item_hex_string@@UEAAPEAVString@@PEAV2@@Z 00000000004c0050 f i item.obj
 0001:000bf0d0       ?result_type@Item_hex_string@@UEBA?AW4Item_result@@XZ 00000000004c00d0 f i item.obj
 0001:000bf0e0       ?cast_to_int_type@Item_hex_string@@UEBA?AW4Item_result@@XZ 00000000004c00e0 f i item.obj
 0001:000bf0f0       ?field_type@Item_hex_string@@UEBA?AW4enum_field_types@@XZ 00000000004c00f0 f i item.obj
 0001:000bf100       ?cleanup@Item_hex_string@@UEAAXXZ 00000000004c0100 f i item.obj
 0001:000bf110       ??_EItem_hex_string@@UEAAPEAXI@Z 00000000004c0110 f i item.obj
 0001:000bf110       ??_GItem_hex_string@@UEAAPEAXI@Z 00000000004c0110 f i item.obj
 0001:000bf180       ??1Item_hex_string@@UEAA@XZ 00000000004c0180 f i item.obj
 0001:000bf1c0       ?char_val@@YAID@Z          00000000004c01c0 f i item.obj
 0001:000bf260       ??0Item_hex_string@@QEAA@XZ 00000000004c0260 f i item.obj
 0001:000bf2c0       ??_GItem_bin_string@@UEAAPEAXI@Z 00000000004c02c0 f i item.obj
 0001:000bf2c0       ??_EItem_bin_string@@UEAAPEAXI@Z 00000000004c02c0 f i item.obj
 0001:000bf330       ??1Item_bin_string@@UEAA@XZ 00000000004c0330 f i item.obj
 0001:000bf370       ?top_table@TABLE_LIST@@QEAAPEAU1@XZ 00000000004c0370 f i item.obj
 0001:000bf3e0       ??0Item_cache_int@@QEAA@XZ 00000000004c03e0 f i item.obj
 0001:000bf450       ??0Item_cache@@QEAA@XZ     00000000004c0450 f i item.obj
 0001:000bf4e0       ?allocate@Item_cache@@UEAAHI@Z 00000000004c04e0 f i item.obj
 0001:000bf500       ?setup@Item_cache@@UEAAHPEAVItem@@@Z 00000000004c0500 f i item.obj
 0001:000bf5b0       ?type@Item_cache@@UEBA?AW4Type@Item@@XZ 00000000004c05b0 f i item.obj
 0001:000bf5c0       ?used_tables@Item_cache@@UEBA_KXZ 00000000004c05c0 f i item.obj
 0001:000bf5e0       ?keep_array@Item_cache@@UEAAXXZ 00000000004c05e0 f i item.obj
 0001:000bf5f0       ?cleanup@Item_cache@@UEAAXXZ 00000000004c05f0 f i item.obj
 0001:000bf600       ??_EItem_cache@@UEAAPEAXI@Z 00000000004c0600 f i item.obj
 0001:000bf600       ??_GItem_cache@@UEAAPEAXI@Z 00000000004c0600 f i item.obj
 0001:000bf670       ??1Item_cache@@UEAA@XZ     00000000004c0670 f i item.obj
 0001:000bf6b0       ?val_real@Item_cache_int@@UEAANXZ 00000000004c06b0 f i item.obj
 0001:000bf730       ?val_int@Item_cache_int@@UEAA_JXZ 00000000004c0730 f i item.obj
 0001:000bf7b0       ?result_type@Item_cache_int@@UEBA?AW4Item_result@@XZ 00000000004c07b0 f i item.obj
 0001:000bf7c0       ?result_as_longlong@Item_cache_int@@UEAAHXZ 00000000004c07c0 f i item.obj
 0001:000bf7d0       ??_GItem_cache_int@@UEAAPEAXI@Z 00000000004c07d0 f i item.obj
 0001:000bf7d0       ??_EItem_cache_int@@UEAAPEAXI@Z 00000000004c07d0 f i item.obj
 0001:000bf840       ??1Item_cache_int@@UEAA@XZ 00000000004c0840 f i item.obj
 0001:000bf880       ??0Item_cache_real@@QEAA@XZ 00000000004c0880 f i item.obj
 0001:000bf8f0       ?val_real@Item_cache_real@@UEAANXZ 00000000004c08f0 f i item.obj
 0001:000bf970       ?result_type@Item_cache_real@@UEBA?AW4Item_result@@XZ 00000000004c0970 f i item.obj
 0001:000bf980       ??_EItem_cache_real@@UEAAPEAXI@Z 00000000004c0980 f i item.obj
 0001:000bf980       ??_GItem_cache_real@@UEAAPEAXI@Z 00000000004c0980 f i item.obj
 0001:000bf9f0       ??1Item_cache_real@@UEAA@XZ 00000000004c09f0 f i item.obj
 0001:000bfa30       ??0Item_cache_decimal@@QEAA@XZ 00000000004c0a30 f i item.obj
 0001:000bfaf0       ?result_type@Item_cache_decimal@@UEBA?AW4Item_result@@XZ 00000000004c0af0 f i item.obj
 0001:000bfb00       ??_EItem_cache_decimal@@UEAAPEAXI@Z 00000000004c0b00 f i item.obj
 0001:000bfb00       ??_GItem_cache_decimal@@UEAAPEAXI@Z 00000000004c0b00 f i item.obj
 0001:000bfb70       ??1Item_cache_decimal@@UEAA@XZ 00000000004c0b70 f i item.obj
 0001:000bfbb0       ??0Item_cache_str@@QEAA@XZ 00000000004c0bb0 f i item.obj
 0001:000bfc80       ?val_str@Item_cache_str@@UEAAPEAVString@@PEAV2@@Z 00000000004c0c80 f i item.obj
 0001:000bfd00       ?result_type@Item_cache_str@@UEBA?AW4Item_result@@XZ 00000000004c0d00 f i item.obj
 0001:000bfd10       ??_GItem_cache_str@@UEAAPEAXI@Z 00000000004c0d10 f i item.obj
 0001:000bfd10       ??_EItem_cache_str@@UEAAPEAXI@Z 00000000004c0d10 f i item.obj
 0001:000bfd80       ??1Item_cache_str@@UEAA@XZ 00000000004c0d80 f i item.obj
 0001:000bfe10       ??0Item_cache_row@@QEAA@XZ 00000000004c0e10 f i item.obj
 0001:000bfeb0       ?make_field@Item_cache_row@@UEAAXPEAVSend_field@@@Z 00000000004c0eb0 f i item.obj
 0001:000bff00       ?val_real@Item_cache_row@@UEAANXZ 00000000004c0f00 f i item.obj
 0001:000bff50       ?val_int@Item_cache_row@@UEAA_JXZ 00000000004c0f50 f i item.obj
 0001:000bffa0       ?val_str@Item_cache_row@@UEAAPEAVString@@PEAV2@@Z 00000000004c0fa0 f i item.obj
 0001:000c0000       ?val_decimal@Item_cache_row@@UEAAPEAVmy_decimal@@PEAV2@@Z 00000000004c1000 f i item.obj
 0001:000c0060       ?result_type@Item_cache_row@@UEBA?AW4Item_result@@XZ 00000000004c1060 f i item.obj
 0001:000c0070       ?cols@Item_cache_row@@UEAAIXZ 00000000004c1070 f i item.obj
 0001:000c0090       ?element_index@Item_cache_row@@UEAAPEAVItem@@I@Z 00000000004c1090 f i item.obj
 0001:000c00c0       ?addr@Item_cache_row@@UEAAPEAPEAVItem@@I@Z 00000000004c10c0 f i item.obj
 0001:000c00f0       ?keep_array@Item_cache_row@@UEAAXXZ 00000000004c10f0 f i item.obj
 0001:000c0110       ?cleanup@Item_cache_row@@UEAAXXZ 00000000004c1110 f i item.obj
 0001:000c0260       ??_EItem_cache_row@@UEAAPEAXI@Z 00000000004c1260 f i item.obj
 0001:000c0260       ??_GItem_cache_row@@UEAAPEAXI@Z 00000000004c1260 f i item.obj
 0001:000c02d0       ??1Item_cache_row@@UEAA@XZ 00000000004c12d0 f i item.obj
 0001:000c0310       ?decimal_int_part@Item@@QEBAHXZ 00000000004c1310 f i item.obj
 0001:000c0390       ?my_decimal_int_part@@YAHII@Z 00000000004c1390 f i item.obj
 0001:000c03f0       ?get_geometry_type@Item_field@@QEAA?AW4geometry_type@Field@@XZ 00000000004c13f0 f i item.obj
 0001:000c0490       ?field_type@Item_type_holder@@UEBA?AW4enum_field_types@@XZ 00000000004c1490 f i item.obj
 0001:000c04b0       ?type@Item_type_holder@@UEBA?AW4Type@Item@@XZ 00000000004c14b0 f i item.obj
 0001:000c04c0       ??_EItem_type_holder@@UEAAPEAXI@Z 00000000004c14c0 f i item.obj
 0001:000c04c0       ??_GItem_type_holder@@UEAAPEAXI@Z 00000000004c14c0 f i item.obj
 0001:000c0530       ??1Item_type_holder@@UEAA@XZ 00000000004c1530 f i item.obj
 0001:000c0570       ?max_disp_length@Item_field@@QEAAKXZ 00000000004c1570 f i item.obj
 0001:000c05d0       ?push_front@?$List@VItem@@@@QEAAHPEAVItem@@@Z 00000000004c15d0 f i item.obj
 0001:000c0620       ?push_front@base_list@@QEAAHPEAX@Z 00000000004c1620 f i item.obj
 0001:000c0770       ?push_back@?$List@VItem_field@@@@QEAAHPEAVItem_field@@@Z 00000000004c1770 f i item.obj
 0001:000c07c0       ?head@?$List@VItem_field@@@@QEAAPEAVItem_field@@XZ 00000000004c17c0 f i item.obj
 0001:000c0800       ?head@base_list@@QEAAPEAXXZ 00000000004c1800 f i item.obj
 0001:000c0820       ?push_back@?$List@VItem_outer_ref@@@@QEAAHPEAVItem_outer_ref@@@Z 00000000004c1820 f i item.obj
 0001:000c0870       ??0?$List_iterator@VItem_field@@@@QEAA@AEAV?$List@VItem_field@@@@@Z 00000000004c1870 f i item.obj
 0001:000c08d0       ??E?$List_iterator@VItem_field@@@@QEAAPEAVItem_field@@H@Z 00000000004c18d0 f i item.obj
 0001:000c0920       ??0?$List_iterator_fast@VItem_equal@@@@QEAA@AEAV?$List@VItem_equal@@@@@Z 00000000004c1920 f i item.obj
 0001:000c0980       ??E?$List_iterator_fast@VItem_equal@@@@QEAAPEAVItem_equal@@H@Z 00000000004c1980 f i item.obj
 0001:000c09d0       ??_EItem_splocal@@WJA@EAAPEAXI@Z 00000000004c19d0 f i item.obj
 0001:000c09e0       ??0Hybrid_type_traits@@QEAA@XZ 00000000004c19e0 f i item.obj
 0001:000c0a10       ?type@Hybrid_type_traits@@UEBA?AW4Item_result@@XZ 00000000004c1a10 f i item.obj
 0001:000c0a20       ?set_zero@Hybrid_type_traits@@UEBAXPEAUHybrid_type@@@Z 00000000004c1a20 f i item.obj
 0001:000c0a50       ?add@Hybrid_type_traits@@UEBAXPEAUHybrid_type@@PEAVField@@@Z 00000000004c1a50 f i item.obj
 0001:000c0ad0       ?div@Hybrid_type_traits@@UEBAXPEAUHybrid_type@@_K@Z 00000000004c1ad0 f i item.obj
 0001:000c0b30       ?val_int@Hybrid_type_traits@@UEBA_JPEAUHybrid_type@@H@Z 00000000004c1b30 f i item.obj
 0001:000c0b90       ?val_real@Hybrid_type_traits@@UEBANPEAUHybrid_type@@@Z 00000000004c1b90 f i item.obj
 0001:000c0be0       ??_EHybrid_type_traits@@UEAAPEAXI@Z 00000000004c1be0 f i item.obj
 0001:000c0be0       ??_GHybrid_type_traits@@UEAAPEAXI@Z 00000000004c1be0 f i item.obj
 0001:000c0c50       ??1Hybrid_type_traits@@UEAA@XZ 00000000004c1c50 f i item.obj
 0001:000c0c70       ??0Hybrid_type_traits_decimal@@QEAA@XZ 00000000004c1c70 f i item.obj
 0001:000c0cd0       ?type@Hybrid_type_traits_decimal@@UEBA?AW4Item_result@@XZ 00000000004c1cd0 f i item.obj
 0001:000c0ce0       ?val_decimal@Hybrid_type_traits_decimal@@UEBAPEAVmy_decimal@@PEAUHybrid_type@@PEAV2@@Z 00000000004c1ce0 f i item.obj
 0001:000c0d20       ??_GHybrid_type_traits_decimal@@UEAAPEAXI@Z 00000000004c1d20 f i item.obj
 0001:000c0d20       ??_EHybrid_type_traits_decimal@@UEAAPEAXI@Z 00000000004c1d20 f i item.obj
 0001:000c0d90       ??1Hybrid_type_traits_decimal@@UEAA@XZ 00000000004c1d90 f i item.obj
 0001:000c0dd0       ??0Hybrid_type_traits_integer@@QEAA@XZ 00000000004c1dd0 f i item.obj
 0001:000c0e30       ?type@Hybrid_type_traits_integer@@UEBA?AW4Item_result@@XZ 00000000004c1e30 f i item.obj
 0001:000c0e40       ?set_zero@Hybrid_type_traits_integer@@UEBAXPEAUHybrid_type@@@Z 00000000004c1e40 f i item.obj
 0001:000c0e60       ?add@Hybrid_type_traits_integer@@UEBAXPEAUHybrid_type@@PEAVField@@@Z 00000000004c1e60 f i item.obj
 0001:000c0ed0       ?div@Hybrid_type_traits_integer@@UEBAXPEAUHybrid_type@@_K@Z 00000000004c1ed0 f i item.obj
 0001:000c0f10       ?val_int@Hybrid_type_traits_integer@@UEBA_JPEAUHybrid_type@@H@Z 00000000004c1f10 f i item.obj
 0001:000c0f30       ?val_real@Hybrid_type_traits_integer@@UEBANPEAUHybrid_type@@@Z 00000000004c1f30 f i item.obj
 0001:000c0f80       ?val_decimal@Hybrid_type_traits_integer@@UEBAPEAVmy_decimal@@PEAUHybrid_type@@PEAV2@@Z 00000000004c1f80 f i item.obj
 0001:000c1000       ?val_str@Hybrid_type_traits_integer@@UEBAPEAVString@@PEAUHybrid_type@@PEAV2@E@Z 00000000004c2000 f i item.obj
 0001:000c1070       ??_GHybrid_type_traits_integer@@UEAAPEAXI@Z 00000000004c2070 f i item.obj
 0001:000c1070       ??_EHybrid_type_traits_integer@@UEAAPEAXI@Z 00000000004c2070 f i item.obj
 0001:000c10e0       ??1Hybrid_type_traits_integer@@UEAA@XZ 00000000004c20e0 f i item.obj
 0001:000c1120       ?new_Cached_item@@YAPEAVCached_item@@PEAVTHD@@PEAVItem@@@Z 00000000004c2120 f   item_buff.obj
 0001:000c14f0       ??1Cached_item@@UEAA@XZ    00000000004c24f0 f   item_buff.obj
 0001:000c1560       ??0Cached_item_str@@QEAA@PEAVTHD@@PEAVItem@@@Z 00000000004c2560 f   item_buff.obj
 0001:000c1690       ?cmp@Cached_item_str@@UEAAHXZ 00000000004c2690 f   item_buff.obj
 0001:000c1820       ??1Cached_item_str@@UEAA@XZ 00000000004c2820 f   item_buff.obj
 0001:000c1900       ?cmp@Cached_item_real@@UEAAHXZ 00000000004c2900 f   item_buff.obj
 0001:000c19b0       ?cmp@Cached_item_int@@UEAAHXZ 00000000004c29b0 f   item_buff.obj
 0001:000c1a60       ?cmp@Cached_item_field@@UEAAHXZ 00000000004c2a60 f   item_buff.obj
 0001:000c1b90       ??0Cached_item_decimal@@QEAA@PEAVItem@@@Z 00000000004c2b90 f   item_buff.obj
 0001:000c1c50       ?cmp@Cached_item_decimal@@UEAAHXZ 00000000004c2c50 f   item_buff.obj
 0001:000c2090       ??0Cached_item_real@@QEAA@PEAVItem@@@Z 00000000004c3090 f i item_buff.obj
 0001:000c2120       ??0Cached_item@@QEAA@XZ    00000000004c3120 f i item_buff.obj
 0001:000c2190       ??_GCached_item@@UEAAPEAXI@Z 00000000004c3190 f i item_buff.obj
 0001:000c2190       ??_ECached_item@@UEAAPEAXI@Z 00000000004c3190 f i item_buff.obj
 0001:000c2200       ??_ECached_item_real@@UEAAPEAXI@Z 00000000004c3200 f i item_buff.obj
 0001:000c2200       ??_GCached_item_real@@UEAAPEAXI@Z 00000000004c3200 f i item_buff.obj
 0001:000c2270       ??1Cached_item_real@@UEAA@XZ 00000000004c3270 f i item_buff.obj
 0001:000c22b0       ??0Cached_item_int@@QEAA@PEAVItem@@@Z 00000000004c32b0 f i item_buff.obj
 0001:000c2330       ??_GCached_item_int@@UEAAPEAXI@Z 00000000004c3330 f i item_buff.obj
 0001:000c2330       ??_ECached_item_int@@UEAAPEAXI@Z 00000000004c3330 f i item_buff.obj
 0001:000c23a0       ??1Cached_item_int@@UEAA@XZ 00000000004c33a0 f i item_buff.obj
 0001:000c23e0       ??0Cached_item_field@@QEAA@PEAVItem_field@@@Z 00000000004c33e0 f i item_buff.obj
 0001:000c24f0       ??_GCached_item_field@@UEAAPEAXI@Z 00000000004c34f0 f i item_buff.obj
 0001:000c24f0       ??_ECached_item_field@@UEAAPEAXI@Z 00000000004c34f0 f i item_buff.obj
 0001:000c2560       ??1Cached_item_field@@UEAA@XZ 00000000004c3560 f i item_buff.obj
 0001:000c25a0       ??0String@@QEAA@K@Z        00000000004c35a0 f i item_buff.obj
 0001:000c2630       ??_GCached_item_str@@UEAAPEAXI@Z 00000000004c3630 f i item_buff.obj
 0001:000c2630       ??_ECached_item_str@@UEAAPEAXI@Z 00000000004c3630 f i item_buff.obj
 0001:000c26a0       ?cmp@Field@@QEAAHPEBD@Z    00000000004c36a0 f i item_buff.obj
 0001:000c2710       ??_GCached_item_decimal@@UEAAPEAXI@Z 00000000004c3710 f i item_buff.obj
 0001:000c2710       ??_ECached_item_decimal@@UEAAPEAXI@Z 00000000004c3710 f i item_buff.obj
 0001:000c2780       ??1Cached_item_decimal@@UEAA@XZ 00000000004c3780 f i item_buff.obj
 0001:000c27c0       ?create@Eq_creator@@UEBAPEAVItem_bool_func2@@PEAVItem@@0@Z 00000000004c37c0 f   item_cmpfunc.obj
 0001:000c2880       ?create@Ne_creator@@UEBAPEAVItem_bool_func2@@PEAVItem@@0@Z 00000000004c3880 f   item_cmpfunc.obj
 0001:000c2940       ?create@Gt_creator@@UEBAPEAVItem_bool_func2@@PEAVItem@@0@Z 00000000004c3940 f   item_cmpfunc.obj
 0001:000c2a00       ?create@Lt_creator@@UEBAPEAVItem_bool_func2@@PEAVItem@@0@Z 00000000004c3a00 f   item_cmpfunc.obj
 0001:000c2ac0       ?create@Ge_creator@@UEBAPEAVItem_bool_func2@@PEAVItem@@0@Z 00000000004c3ac0 f   item_cmpfunc.obj
 0001:000c2b80       ?create@Le_creator@@UEBAPEAVItem_bool_func2@@PEAVItem@@0@Z 00000000004c3b80 f   item_cmpfunc.obj
 0001:000c2c40       ?val_int@Item_func_not@@UEAA_JXZ 00000000004c3c40 f   item_cmpfunc.obj
 0001:000c2d00       ?print@Item_func_not@@UEAAXPEAVString@@@Z 00000000004c3d00 f   item_cmpfunc.obj
 0001:000c2d60       ?val_int@Item_func_not_all@@UEAA_JXZ 00000000004c3d60 f   item_cmpfunc.obj
 0001:000c2e40       ?empty_underlying_subquery@Item_func_not_all@@QEAAHXZ 00000000004c3e40 f   item_cmpfunc.obj
 0001:000c2ed0       ?print@Item_func_not_all@@UEAAXPEAVString@@@Z 00000000004c3ed0 f   item_cmpfunc.obj
 0001:000c2f50       ?val_int@Item_func_nop_all@@UEAA_JXZ 00000000004c3f50 f   item_cmpfunc.obj
 0001:000c3030       ?fix_length_and_dec@Item_bool_func2@@UEAAXXZ 00000000004c4030 f   item_cmpfunc.obj
 0001:000c3730       ?set_compare_func@Arg_comparator@@QEAAHPEAVItem_bool_func2@@W4Item_result@@@Z 00000000004c4730 f   item_cmpfunc.obj
 0001:000c4010       ?can_compare_as_dates@Arg_comparator@@SA?AW4enum_date_cmp_type@1@PEAVItem@@0PEA_K@Z 00000000004c5010 f   item_cmpfunc.obj
 0001:000c44f0       ?get_time_value@@YA_KPEAVTHD@@PEAPEAPEAVItem@@PEAPEAV2@PEAV2@PEAH@Z 00000000004c54f0 f   item_cmpfunc.obj
 0001:000c4730       ?set_cmp_func@Arg_comparator@@QEAAHPEAVItem_bool_func2@@PEAPEAVItem@@1W4Item_result@@@Z 00000000004c5730 f   item_cmpfunc.obj
 0001:000c4ba0       ?set_datetime_cmp_func@Arg_comparator@@QEAAXPEAPEAVItem@@0@Z 00000000004c5ba0 f   item_cmpfunc.obj
 0001:000c4ca0       ?get_datetime_value@@YA_KPEAVTHD@@PEAPEAPEAVItem@@PEAPEAV2@PEAV2@PEAH@Z 00000000004c5ca0 f   item_cmpfunc.obj
 0001:000c5070       ?compare_datetime@Arg_comparator@@QEAAHXZ 00000000004c6070 f   item_cmpfunc.obj
 0001:000c52a0       ?compare_string@Arg_comparator@@QEAAHXZ 00000000004c62a0 f   item_cmpfunc.obj
 0001:000c53b0       ?compare_binary_string@Arg_comparator@@QEAAHXZ 00000000004c63b0 f   item_cmpfunc.obj
 0001:000c5570       ?compare_e_string@Arg_comparator@@QEAAHXZ 00000000004c6570 f   item_cmpfunc.obj
 0001:000c56a0       ?compare_e_binary_string@Arg_comparator@@QEAAHXZ 00000000004c66a0 f   item_cmpfunc.obj
 0001:000c57d0       ?compare_real@Arg_comparator@@QEAAHXZ 00000000004c67d0 f   item_cmpfunc.obj
 0001:000c58d0       ?compare_decimal@Arg_comparator@@QEAAHXZ 00000000004c68d0 f   item_cmpfunc.obj
 0001:000c5a00       ?compare_e_real@Arg_comparator@@QEAAHXZ 00000000004c6a00 f   item_cmpfunc.obj
 0001:000c5b10       ?compare_e_decimal@Arg_comparator@@QEAAHXZ 00000000004c6b10 f   item_cmpfunc.obj
 0001:000c5c90       ?compare_real_fixed@Arg_comparator@@QEAAHXZ 00000000004c6c90 f   item_cmpfunc.obj
 0001:000c5db0       ?compare_e_real_fixed@Arg_comparator@@QEAAHXZ 00000000004c6db0 f   item_cmpfunc.obj
 0001:000c5ee0       ?compare_int_signed@Arg_comparator@@QEAAHXZ 00000000004c6ee0 f   item_cmpfunc.obj
 0001:000c5fd0       ?compare_int_unsigned@Arg_comparator@@QEAAHXZ 00000000004c6fd0 f   item_cmpfunc.obj
 0001:000c60c0       ?compare_int_signed_unsigned@Arg_comparator@@QEAAHXZ 00000000004c70c0 f   item_cmpfunc.obj
 0001:000c61b0       ?compare_int_unsigned_signed@Arg_comparator@@QEAAHXZ 00000000004c71b0 f   item_cmpfunc.obj
 0001:000c62b0       ?compare_e_int@Arg_comparator@@QEAAHXZ 00000000004c72b0 f   item_cmpfunc.obj
 0001:000c63b0       ?compare_e_int_diff_signedness@Arg_comparator@@QEAAHXZ 00000000004c73b0 f   item_cmpfunc.obj
 0001:000c64d0       ?compare_row@Arg_comparator@@QEAAHXZ 00000000004c74d0 f   item_cmpfunc.obj
 0001:000c6670       ?compare_e_row@Arg_comparator@@QEAAHXZ 00000000004c7670 f   item_cmpfunc.obj
 0001:000c6750       ?fix_length_and_dec@Item_func_truth@@UEAAXXZ 00000000004c7750 f   item_cmpfunc.obj
 0001:000c6790       ?print@Item_func_truth@@UEAAXPEAVString@@@Z 00000000004c7790 f   item_cmpfunc.obj
 0001:000c6880       ?val_bool@Item_func_truth@@UEAAHXZ 00000000004c7880 f   item_cmpfunc.obj
 0001:000c6970       ?val_int@Item_func_truth@@UEAA_JXZ 00000000004c7970 f   item_cmpfunc.obj
 0001:000c69d0       ?fix_left@Item_in_optimizer@@QEAAHPEAVTHD@@PEAPEAVItem@@@Z 00000000004c79d0 f   item_cmpfunc.obj
 0001:000c6d20       ?fix_fields@Item_in_optimizer@@UEAAHPEAVTHD@@PEAPEAVItem@@@Z 00000000004c7d20 f   item_cmpfunc.obj
 0001:000c7000       ?val_int@Item_in_optimizer@@UEAA_JXZ 00000000004c8000 f   item_cmpfunc.obj
 0001:000c7360       ?keep_top_level_cache@Item_in_optimizer@@QEAAXXZ 00000000004c8360 f   item_cmpfunc.obj
 0001:000c73c0       ?cleanup@Item_in_optimizer@@UEAAXXZ 00000000004c83c0 f   item_cmpfunc.obj
 0001:000c74a0       ?is_null@Item_in_optimizer@@UEAAHXZ 00000000004c84a0 f   item_cmpfunc.obj
 0001:000c7570       ?val_int@Item_func_eq@@UEAA_JXZ 00000000004c8570 f   item_cmpfunc.obj
 0001:000c7600       ?fix_length_and_dec@Item_func_equal@@UEAAXXZ 00000000004c8600 f   item_cmpfunc.obj
 0001:000c7650       ?val_int@Item_func_equal@@UEAA_JXZ 00000000004c8650 f   item_cmpfunc.obj
 0001:000c76c0       ?val_int@Item_func_ne@@UEAA_JXZ 00000000004c86c0 f   item_cmpfunc.obj
 0001:000c7760       ?val_int@Item_func_ge@@UEAA_JXZ 00000000004c8760 f   item_cmpfunc.obj
 0001:000c77f0       ?val_int@Item_func_gt@@UEAA_JXZ 00000000004c87f0 f   item_cmpfunc.obj
 0001:000c7880       ?val_int@Item_func_le@@UEAA_JXZ 00000000004c8880 f   item_cmpfunc.obj
 0001:000c7920       ?val_int@Item_func_lt@@UEAA_JXZ 00000000004c8920 f   item_cmpfunc.obj
 0001:000c79c0       ?val_int@Item_func_strcmp@@UEAA_JXZ 00000000004c89c0 f   item_cmpfunc.obj
 0001:000c7b50       ?eq@Item_func_opt_neg@@UEBAHPEBVItem@@H@Z 00000000004c8b50 f   item_cmpfunc.obj
 0001:000c7cd0       ?fix_length_and_dec@Item_func_interval@@UEAAXXZ 00000000004c8cd0 f   item_cmpfunc.obj
 0001:000c82a0       ?val_int@Item_func_interval@@UEAA_JXZ 00000000004c92a0 f   item_cmpfunc.obj
 0001:000c88c0       ?fix_fields@Item_func_between@@UEAAHPEAVTHD@@PEAPEAVItem@@@Z 00000000004c98c0 f   item_cmpfunc.obj
 0001:000c8a20       ?fix_length_and_dec@Item_func_between@@UEAAXXZ 00000000004c9a20 f   item_cmpfunc.obj
 0001:000c9040       ?val_int@Item_func_between@@UEAA_JXZ 00000000004ca040 f   item_cmpfunc.obj
 0001:000c9cd0       ?print@Item_func_between@@UEAAXPEAVString@@@Z 00000000004cacd0 f   item_cmpfunc.obj
 0001:000c9df0       ?fix_length_and_dec@Item_func_ifnull@@UEAAXXZ 00000000004cadf0 f   item_cmpfunc.obj
 0001:000ca2e0       ?decimal_precision@Item_func_ifnull@@UEBAIXZ 00000000004cb2e0 f   item_cmpfunc.obj
 0001:000ca3b0       ?field_type@Item_func_ifnull@@UEBA?AW4enum_field_types@@XZ 00000000004cb3b0 f   item_cmpfunc.obj
 0001:000ca3d0       ?tmp_table_field@Item_func_ifnull@@UEAAPEAVField@@PEAUst_table@@@Z 00000000004cb3d0 f   item_cmpfunc.obj
 0001:000ca420       ?real_op@Item_func_ifnull@@UEAANXZ 00000000004cb420 f   item_cmpfunc.obj
 0001:000ca520       ?int_op@Item_func_ifnull@@UEAA_JXZ 00000000004cb520 f   item_cmpfunc.obj
 0001:000ca620       ?decimal_op@Item_func_ifnull@@UEAAPEAVmy_decimal@@PEAV2@@Z 00000000004cb620 f   item_cmpfunc.obj
 0001:000ca730       ?str_op@Item_func_ifnull@@UEAAPEAVString@@PEAV2@@Z 00000000004cb730 f   item_cmpfunc.obj
 0001:000ca860       ?fix_fields@Item_func_if@@UEAAHPEAVTHD@@PEAPEAVItem@@@Z 00000000004cb860 f   item_cmpfunc.obj
 0001:000ca980       ?fix_length_and_dec@Item_func_if@@UEAAXXZ 00000000004cb980 f   item_cmpfunc.obj
 0001:000caea0       ?decimal_precision@Item_func_if@@UEBAIXZ 00000000004cbea0 f   item_cmpfunc.obj
 0001:000caf60       ?val_real@Item_func_if@@UEAANXZ 00000000004cbf60 f   item_cmpfunc.obj
 0001:000cb040       ?val_int@Item_func_if@@UEAA_JXZ 00000000004cc040 f   item_cmpfunc.obj
 0001:000cb120       ?val_str@Item_func_if@@UEAAPEAVString@@PEAV2@@Z 00000000004cc120 f   item_cmpfunc.obj
 0001:000cb220       ?val_decimal@Item_func_if@@UEAAPEAVmy_decimal@@PEAV2@@Z 00000000004cc220 f   item_cmpfunc.obj
 0001:000cb310       ?fix_length_and_dec@Item_func_nullif@@UEAAXXZ 00000000004cc310 f   item_cmpfunc.obj
 0001:000cb420       ?val_real@Item_func_nullif@@UEAANXZ 00000000004cc420 f   item_cmpfunc.obj
 0001:000cb4e0       ?val_int@Item_func_nullif@@UEAA_JXZ 00000000004cc4e0 f   item_cmpfunc.obj
 0001:000cb5a0       ?val_str@Item_func_nullif@@UEAAPEAVString@@PEAV2@@Z 00000000004cc5a0 f   item_cmpfunc.obj
 0001:000cb670       ?val_decimal@Item_func_nullif@@UEAAPEAVmy_decimal@@PEAV2@@Z 00000000004cc670 f   item_cmpfunc.obj
 0001:000cb740       ?is_null@Item_func_nullif@@UEAAHXZ 00000000004cc740 f   item_cmpfunc.obj
 0001:000cb7c0       ?find_item@Item_func_case@@QEAAPEAVItem@@PEAVString@@@Z 00000000004cc7c0 f   item_cmpfunc.obj
 0001:000cc110       ?val_str@Item_func_case@@UEAAPEAVString@@PEAV2@@Z 00000000004cd110 f   item_cmpfunc.obj
 0001:000cc1d0       ?val_int@Item_func_case@@UEAA_JXZ 00000000004cd1d0 f   item_cmpfunc.obj
 0001:000cc380       ?val_real@Item_func_case@@UEAANXZ 00000000004cd380 f   item_cmpfunc.obj
 0001:000cc530       ?val_decimal@Item_func_case@@UEAAPEAVmy_decimal@@PEAV2@@Z 00000000004cd530 f   item_cmpfunc.obj
 0001:000cc6f0       ?fix_fields@Item_func_case@@UEAAHPEAVTHD@@PEAPEAVItem@@@Z 00000000004cd6f0 f   item_cmpfunc.obj
 0001:000cc7c0       ?fix_length_and_dec@Item_func_case@@UEAAXXZ 00000000004cd7c0 f   item_cmpfunc.obj
 0001:000ccc00       ?decimal_precision@Item_func_case@@UEBAIXZ 00000000004cdc00 f   item_cmpfunc.obj
 0001:000ccd40       ?print@Item_func_case@@UEAAXPEAVString@@@Z 00000000004cdd40 f   item_cmpfunc.obj
 0001:000ccf40       ?str_op@Item_func_coalesce@@UEAAPEAVString@@PEAV2@@Z 00000000004cdf40 f   item_cmpfunc.obj
 0001:000cd020       ?int_op@Item_func_coalesce@@UEAA_JXZ 00000000004ce020 f   item_cmpfunc.obj
 0001:000cd110       ?real_op@Item_func_coalesce@@UEAANXZ 00000000004ce110 f   item_cmpfunc.obj
 0001:000cd200       ?decimal_op@Item_func_coalesce@@UEAAPEAVmy_decimal@@PEAV2@@Z 00000000004ce200 f   item_cmpfunc.obj
 0001:000cd2f0       ?fix_length_and_dec@Item_func_coalesce@@UEAAXXZ 00000000004ce2f0 f   item_cmpfunc.obj
 0001:000cd420       ?cmp_longlong@@YAHPEAXPEAUpacked_longlong@in_longlong@@1@Z 00000000004ce420 f   item_cmpfunc.obj
 0001:000cd630       ?find@in_vector@@QEAAHPEAVItem@@@Z 00000000004ce630 f   item_cmpfunc.obj
 0001:000cd790       ??0in_string@@QEAA@IP6AHPEBX00@ZPEAUcharset_info_st@@@Z 00000000004ce790 f   item_cmpfunc.obj
 0001:000cd870       ??1in_string@@UEAA@XZ      00000000004ce870 f   item_cmpfunc.obj
 0001:000cd980       ?set@in_string@@UEAAXIPEAVItem@@@Z 00000000004ce980 f   item_cmpfunc.obj
 0001:000cda70       ?get_value@in_string@@UEAAPEAEPEAVItem@@@Z 00000000004cea70 f   item_cmpfunc.obj
 0001:000cdad0       ??0in_row@@QEAA@IPEAVItem@@@Z 00000000004cead0 f   item_cmpfunc.obj
 0001:000cdd30       ??1in_row@@UEAA@XZ         00000000004ced30 f   item_cmpfunc.obj
 0001:000cde80       ?get_value@in_row@@UEAAPEAEPEAVItem@@@Z 00000000004cee80 f   item_cmpfunc.obj
 0001:000cdf00       ?set@in_row@@UEAAXIPEAVItem@@@Z 00000000004cef00 f   item_cmpfunc.obj
 0001:000ce070       ??0in_longlong@@QEAA@I@Z   00000000004cf070 f   item_cmpfunc.obj
 0001:000ce0e0       ?set@in_longlong@@UEAAXIPEAVItem@@@Z 00000000004cf0e0 f   item_cmpfunc.obj
 0001:000ce160       ?get_value@in_longlong@@UEAAPEAEPEAVItem@@@Z 00000000004cf160 f   item_cmpfunc.obj
 0001:000ce1e0       ?set@in_datetime@@UEAAXIPEAVItem@@@Z 00000000004cf1e0 f   item_cmpfunc.obj
 0001:000ce2a0       ?get_value@in_datetime@@UEAAPEAEPEAVItem@@@Z 00000000004cf2a0 f   item_cmpfunc.obj
 0001:000ce3a0       ??0in_double@@QEAA@I@Z     00000000004cf3a0 f   item_cmpfunc.obj
 0001:000ce4a0       ?set@in_double@@UEAAXIPEAVItem@@@Z 00000000004cf4a0 f   item_cmpfunc.obj
 0001:000ce500       ?get_value@in_double@@UEAAPEAEPEAVItem@@@Z 00000000004cf500 f   item_cmpfunc.obj
 0001:000ce570       ??0in_decimal@@QEAA@I@Z    00000000004cf570 f   item_cmpfunc.obj
 0001:000ce690       ?set@in_decimal@@UEAAXIPEAVItem@@@Z 00000000004cf690 f   item_cmpfunc.obj
 0001:000ce740       ?get_value@in_decimal@@UEAAPEAEPEAVItem@@@Z 00000000004cf740 f   item_cmpfunc.obj
 0001:000ce7c0       ?get_comparator@cmp_item@@SAPEAV1@W4Item_result@@PEAUcharset_info_st@@@Z 00000000004cf7c0 f   item_cmpfunc.obj
 0001:000ceae0       ?make_same@cmp_item_sort_string@@UEAAPEAVcmp_item@@XZ 00000000004cfae0 f   item_cmpfunc.obj
 0001:000ceb90       ?make_same@cmp_item_int@@UEAAPEAVcmp_item@@XZ 00000000004cfb90 f   item_cmpfunc.obj
 0001:000cec40       ?make_same@cmp_item_real@@UEAAPEAVcmp_item@@XZ 00000000004cfc40 f   item_cmpfunc.obj
 0001:000cecf0       ?make_same@cmp_item_row@@UEAAPEAVcmp_item@@XZ 00000000004cfcf0 f   item_cmpfunc.obj
 0001:000ceda0       ??1cmp_item_row@@UEAA@XZ   00000000004cfda0 f   item_cmpfunc.obj
 0001:000cefb0       ?store_value@cmp_item_row@@UEAAXPEAVItem@@@Z 00000000004cffb0 f   item_cmpfunc.obj
 0001:000cf2d0       ?store_value_by_template@cmp_item_row@@UEAAXPEAVcmp_item@@PEAVItem@@@Z 00000000004d02d0 f   item_cmpfunc.obj
 0001:000cf4c0       ?cmp@cmp_item_row@@UEAAHPEAVItem@@@Z 00000000004d04c0 f   item_cmpfunc.obj
 0001:000cf620       ?compare@cmp_item_row@@UEAAHPEAVcmp_item@@@Z 00000000004d0620 f   item_cmpfunc.obj
 0001:000cf6e0       ?store_value@cmp_item_decimal@@UEAAXPEAVItem@@@Z 00000000004d06e0 f   item_cmpfunc.obj
 0001:000cf770       ?cmp@cmp_item_decimal@@UEAAHPEAVItem@@@Z 00000000004d0770 f   item_cmpfunc.obj
 0001:000cf820       ?compare@cmp_item_decimal@@UEAAHPEAVcmp_item@@@Z 00000000004d0820 f   item_cmpfunc.obj
 0001:000cf880       ?make_same@cmp_item_decimal@@UEAAPEAVcmp_item@@XZ 00000000004d0880 f   item_cmpfunc.obj
 0001:000cf930       ?store_value@cmp_item_datetime@@UEAAXPEAVItem@@@Z 00000000004d0930 f   item_cmpfunc.obj
 0001:000cfa00       ?cmp@cmp_item_datetime@@UEAAHPEAVItem@@@Z 00000000004d0a00 f   item_cmpfunc.obj
 0001:000cfab0       ?compare@cmp_item_datetime@@UEAAHPEAVcmp_item@@@Z 00000000004d0ab0 f   item_cmpfunc.obj
 0001:000cfb40       ?make_same@cmp_item_datetime@@UEAAPEAVcmp_item@@XZ 00000000004d0b40 f   item_cmpfunc.obj
 0001:000cfbf0       ?nulls_in_row@Item_func_in@@QEAAHXZ 00000000004d0bf0 f   item_cmpfunc.obj
 0001:000cfca0       ?fix_fields@Item_func_in@@UEAAHPEAVTHD@@PEAPEAVItem@@@Z 00000000004d0ca0 f   item_cmpfunc.obj
 0001:000cfe00       ?fix_length_and_dec@Item_func_in@@UEAAXXZ 00000000004d0e00 f   item_cmpfunc.obj
 0001:000d0e20       ?print@Item_func_in@@UEAAXPEAVString@@@Z 00000000004d1e20 f   item_cmpfunc.obj
 0001:000d0ef0       ?val_int@Item_func_in@@UEAA_JXZ 00000000004d1ef0 f   item_cmpfunc.obj
 0001:000d11a0       ?val_int@Item_func_bit_or@@UEAA_JXZ 00000000004d21a0 f   item_cmpfunc.obj
 0001:000d12a0       ?val_int@Item_func_bit_and@@UEAA_JXZ 00000000004d22a0 f   item_cmpfunc.obj
 0001:000d13a0       ??0Item_cond@@QEAA@PEAVTHD@@PEAV0@@Z 00000000004d23a0 f   item_cmpfunc.obj
 0001:000d1480       ?copy_andor_arguments@Item_cond@@QEAAXPEAVTHD@@PEAV1@@Z 00000000004d2480 f   item_cmpfunc.obj
 0001:000d1530       ?fix_fields@Item_cond@@UEAAHPEAVTHD@@PEAPEAVItem@@@Z 00000000004d2530 f   item_cmpfunc.obj
 0001:000d19b0       ?walk@Item_cond@@UEAAHP8Item@@EAAHPEAE@Z0@Z 00000000004d29b0 f   item_cmpfunc.obj
 0001:000d1a80       ?transform@Item_cond@@UEAAPEAVItem@@P82@EAAPEAV2@PEAE@Z0@Z 00000000004d2a80 f   item_cmpfunc.obj
 0001:000d1bc0       ?compile@Item_cond@@UEAAPEAVItem@@P82@EAAHPEAPEAE@Z0P82@EAAPEAV2@PEAE@Z2@Z 00000000004d2bc0 f   item_cmpfunc.obj
 0001:000d1d10       ?traverse_cond@Item_cond@@UEAAXP6AXPEBVItem@@PEAX@Z1W4traverse_order@2@@Z 00000000004d2d10 f   item_cmpfunc.obj
 0001:000d1e70       ?split_sum_func@Item_cond@@UEAAXPEAVTHD@@PEAPEAVItem@@AEAV?$List@VItem@@@@@Z 00000000004d2e70 f   item_cmpfunc.obj
 0001:000d1f30       ?used_tables@Item_cond@@UEBA_KXZ 00000000004d2f30 f   item_cmpfunc.obj
 0001:000d1f50       ?update_used_tables@Item_cond@@UEAAXXZ 00000000004d2f50 f   item_cmpfunc.obj
 0001:000d2060       ?print@Item_cond@@UEAAXPEAVString@@@Z 00000000004d3060 f   item_cmpfunc.obj
 0001:000d2170       ?neg_arguments@Item_cond@@QEAAXPEAVTHD@@@Z 00000000004d3170 f   item_cmpfunc.obj
 0001:000d22c0       ?val_int@Item_cond_and@@UEAA_JXZ 00000000004d32c0 f   item_cmpfunc.obj
 0001:000d23f0       ?val_int@Item_cond_or@@UEAA_JXZ 00000000004d33f0 f   item_cmpfunc.obj
 0001:000d24e0       ?and_expressions@@YAPEAVItem@@PEAV1@0PEAPEAV1@@Z 00000000004d34e0 f   item_cmpfunc.obj
 0001:000d2750       ?val_int@Item_func_isnull@@UEAA_JXZ 00000000004d3750 f   item_cmpfunc.obj
 0001:000d2810       ?val_int@Item_is_not_null_test@@UEAA_JXZ 00000000004d3810 f   item_cmpfunc.obj
 0001:000d2aa0       ?update_used_tables@Item_is_not_null_test@@UEAAXXZ 00000000004d3aa0 f   item_cmpfunc.obj
 0001:000d2bc0       ?val_int@Item_func_isnotnull@@UEAA_JXZ 00000000004d3bc0 f   item_cmpfunc.obj
 0001:000d2c60       ?print@Item_func_isnotnull@@UEAAXPEAVString@@@Z 00000000004d3c60 f   item_cmpfunc.obj
 0001:000d2ce0       ?val_int@Item_func_like@@UEAA_JXZ 00000000004d3ce0 f   item_cmpfunc.obj
 0001:000d2ff0       ?select_optimize@Item_func_like@@UEBA?AW4optimize_type@Item_func@@XZ 00000000004d3ff0 f   item_cmpfunc.obj
 0001:000d3100       ?fix_fields@Item_func_like@@UEAAHPEAVTHD@@PEAPEAVItem@@@Z 00000000004d4100 f   item_cmpfunc.obj
 0001:000d3900       ?cleanup@Item_func_like@@UEAAXXZ 00000000004d4900 f   item_cmpfunc.obj
 0001:000d3950       ?fix_fields@Item_func_regex@@UEAAHPEAVTHD@@PEAPEAVItem@@@Z 00000000004d4950 f   item_cmpfunc.obj
 0001:000d3ff0       ?val_int@Item_func_regex@@UEAA_JXZ 00000000004d4ff0 f   item_cmpfunc.obj
 0001:000d4440       ?cleanup@Item_func_regex@@UEAAXXZ 00000000004d5440 f   item_cmpfunc.obj
 0001:000d4540       ?turboBM_compute_suffixes@Item_func_like@@AEAAXPEAH@Z 00000000004d5540 f   item_cmpfunc.obj
 0001:000d4800       ?turboBM_compute_good_suffix_shifts@Item_func_like@@AEAAXPEAH@Z 00000000004d5800 f   item_cmpfunc.obj
 0001:000d4a30       ?turboBM_compute_bad_character_shifts@Item_func_like@@AEAAXXZ 00000000004d5a30 f   item_cmpfunc.obj
 0001:000d4ba0       ?turboBM_matches@Item_func_like@@AEBAHPEBDH@Z 00000000004d5ba0 f   item_cmpfunc.obj
 0001:000d5060       ?val_int@Item_cond_xor@@UEAA_JXZ 00000000004d6060 f   item_cmpfunc.obj
 0001:000d5180       ?neg_transformer@Item_func_not@@UEAAPEAVItem@@PEAVTHD@@@Z 00000000004d6180 f   item_cmpfunc.obj
 0001:000d51a0       ?neg_transformer@Item_bool_rowready_func2@@UEAAPEAVItem@@PEAVTHD@@@Z 00000000004d61a0 f   item_cmpfunc.obj
 0001:000d5200       ?neg_transformer@Item_func_isnull@@UEAAPEAVItem@@PEAVTHD@@@Z 00000000004d6200 f   item_cmpfunc.obj
 0001:000d52c0       ?neg_transformer@Item_func_isnotnull@@UEAAPEAVItem@@PEAVTHD@@@Z 00000000004d62c0 f   item_cmpfunc.obj
 0001:000d5380       ?neg_transformer@Item_cond_and@@UEAAPEAVItem@@PEAVTHD@@@Z 00000000004d6380 f   item_cmpfunc.obj
 0001:000d5450       ?neg_transformer@Item_cond_or@@UEAAPEAVItem@@PEAVTHD@@@Z 00000000004d6450 f   item_cmpfunc.obj
 0001:000d5520       ?neg_transformer@Item_func_nop_all@@UEAAPEAVItem@@PEAVTHD@@@Z 00000000004d6520 f   item_cmpfunc.obj
 0001:000d5650       ?neg_transformer@Item_func_not_all@@UEAAPEAVItem@@PEAVTHD@@@Z 00000000004d6650 f   item_cmpfunc.obj
 0001:000d5780       ?negated_item@Item_func_eq@@UEAAPEAVItem@@XZ 00000000004d6780 f   item_cmpfunc.obj
 0001:000d5840       ?negated_item@Item_func_ne@@UEAAPEAVItem@@XZ 00000000004d6840 f   item_cmpfunc.obj
 0001:000d5900       ?negated_item@Item_func_lt@@UEAAPEAVItem@@XZ 00000000004d6900 f   item_cmpfunc.obj
 0001:000d59c0       ?negated_item@Item_func_ge@@UEAAPEAVItem@@XZ 00000000004d69c0 f   item_cmpfunc.obj
 0001:000d5a80       ?negated_item@Item_func_gt@@UEAAPEAVItem@@XZ 00000000004d6a80 f   item_cmpfunc.obj
 0001:000d5b40       ?negated_item@Item_func_le@@UEAAPEAVItem@@XZ 00000000004d6b40 f   item_cmpfunc.obj
 0001:000d5c00       ?negated_item@Item_bool_rowready_func2@@UEAAPEAVItem@@XZ 00000000004d6c00 f   item_cmpfunc.obj
 0001:000d5c60       ??0Item_equal@@QEAA@PEAVItem_field@@0@Z 00000000004d6c60 f   item_cmpfunc.obj
 0001:000d5da0       ??0Item_equal@@QEAA@PEAVItem@@PEAVItem_field@@@Z 00000000004d6da0 f   item_cmpfunc.obj
 0001:000d5ed0       ??0Item_equal@@QEAA@PEAV0@@Z 00000000004d6ed0 f   item_cmpfunc.obj
 0001:000d6090       ?add@Item_equal@@QEAAXPEAVItem@@@Z 00000000004d7090 f   item_cmpfunc.obj
 0001:000d61f0       ?add@Item_equal@@QEAAXPEAVItem_field@@@Z 00000000004d71f0 f   item_cmpfunc.obj
 0001:000d6240       ?members@Item_equal@@QEAAIXZ 00000000004d7240 f   item_cmpfunc.obj
 0001:000d6260       ?contains@Item_equal@@QEAAHPEAVField@@@Z 00000000004d7260 f   item_cmpfunc.obj
 0001:000d6310       ?merge@Item_equal@@QEAAXPEAV1@@Z 00000000004d7310 f   item_cmpfunc.obj
 0001:000d63b0       ?sort@Item_equal@@QEAAXP6AHPEAVItem_field@@0PEAX@Z1@Z 00000000004d73b0 f   item_cmpfunc.obj
 0001:000d6510       ?update_const@Item_equal@@QEAAXXZ 00000000004d7510 f   item_cmpfunc.obj
 0001:000d65c0       ?fix_fields@Item_equal@@UEAAHPEAVTHD@@PEAPEAVItem@@@Z 00000000004d75c0 f   item_cmpfunc.obj
 0001:000d6740       ?update_used_tables@Item_equal@@UEAAXXZ 00000000004d7740 f   item_cmpfunc.obj
 0001:000d6870       ?val_int@Item_equal@@UEAA_JXZ 00000000004d7870 f   item_cmpfunc.obj
 0001:000d6a20       ?fix_length_and_dec@Item_equal@@UEAAXXZ 00000000004d7a20 f   item_cmpfunc.obj
 0001:000d6a90       ?walk@Item_equal@@UEAAHP8Item@@EAAHPEAE@Z0@Z 00000000004d7a90 f   item_cmpfunc.obj
 0001:000d6b60       ?transform@Item_equal@@UEAAPEAVItem@@P82@EAAPEAV2@PEAE@Z0@Z 00000000004d7b60 f   item_cmpfunc.obj
 0001:000d6ca0       ?print@Item_equal@@UEAAXPEAVString@@@Z 00000000004d7ca0 f   item_cmpfunc.obj
 0001:000dbf60       ??0Item_func_eq@@QEAA@PEAVItem@@0@Z 00000000004dcf60 f i item_cmpfunc.obj
 0001:000dbfe0       ?result_type@Item_int_func@@UEBA?AW4Item_result@@XZ 00000000004dcfe0 f i item_cmpfunc.obj
 0001:000dbff0       ?select_optimize@Item_bool_func2@@UEBA?AW4optimize_type@Item_func@@XZ 00000000004dcff0 f i item_cmpfunc.obj
 0001:000dc000       ?have_rev_func@Item_bool_func2@@UEBAHXZ 00000000004dd000 f i item_cmpfunc.obj
 0001:000dc070       ?print@Item_bool_func2@@UEAAXPEAVString@@@Z 00000000004dd070 f i item_cmpfunc.obj
 0001:000dc0c0       ?is_null@Item_bool_func2@@UEAAHXZ 00000000004dd0c0 f i item_cmpfunc.obj
 0001:000dc170       ?is_bool_func@Item_bool_func2@@UEAAHXZ 00000000004dd170 f i item_cmpfunc.obj
 0001:000dc180       ?compare_collation@Item_bool_func2@@UEAAPEAUcharset_info_st@@XZ 00000000004dd180 f i item_cmpfunc.obj
 0001:000dc1a0       ?decimal_precision@Item_bool_func2@@UEBAIXZ 00000000004dd1a0 f i item_cmpfunc.obj
 0001:000dc1b0       ?top_level_item@Item_bool_func2@@UEAAXXZ 00000000004dd1b0 f i item_cmpfunc.obj
 0001:000dc1d0       ??0Item_bool_rowready_func2@@QEAA@PEAVItem@@0@Z 00000000004dd1d0 f i item_cmpfunc.obj
 0001:000dc260       ??0Item_bool_func2@@QEAA@PEAVItem@@0@Z 00000000004dd260 f i item_cmpfunc.obj
 0001:000dc430       ??0Item_int_func@@QEAA@PEAVItem@@0@Z 00000000004dd430 f i item_cmpfunc.obj
 0001:000dc4b0       ??0Item_func@@QEAA@PEAVItem@@0@Z 00000000004dd4b0 f i item_cmpfunc.obj
 0001:000dc5c0       ?fix_length_and_dec@Item_int_func@@UEAAXXZ 00000000004dd5c0 f i item_cmpfunc.obj
 0001:000dc5d0       ??_EItem_int_func@@UEAAPEAXI@Z 00000000004dd5d0 f i item_cmpfunc.obj
 0001:000dc5d0       ??_GItem_int_func@@UEAAPEAXI@Z 00000000004dd5d0 f i item_cmpfunc.obj
 0001:000dc640       ??1Item_int_func@@UEAA@XZ  00000000004dd640 f i item_cmpfunc.obj
 0001:000dc680       ??0Arg_comparator@@QEAA@PEAPEAVItem@@0@Z 00000000004dd680 f i item_cmpfunc.obj
 0001:000dc780       ??0DTCollation@@QEAA@XZ    00000000004dd780 f i item_cmpfunc.obj
 0001:000dc7d0       ?rev_functype@Item_bool_func2@@UEBA?AW4Functype@Item_func@@XZ 00000000004dd7d0 f i item_cmpfunc.obj
 0001:000dc7e0       ??_EItem_bool_func2@@UEAAPEAXI@Z 00000000004dd7e0 f i item_cmpfunc.obj
 0001:000dc7e0       ??_GItem_bool_func2@@UEAAPEAXI@Z 00000000004dd7e0 f i item_cmpfunc.obj
 0001:000dc850       ??1Arg_comparator@@QEAA@XZ 00000000004dd850 f i item_cmpfunc.obj
 0001:000dc890       ??1Item_bool_func2@@UEAA@XZ 00000000004dd890 f i item_cmpfunc.obj
 0001:000dc9e0       ?subst_argument_checker@Item_bool_rowready_func2@@UEAAHPEAPEAE@Z 00000000004dd9e0 f i item_cmpfunc.obj
 0001:000dca00       ??_EItem_bool_rowready_func2@@UEAAPEAXI@Z 00000000004dda00 f i item_cmpfunc.obj
 0001:000dca00       ??_GItem_bool_rowready_func2@@UEAAPEAXI@Z 00000000004dda00 f i item_cmpfunc.obj
 0001:000dca70       ??1Item_bool_rowready_func2@@UEAA@XZ 00000000004dda70 f i item_cmpfunc.obj
 0001:000dcab0       ?functype@Item_func_eq@@UEBA?AW4Functype@Item_func@@XZ 00000000004ddab0 f i item_cmpfunc.obj
 0001:000dcac0       ?rev_functype@Item_func_eq@@UEBA?AW4Functype@Item_func@@XZ 00000000004ddac0 f i item_cmpfunc.obj
 0001:000dcad0       ?eq_cmp_result@Item_func_eq@@UEBA?AW4cond_result@Item@@XZ 00000000004ddad0 f i item_cmpfunc.obj
 0001:000dcae0       ?func_name@Item_func_eq@@UEBAPEBDXZ 00000000004ddae0 f i item_cmpfunc.obj
 0001:000dcb00       ??_EItem_func_eq@@UEAAPEAXI@Z 00000000004ddb00 f i item_cmpfunc.obj
 0001:000dcb00       ??_GItem_func_eq@@UEAAPEAXI@Z 00000000004ddb00 f i item_cmpfunc.obj
 0001:000dcb70       ??1Item_func_eq@@UEAA@XZ   00000000004ddb70 f i item_cmpfunc.obj
 0001:000dcbb0       ??0Item_func_ne@@QEAA@PEAVItem@@0@Z 00000000004ddbb0 f i item_cmpfunc.obj
 0001:000dcc30       ?functype@Item_func_ne@@UEBA?AW4Functype@Item_func@@XZ 00000000004ddc30 f i item_cmpfunc.obj
 0001:000dcc40       ?eq_cmp_result@Item_func_ne@@UEBA?AW4cond_result@Item@@XZ 00000000004ddc40 f i item_cmpfunc.obj
 0001:000dcc50       ?select_optimize@Item_func_ne@@UEBA?AW4optimize_type@Item_func@@XZ 00000000004ddc50 f i item_cmpfunc.obj
 0001:000dcc60       ?func_name@Item_func_ne@@UEBAPEBDXZ 00000000004ddc60 f i item_cmpfunc.obj
 0001:000dcc80       ??_GItem_func_ne@@UEAAPEAXI@Z 00000000004ddc80 f i item_cmpfunc.obj
 0001:000dcc80       ??_EItem_func_ne@@UEAAPEAXI@Z 00000000004ddc80 f i item_cmpfunc.obj
 0001:000dccf0       ??1Item_func_ne@@UEAA@XZ   00000000004ddcf0 f i item_cmpfunc.obj
 0001:000dcd30       ??0Item_func_gt@@QEAA@PEAVItem@@0@Z 00000000004ddd30 f i item_cmpfunc.obj
 0001:000dcdb0       ?functype@Item_func_gt@@UEBA?AW4Functype@Item_func@@XZ 00000000004dddb0 f i item_cmpfunc.obj
 0001:000dcdc0       ?rev_functype@Item_func_gt@@UEBA?AW4Functype@Item_func@@XZ 00000000004dddc0 f i item_cmpfunc.obj
 0001:000dcdd0       ?eq_cmp_result@Item_func_gt@@UEBA?AW4cond_result@Item@@XZ 00000000004dddd0 f i item_cmpfunc.obj
 0001:000dcde0       ?func_name@Item_func_gt@@UEBAPEBDXZ 00000000004ddde0 f i item_cmpfunc.obj
 0001:000dce00       ??_EItem_func_gt@@UEAAPEAXI@Z 00000000004dde00 f i item_cmpfunc.obj
 0001:000dce00       ??_GItem_func_gt@@UEAAPEAXI@Z 00000000004dde00 f i item_cmpfunc.obj
 0001:000dce70       ??1Item_func_gt@@UEAA@XZ   00000000004dde70 f i item_cmpfunc.obj
 0001:000dceb0       ??0Item_func_lt@@QEAA@PEAVItem@@0@Z 00000000004ddeb0 f i item_cmpfunc.obj
 0001:000dcf30       ?functype@Item_func_lt@@UEBA?AW4Functype@Item_func@@XZ 00000000004ddf30 f i item_cmpfunc.obj
 0001:000dcf40       ?rev_functype@Item_func_lt@@UEBA?AW4Functype@Item_func@@XZ 00000000004ddf40 f i item_cmpfunc.obj
 0001:000dcf50       ?eq_cmp_result@Item_func_lt@@UEBA?AW4cond_result@Item@@XZ 00000000004ddf50 f i item_cmpfunc.obj
 0001:000dcf60       ?func_name@Item_func_lt@@UEBAPEBDXZ 00000000004ddf60 f i item_cmpfunc.obj
 0001:000dcf80       ??_EItem_func_lt@@UEAAPEAXI@Z 00000000004ddf80 f i item_cmpfunc.obj
 0001:000dcf80       ??_GItem_func_lt@@UEAAPEAXI@Z 00000000004ddf80 f i item_cmpfunc.obj
 0001:000dcff0       ??1Item_func_lt@@UEAA@XZ   00000000004ddff0 f i item_cmpfunc.obj
 0001:000dd030       ??0Item_func_ge@@QEAA@PEAVItem@@0@Z 00000000004de030 f i item_cmpfunc.obj
 0001:000dd0b0       ?functype@Item_func_ge@@UEBA?AW4Functype@Item_func@@XZ 00000000004de0b0 f i item_cmpfunc.obj
 0001:000dd0c0       ?rev_functype@Item_func_ge@@UEBA?AW4Functype@Item_func@@XZ 00000000004de0c0 f i item_cmpfunc.obj
 0001:000dd0d0       ?eq_cmp_result@Item_func_ge@@UEBA?AW4cond_result@Item@@XZ 00000000004de0d0 f i item_cmpfunc.obj
 0001:000dd0e0       ?func_name@Item_func_ge@@UEBAPEBDXZ 00000000004de0e0 f i item_cmpfunc.obj
 0001:000dd100       ??_EItem_func_ge@@UEAAPEAXI@Z 00000000004de100 f i item_cmpfunc.obj
 0001:000dd100       ??_GItem_func_ge@@UEAAPEAXI@Z 00000000004de100 f i item_cmpfunc.obj
 0001:000dd170       ??1Item_func_ge@@UEAA@XZ   00000000004de170 f i item_cmpfunc.obj
 0001:000dd1b0       ??0Item_func_le@@QEAA@PEAVItem@@0@Z 00000000004de1b0 f i item_cmpfunc.obj
 0001:000dd230       ?functype@Item_func_le@@UEBA?AW4Functype@Item_func@@XZ 00000000004de230 f i item_cmpfunc.obj
 0001:000dd240       ?rev_functype@Item_func_le@@UEBA?AW4Functype@Item_func@@XZ 00000000004de240 f i item_cmpfunc.obj
 0001:000dd250       ?eq_cmp_result@Item_func_le@@UEBA?AW4cond_result@Item@@XZ 00000000004de250 f i item_cmpfunc.obj
 0001:000dd260       ?func_name@Item_func_le@@UEBAPEBDXZ 00000000004de260 f i item_cmpfunc.obj
 0001:000dd280       ??_GItem_func_le@@UEAAPEAXI@Z 00000000004de280 f i item_cmpfunc.obj
 0001:000dd280       ??_EItem_func_le@@UEAAPEAXI@Z 00000000004de280 f i item_cmpfunc.obj
 0001:000dd2f0       ??1Item_func_le@@UEAA@XZ   00000000004de2f0 f i item_cmpfunc.obj
 0001:000dd330       ?any_value@Item_sum_hybrid@@QEAAHXZ 00000000004de330 f i item_cmpfunc.obj
 0001:000dd350       ?any_value@Item_maxmin_subselect@@QEAAHXZ 00000000004de350 f i item_cmpfunc.obj
 0001:000dd370       ?agg_arg_charsets@Item_func@@QEAAHAEAVDTCollation@@PEAPEAVItem@@IIH@Z 00000000004de370 f i item_cmpfunc.obj
 0001:000dd400       ?set_cmp_func@Item_bool_func2@@QEAAXXZ 00000000004de400 f i item_cmpfunc.obj
 0001:000dd490       ?set_cmp_func@Arg_comparator@@QEAAHPEAVItem_bool_func2@@PEAPEAVItem@@1@Z 00000000004de490 f i item_cmpfunc.obj
 0001:000dd560       ?is_context_analysis_only@THD@@QEAAHXZ 00000000004de560 f i item_cmpfunc.obj
 0001:000dd5e0       ??0Item_int_with_ref@@QEAA@_JPEAVItem@@D@Z 00000000004de5e0 f i item_cmpfunc.obj
 0001:000dd680       ??0Item_int@@QEAA@_JI@Z    00000000004de680 f i item_cmpfunc.obj
 0001:000dd720       ?save_in_field@Item_int_with_ref@@UEAAHPEAVField@@H@Z 00000000004de720 f i item_cmpfunc.obj
 0001:000dd790       ?real_item@Item_int_with_ref@@UEAAPEAVItem@@XZ 00000000004de790 f i item_cmpfunc.obj
 0001:000dd7b0       ??_EItem_int_with_ref@@UEAAPEAXI@Z 00000000004de7b0 f i item_cmpfunc.obj
 0001:000dd7b0       ??_GItem_int_with_ref@@UEAAPEAXI@Z 00000000004de7b0 f i item_cmpfunc.obj
 0001:000dd820       ??1Item_int_with_ref@@UEAA@XZ 00000000004de820 f i item_cmpfunc.obj
 0001:000dd860       ??_USql_alloc@@SAPEAX_K@Z  00000000004de860 f i item_cmpfunc.obj
 0001:000dd8a0       ??_VSql_alloc@@SAXPEAX_K@Z 00000000004de8a0 f i item_cmpfunc.obj
 0001:000dd900       ?set@DTCollation@@QEAAHAEAV1@0I@Z 00000000004de900 f i item_cmpfunc.obj
 0001:000dd980       ??0Arg_comparator@@QEAA@XZ 00000000004de980 f i item_cmpfunc.obj
 0001:000dda50       ??_EArg_comparator@@QEAAPEAXI@Z 00000000004dea50 f i item_cmpfunc.obj
 0001:000ddb30       ?set_used_tables@Item_cache@@QEAAX_K@Z 00000000004deb30 f i item_cmpfunc.obj
 0001:000ddb60       ?compare@Arg_comparator@@QEAAHXZ 00000000004deb60 f i item_cmpfunc.obj
 0001:000ddbb0       ?set_cond_guard_var@Item_in_subselect@@QEAAXHH@Z 00000000004debb0 f i item_cmpfunc.obj
 0001:000ddc00       ?is_top_level_item@Item_in_subselect@@QEAAHXZ 00000000004dec00 f i item_cmpfunc.obj
 0001:000ddc20       ?arguments@Item_func@@QEBAPEAPEAVItem@@XZ 00000000004dec20 f i item_cmpfunc.obj
 0001:000ddc40       ??0in_vector@@QEAA@IIP6AHPEBX00@ZPEAUcharset_info_st@@@Z 00000000004dec40 f i item_cmpfunc.obj
 0001:000ddd60       ??1in_vector@@UEAA@XZ      00000000004ded60 f i item_cmpfunc.obj
 0001:000ddde0       ?create_item@in_vector@@UEAAPEAVItem@@XZ 00000000004dede0 f i item_cmpfunc.obj
 0001:000dddf0       ?value_to_item@in_vector@@UEAAXIPEAVItem@@@Z 00000000004dedf0 f i item_cmpfunc.obj
 0001:000dde10       ??_Gin_vector@@UEAAPEAXI@Z 00000000004dee10 f i item_cmpfunc.obj
 0001:000dde10       ??_Ein_vector@@UEAAPEAXI@Z 00000000004dee10 f i item_cmpfunc.obj
 0001:000dde80       ?create_item@in_string@@UEAAPEAVItem@@XZ 00000000004dee80 f i item_cmpfunc.obj
 0001:000ddf70       ??0Item_string@@QEAA@PEAUcharset_info_st@@W4Derivation@@@Z 00000000004def70 f i item_cmpfunc.obj
 0001:000de080       ?value_to_item@in_string@@UEAAXIPEAVItem@@@Z 00000000004df080 f i item_cmpfunc.obj
 0001:000de110       ??4String@@QEAAAEAV0@AEBV0@@Z 00000000004df110 f i item_cmpfunc.obj
 0001:000de1f0       ?uses_buffer_owned_by@String@@QEBAHPEBV1@@Z 00000000004df1f0 f i item_cmpfunc.obj
 0001:000de290       ??_Gin_string@@UEAAPEAXI@Z 00000000004df290 f i item_cmpfunc.obj
 0001:000de290       ??_Ein_string@@UEAAPEAXI@Z 00000000004df290 f i item_cmpfunc.obj
 0001:000de300       ??0in_vector@@QEAA@XZ      00000000004df300 f i item_cmpfunc.obj
 0001:000de370       ??0cmp_item_row@@QEAA@XZ   00000000004df370 f i item_cmpfunc.obj
 0001:000de3f0       ??0cmp_item@@QEAA@XZ       00000000004df3f0 f i item_cmpfunc.obj
 0001:000de470       ?store_value_by_template@cmp_item@@UEAAXPEAV1@PEAVItem@@@Z 00000000004df470 f i item_cmpfunc.obj
 0001:000de4d0       ??_Gcmp_item@@UEAAPEAXI@Z  00000000004df4d0 f i item_cmpfunc.obj
 0001:000de4d0       ??_Ecmp_item@@UEAAPEAXI@Z  00000000004df4d0 f i item_cmpfunc.obj
 0001:000de540       ??1cmp_item@@UEAA@XZ       00000000004df540 f i item_cmpfunc.obj
 0001:000de5c0       ??_Gin_row@@UEAAPEAXI@Z    00000000004df5c0 f i item_cmpfunc.obj
 0001:000de5c0       ??_Ein_row@@UEAAPEAXI@Z    00000000004df5c0 f i item_cmpfunc.obj
 0001:000de630       ??_Ecmp_item_row@@UEAAPEAXI@Z 00000000004df630 f i item_cmpfunc.obj
 0001:000de710       ?create_item@in_longlong@@UEAAPEAVItem@@XZ 00000000004df710 f i item_cmpfunc.obj
 0001:000de7f0       ?value_to_item@in_longlong@@UEAAXIPEAVItem@@@Z 00000000004df7f0 f i item_cmpfunc.obj
 0001:000de850       ??_Gin_longlong@@UEAAPEAXI@Z 00000000004df850 f i item_cmpfunc.obj
 0001:000de850       ??_Ein_longlong@@UEAAPEAXI@Z 00000000004df850 f i item_cmpfunc.obj
 0001:000de8c0       ??1in_longlong@@UEAA@XZ    00000000004df8c0 f i item_cmpfunc.obj
 0001:000de900       ?create_item@in_double@@UEAAPEAVItem@@XZ 00000000004df900 f i item_cmpfunc.obj
 0001:000de9e0       ??0Item_float@@QEAA@N@Z    00000000004df9e0 f i item_cmpfunc.obj
 0001:000dea70       ?value_to_item@in_double@@UEAAXIPEAVItem@@@Z 00000000004dfa70 f i item_cmpfunc.obj
 0001:000deab0       ??_Ein_double@@UEAAPEAXI@Z 00000000004dfab0 f i item_cmpfunc.obj
 0001:000deab0       ??_Gin_double@@UEAAPEAXI@Z 00000000004dfab0 f i item_cmpfunc.obj
 0001:000deb20       ??1in_double@@UEAA@XZ      00000000004dfb20 f i item_cmpfunc.obj
 0001:000deb60       ?create_item@in_decimal@@UEAAPEAVItem@@XZ 00000000004dfb60 f i item_cmpfunc.obj
 0001:000dec40       ?value_to_item@in_decimal@@UEAAXIPEAVItem@@@Z 00000000004dfc40 f i item_cmpfunc.obj
 0001:000decc0       ??_Ein_decimal@@UEAAPEAXI@Z 00000000004dfcc0 f i item_cmpfunc.obj
 0001:000decc0       ??_Gin_decimal@@UEAAPEAXI@Z 00000000004dfcc0 f i item_cmpfunc.obj
 0001:000ded30       ??1in_decimal@@UEAA@XZ     00000000004dfd30 f i item_cmpfunc.obj
 0001:000ded70       ??0cmp_item_sort_string@@QEAA@PEAUcharset_info_st@@@Z 00000000004dfd70 f i item_cmpfunc.obj
 0001:000dee50       ??0cmp_item_string@@QEAA@PEAUcharset_info_st@@@Z 00000000004dfe50 f i item_cmpfunc.obj
 0001:000deec0       ??_Gcmp_item_string@@UEAAPEAXI@Z 00000000004dfec0 f i item_cmpfunc.obj
 0001:000deec0       ??_Ecmp_item_string@@UEAAPEAXI@Z 00000000004dfec0 f i item_cmpfunc.obj
 0001:000def30       ??1cmp_item_string@@UEAA@XZ 00000000004dff30 f i item_cmpfunc.obj
 0001:000def70       ?store_value@cmp_item_sort_string@@UEAAXPEAVItem@@@Z 00000000004dff70 f i item_cmpfunc.obj
 0001:000deff0       ?cmp@cmp_item_sort_string@@UEAAHPEAVItem@@@Z 00000000004dfff0 f i item_cmpfunc.obj
 0001:000df200       ?compare@cmp_item_sort_string@@UEAAHPEAVcmp_item@@@Z 00000000004e0200 f i item_cmpfunc.obj
 0001:000df270       ??_Ecmp_item_sort_string@@UEAAPEAXI@Z 00000000004e0270 f i item_cmpfunc.obj
 0001:000df270       ??_Gcmp_item_sort_string@@UEAAPEAXI@Z 00000000004e0270 f i item_cmpfunc.obj
 0001:000df2e0       ??1cmp_item_sort_string@@UEAA@XZ 00000000004e02e0 f i item_cmpfunc.obj
 0001:000df370       ??0cmp_item_int@@QEAA@XZ   00000000004e0370 f i item_cmpfunc.obj
 0001:000df3d0       ?store_value@cmp_item_int@@UEAAXPEAVItem@@@Z 00000000004e03d0 f i item_cmpfunc.obj
 0001:000df430       ?cmp@cmp_item_int@@UEAAHPEAVItem@@@Z 00000000004e0430 f i item_cmpfunc.obj
 0001:000df4b0       ?compare@cmp_item_int@@UEAAHPEAVcmp_item@@@Z 00000000004e04b0 f i item_cmpfunc.obj
 0001:000df560       ??_Ecmp_item_int@@UEAAPEAXI@Z 00000000004e0560 f i item_cmpfunc.obj
 0001:000df560       ??_Gcmp_item_int@@UEAAPEAXI@Z 00000000004e0560 f i item_cmpfunc.obj
 0001:000df5d0       ??1cmp_item_int@@UEAA@XZ   00000000004e05d0 f i item_cmpfunc.obj
 0001:000df610       ??0cmp_item_real@@QEAA@XZ  00000000004e0610 f i item_cmpfunc.obj
 0001:000df670       ?store_value@cmp_item_real@@UEAAXPEAVItem@@@Z 00000000004e0670 f i item_cmpfunc.obj
 0001:000df6d0       ?cmp@cmp_item_real@@UEAAHPEAVItem@@@Z 00000000004e06d0 f i item_cmpfunc.obj
 0001:000df750       ?compare@cmp_item_real@@UEAAHPEAVcmp_item@@@Z 00000000004e0750 f i item_cmpfunc.obj
 0001:000df800       ??_Gcmp_item_real@@UEAAPEAXI@Z 00000000004e0800 f i item_cmpfunc.obj
 0001:000df800       ??_Ecmp_item_real@@UEAAPEAXI@Z 00000000004e0800 f i item_cmpfunc.obj
 0001:000df870       ??1cmp_item_real@@UEAA@XZ  00000000004e0870 f i item_cmpfunc.obj
 0001:000df8b0       ??0cmp_item_decimal@@QEAA@XZ 00000000004e08b0 f i item_cmpfunc.obj
 0001:000df970       ??_Ecmp_item_decimal@@UEAAPEAXI@Z 00000000004e0970 f i item_cmpfunc.obj
 0001:000df970       ??_Gcmp_item_decimal@@UEAAPEAXI@Z 00000000004e0970 f i item_cmpfunc.obj
 0001:000df9e0       ??1cmp_item_decimal@@UEAA@XZ 00000000004e09e0 f i item_cmpfunc.obj
 0001:000dfa20       ??0cmp_item_sort_string_in_static@@QEAA@PEAUcharset_info_st@@@Z 00000000004e0a20 f i item_cmpfunc.obj
 0001:000dfae0       ?store_value@cmp_item_sort_string_in_static@@UEAAXPEAVItem@@@Z 00000000004e0ae0 f i item_cmpfunc.obj
 0001:000dfb60       ?cmp@cmp_item_sort_string_in_static@@UEAAHPEAVItem@@@Z 00000000004e0b60 f i item_cmpfunc.obj
 0001:000dfbd0       ?compare@cmp_item_sort_string_in_static@@UEAAHPEAVcmp_item@@@Z 00000000004e0bd0 f i item_cmpfunc.obj
 0001:000dfc40       ?make_same@cmp_item_sort_string_in_static@@UEAAPEAVcmp_item@@XZ 00000000004e0c40 f i item_cmpfunc.obj
 0001:000dfd20       ??_Ecmp_item_sort_string_in_static@@UEAAPEAXI@Z 00000000004e0d20 f i item_cmpfunc.obj
 0001:000dfd20       ??_Gcmp_item_sort_string_in_static@@UEAAPEAXI@Z 00000000004e0d20 f i item_cmpfunc.obj
 0001:000dfd90       ??1cmp_item_sort_string_in_static@@UEAA@XZ 00000000004e0d90 f i item_cmpfunc.obj
 0001:000dfe20       ?alloc_comparators@cmp_item_row@@QEAAXXZ 00000000004e0e20 f i item_cmpfunc.obj
 0001:000dfea0       ??0cmp_item_datetime@@QEAA@PEAVItem@@@Z 00000000004e0ea0 f i item_cmpfunc.obj
 0001:000dff70       ??_Gcmp_item_datetime@@UEAAPEAXI@Z 00000000004e0f70 f i item_cmpfunc.obj
 0001:000dff70       ??_Ecmp_item_datetime@@UEAAPEAXI@Z 00000000004e0f70 f i item_cmpfunc.obj
 0001:000dffe0       ??1cmp_item_datetime@@UEAA@XZ 00000000004e0fe0 f i item_cmpfunc.obj
 0001:000e0020       ?sort@in_vector@@QEAAXXZ   00000000004e1020 f i item_cmpfunc.obj
 0001:000e00a0       ??0in_datetime@@QEAA@PEAVItem@@I@Z 00000000004e10a0 f i item_cmpfunc.obj
 0001:000e0180       ??_Ein_datetime@@UEAAPEAXI@Z 00000000004e1180 f i item_cmpfunc.obj
 0001:000e0180       ??_Gin_datetime@@UEAAPEAXI@Z 00000000004e1180 f i item_cmpfunc.obj
 0001:000e01f0       ??1in_datetime@@UEAA@XZ    00000000004e11f0 f i item_cmpfunc.obj
 0001:000e0230       ??0Item_bool_func@@QEAA@PEAVTHD@@PEAV0@@Z 00000000004e1230 f i item_cmpfunc.obj
 0001:000e02b0       ??0Item_int_func@@QEAA@PEAVTHD@@PEAV0@@Z 00000000004e12b0 f i item_cmpfunc.obj
 0001:000e0330       ?is_bool_func@Item_bool_func@@UEAAHXZ 00000000004e1330 f i item_cmpfunc.obj
 0001:000e0340       ?fix_length_and_dec@Item_bool_func@@UEAAXXZ 00000000004e1340 f i item_cmpfunc.obj
 0001:000e0370       ?decimal_precision@Item_bool_func@@UEBAIXZ 00000000004e1370 f i item_cmpfunc.obj
 0001:000e0380       ??_GItem_bool_func@@UEAAPEAXI@Z 00000000004e1380 f i item_cmpfunc.obj
 0001:000e0380       ??_EItem_bool_func@@UEAAPEAXI@Z 00000000004e1380 f i item_cmpfunc.obj
 0001:000e03f0       ??1Item_bool_func@@UEAA@XZ 00000000004e13f0 f i item_cmpfunc.obj
 0001:000e0430       ?type@Item_cond@@UEBA?AW4Type@Item@@XZ 00000000004e1430 f i item_cmpfunc.obj
 0001:000e0440       ?top_level_item@Item_cond@@UEAAXXZ 00000000004e1440 f i item_cmpfunc.obj
 0001:000e0460       ?subst_argument_checker@Item_cond@@UEAAHPEAPEAE@Z 00000000004e1460 f i item_cmpfunc.obj
 0001:000e0480       ??_EItem_cond@@UEAAPEAXI@Z 00000000004e1480 f i item_cmpfunc.obj
 0001:000e0480       ??_GItem_cond@@UEAAPEAXI@Z 00000000004e1480 f i item_cmpfunc.obj
 0001:000e04f0       ??1Item_cond@@UEAA@XZ      00000000004e14f0 f i item_cmpfunc.obj
 0001:000e0580       ?is_empty@base_list@@QEAAHXZ 00000000004e1580 f i item_cmpfunc.obj
 0001:000e05e0       ??0Item_func_not@@QEAA@PEAVItem@@@Z 00000000004e15e0 f i item_cmpfunc.obj
 0001:000e0650       ??0Item_bool_func@@QEAA@PEAVItem@@@Z 00000000004e1650 f i item_cmpfunc.obj
 0001:000e06c0       ??0Item_int_func@@QEAA@PEAVItem@@@Z 00000000004e16c0 f i item_cmpfunc.obj
 0001:000e0740       ?functype@Item_func_not@@UEBA?AW4Functype@Item_func@@XZ 00000000004e1740 f i item_cmpfunc.obj
 0001:000e0750       ?func_name@Item_func_not@@UEBAPEBDXZ 00000000004e1750 f i item_cmpfunc.obj
 0001:000e0770       ??_EItem_func_not@@UEAAPEAXI@Z 00000000004e1770 f i item_cmpfunc.obj
 0001:000e0770       ??_GItem_func_not@@UEAAPEAXI@Z 00000000004e1770 f i item_cmpfunc.obj
 0001:000e07e0       ??1Item_func_not@@UEAA@XZ  00000000004e17e0 f i item_cmpfunc.obj
 0001:000e0820       ?add@Item_cond@@QEAAHPEAVItem@@@Z 00000000004e1820 f i item_cmpfunc.obj
 0001:000e0880       ??0Item_cond_and@@QEAA@PEAVItem@@0@Z 00000000004e1880 f i item_cmpfunc.obj
 0001:000e0950       ??0Item_cond@@QEAA@PEAVItem@@0@Z 00000000004e1950 f i item_cmpfunc.obj
 0001:000e0aa0       ??0Item_bool_func@@QEAA@XZ 00000000004e1aa0 f i item_cmpfunc.obj
 0001:000e0b00       ??0Item_int_func@@QEAA@XZ  00000000004e1b00 f i item_cmpfunc.obj
 0001:000e0b70       ??0Item_func@@QEAA@XZ      00000000004e1b70 f i item_cmpfunc.obj
 0001:000e0c00       ??0COND_EQUAL@@QEAA@XZ     00000000004e1c00 f i item_cmpfunc.obj
 0001:000e0cb0       ?functype@Item_cond_and@@UEBA?AW4Functype@Item_func@@XZ 00000000004e1cb0 f i item_cmpfunc.obj
 0001:000e0cc0       ?func_name@Item_cond_and@@UEBAPEBDXZ 00000000004e1cc0 f i item_cmpfunc.obj
 0001:000e0ce0       ?not_null_tables@Item_cond_and@@UEBA_KXZ 00000000004e1ce0 f i item_cmpfunc.obj
 0001:000e0d60       ?copy_andor_structure@Item_cond_and@@UEAAPEAVItem@@PEAVTHD@@@Z 00000000004e1d60 f i item_cmpfunc.obj
 0001:000e0e70       ??0Item_cond_and@@QEAA@PEAVTHD@@PEAV0@@Z 00000000004e1e70 f i item_cmpfunc.obj
 0001:000e0f40       ??_EItem_cond_and@@UEAAPEAXI@Z 00000000004e1f40 f i item_cmpfunc.obj
 0001:000e0f40       ??_GItem_cond_and@@UEAAPEAXI@Z 00000000004e1f40 f i item_cmpfunc.obj
 0001:000e0fb0       ??1Item_cond_and@@UEAA@XZ  00000000004e1fb0 f i item_cmpfunc.obj
 0001:000e1040       ??1COND_EQUAL@@QEAA@XZ     00000000004e2040 f i item_cmpfunc.obj
 0001:000e10d0       ??1?$List@VItem_equal@@@@QEAA@XZ 00000000004e20d0 f i item_cmpfunc.obj
 0001:000e1110       ??0Item_func_isnotnull@@QEAA@PEAVItem@@@Z 00000000004e2110 f i item_cmpfunc.obj
 0001:000e1190       ?functype@Item_func_isnotnull@@UEBA?AW4Functype@Item_func@@XZ 00000000004e2190 f i item_cmpfunc.obj
 0001:000e11a0       ?fix_length_and_dec@Item_func_isnotnull@@UEAAXXZ 00000000004e21a0 f i item_cmpfunc.obj
 0001:000e11d0       ?func_name@Item_func_isnotnull@@UEBAPEBDXZ 00000000004e21d0 f i item_cmpfunc.obj
 0001:000e11f0       ?select_optimize@Item_func_isnotnull@@UEBA?AW4optimize_type@Item_func@@XZ 00000000004e21f0 f i item_cmpfunc.obj
 0001:000e1200       ?not_null_tables@Item_func_isnotnull@@UEBA_KXZ 00000000004e2200 f i item_cmpfunc.obj
 0001:000e1270       ?compare_collation@Item_func_isnotnull@@UEAAPEAUcharset_info_st@@XZ 00000000004e2270 f i item_cmpfunc.obj
 0001:000e1290       ?top_level_item@Item_func_isnotnull@@UEAAXXZ 00000000004e2290 f i item_cmpfunc.obj
 0001:000e12b0       ??_GItem_func_isnotnull@@UEAAPEAXI@Z 00000000004e22b0 f i item_cmpfunc.obj
 0001:000e12b0       ??_EItem_func_isnotnull@@UEAAPEAXI@Z 00000000004e22b0 f i item_cmpfunc.obj
 0001:000e1320       ??1Item_func_isnotnull@@UEAA@XZ 00000000004e2320 f i item_cmpfunc.obj
 0001:000e1360       ??0Item_func_isnull@@QEAA@PEAVItem@@@Z 00000000004e2360 f i item_cmpfunc.obj
 0001:000e13d0       ?functype@Item_func_isnull@@UEBA?AW4Functype@Item_func@@XZ 00000000004e23d0 f i item_cmpfunc.obj
 0001:000e13e0       ?fix_length_and_dec@Item_func_isnull@@UEAAXXZ 00000000004e23e0 f i item_cmpfunc.obj
 0001:000e1450       ?func_name@Item_func_isnull@@UEBAPEBDXZ 00000000004e2450 f i item_cmpfunc.obj
 0001:000e1470       ?update_used_tables@Item_func_isnull@@UEAAXXZ 00000000004e2470 f i item_cmpfunc.obj
 0001:000e15f0       ?not_null_tables@Item_func_isnull@@UEBA_KXZ 00000000004e25f0 f i item_cmpfunc.obj
 0001:000e1600       ?select_optimize@Item_func_isnull@@UEBA?AW4optimize_type@Item_func@@XZ 00000000004e2600 f i item_cmpfunc.obj
 0001:000e1610       ?compare_collation@Item_func_isnull@@UEAAPEAUcharset_info_st@@XZ 00000000004e2610 f i item_cmpfunc.obj
 0001:000e1630       ??_GItem_func_isnull@@UEAAPEAXI@Z 00000000004e2630 f i item_cmpfunc.obj
 0001:000e1630       ??_EItem_func_isnull@@UEAAPEAXI@Z 00000000004e2630 f i item_cmpfunc.obj
 0001:000e16a0       ??1Item_func_isnull@@UEAA@XZ 00000000004e26a0 f i item_cmpfunc.obj
 0001:000e16e0       ??0Item_cond_or@@QEAA@AEAV?$List@VItem@@@@@Z 00000000004e26e0 f i item_cmpfunc.obj
 0001:000e1750       ??0Item_cond@@QEAA@AEAV?$List@VItem@@@@@Z 00000000004e2750 f i item_cmpfunc.obj
 0001:000e1820       ?functype@Item_cond_or@@UEBA?AW4Functype@Item_func@@XZ 00000000004e2820 f i item_cmpfunc.obj
 0001:000e1830       ?func_name@Item_cond_or@@UEBAPEBDXZ 00000000004e2830 f i item_cmpfunc.obj
 0001:000e1850       ?not_null_tables@Item_cond_or@@UEBA_KXZ 00000000004e2850 f i item_cmpfunc.obj
 0001:000e1870       ?copy_andor_structure@Item_cond_or@@UEAAPEAVItem@@PEAVTHD@@@Z 00000000004e2870 f i item_cmpfunc.obj
 0001:000e1980       ??0Item_cond_or@@QEAA@PEAVTHD@@PEAV0@@Z 00000000004e2980 f i item_cmpfunc.obj
 0001:000e1a00       ??_GItem_cond_or@@UEAAPEAXI@Z 00000000004e2a00 f i item_cmpfunc.obj
 0001:000e1a00       ??_EItem_cond_or@@UEAAPEAXI@Z 00000000004e2a00 f i item_cmpfunc.obj
 0001:000e1a70       ??1Item_cond_or@@UEAA@XZ   00000000004e2a70 f i item_cmpfunc.obj
 0001:000e1ab0       ??0Item_cond_and@@QEAA@AEAV?$List@VItem@@@@@Z 00000000004e2ab0 f i item_cmpfunc.obj
 0001:000e1b70       ??0Item_func_not_all@@QEAA@PEAVItem@@@Z 00000000004e2b70 f i item_cmpfunc.obj
 0001:000e1c30       ?top_level_item@Item_func_not_all@@UEAAXXZ 00000000004e2c30 f i item_cmpfunc.obj
 0001:000e1c50       ?functype@Item_func_not_all@@UEBA?AW4Functype@Item_func@@XZ 00000000004e2c50 f i item_cmpfunc.obj
 0001:000e1c60       ?func_name@Item_func_not_all@@UEBAPEBDXZ 00000000004e2c60 f i item_cmpfunc.obj
 0001:000e1c80       ??_GItem_func_not_all@@UEAAPEAXI@Z 00000000004e2c80 f i item_cmpfunc.obj
 0001:000e1c80       ??_EItem_func_not_all@@UEAAPEAXI@Z 00000000004e2c80 f i item_cmpfunc.obj
 0001:000e1cf0       ??1Item_func_not_all@@UEAA@XZ 00000000004e2cf0 f i item_cmpfunc.obj
 0001:000e1d30       ??0Item_func_nop_all@@QEAA@PEAVItem@@@Z 00000000004e2d30 f i item_cmpfunc.obj
 0001:000e1da0       ?func_name@Item_func_nop_all@@UEBAPEBDXZ 00000000004e2da0 f i item_cmpfunc.obj
 0001:000e1dc0       ??_EItem_func_nop_all@@UEAAPEAXI@Z 00000000004e2dc0 f i item_cmpfunc.obj
 0001:000e1dc0       ??_GItem_func_nop_all@@UEAAPEAXI@Z 00000000004e2dc0 f i item_cmpfunc.obj
 0001:000e1e30       ??1Item_func_nop_all@@UEAA@XZ 00000000004e2e30 f i item_cmpfunc.obj
 0001:000e1e70       ?functype@Item_equal@@UEBA?AW4Functype@Item_func@@XZ 00000000004e2e70 f i item_cmpfunc.obj
 0001:000e1e80       ?func_name@Item_equal@@UEBAPEBDXZ 00000000004e2e80 f i item_cmpfunc.obj
 0001:000e1ea0       ?select_optimize@Item_equal@@UEBA?AW4optimize_type@Item_func@@XZ 00000000004e2ea0 f i item_cmpfunc.obj
 0001:000e1eb0       ?compare_collation@Item_equal@@UEAAPEAUcharset_info_st@@XZ 00000000004e2eb0 f i item_cmpfunc.obj
 0001:000e1f00       ??_EItem_equal@@UEAAPEAXI@Z 00000000004e2f00 f i item_cmpfunc.obj
 0001:000e1f00       ??_GItem_equal@@UEAAPEAXI@Z 00000000004e2f00 f i item_cmpfunc.obj
 0001:000e1f70       ??1?$List@VItem_field@@@@QEAA@XZ 00000000004e2f70 f i item_cmpfunc.obj
 0001:000e1fb0       ??1Item_equal@@UEAA@XZ     00000000004e2fb0 f i item_cmpfunc.obj
 0001:000e2040       ?quick_fix_field@Item@@QEAAXXZ 00000000004e3040 f i item_cmpfunc.obj
 0001:000e2060       ??0?$List@VItem@@@@QEAA@AEBV0@@Z 00000000004e3060 f i item_cmpfunc.obj
 0001:000e20c0       ??0base_list@@QEAA@AEBV0@@Z 00000000004e30c0 f i item_cmpfunc.obj
 0001:000e2180       ??0?$List@VItem_field@@@@QEAA@XZ 00000000004e3180 f i item_cmpfunc.obj
 0001:000e21d0       ?concat@?$List@VItem_field@@@@QEAAXPEAV1@@Z 00000000004e31d0 f i item_cmpfunc.obj
 0001:000e2220       ?concat@base_list@@QEAAXPEAV1@@Z 00000000004e3220 f i item_cmpfunc.obj
 0001:000e22c0       ??0?$List@VItem_equal@@@@QEAA@XZ 00000000004e32c0 f i item_cmpfunc.obj
 0001:000e2310       ??0?$List_iterator_fast@VItem_field@@@@QEAA@AEAV?$List@VItem_field@@@@@Z 00000000004e3310 f i item_cmpfunc.obj
 0001:000e2370       ??E?$List_iterator_fast@VItem_field@@@@QEAAPEAVItem_field@@H@Z 00000000004e3370 f i item_cmpfunc.obj
 0001:000e23c0       ??0?$List_iterator_fast@VItem@@@@QEAA@AEAV?$List@VItem@@@@@Z 00000000004e33c0 f i item_cmpfunc.obj
 0001:000e2420       ??E?$List_iterator_fast@VItem@@@@QEAAPEAVItem@@H@Z 00000000004e3420 f i item_cmpfunc.obj
 0001:000e2470       ??0?$List_iterator@VItem@@@@QEAA@AEAV?$List@VItem@@@@@Z 00000000004e3470 f i item_cmpfunc.obj
 0001:000e24d0       ??E?$List_iterator@VItem@@@@QEAAPEAVItem@@H@Z 00000000004e34d0 f i item_cmpfunc.obj
 0001:000e2520       ?replace@?$List_iterator@VItem@@@@QEAAPEAVItem@@PEAV2@@Z 00000000004e3520 f i item_cmpfunc.obj
 0001:000e2570       ?replace@base_list_iterator@@QEAAPEAXPEAX@Z 00000000004e3570 f i item_cmpfunc.obj
 0001:000e2620       ?replace@?$List_iterator@VItem@@@@QEAAPEAVItem@@AEAV?$List@VItem@@@@@Z 00000000004e3620 f i item_cmpfunc.obj
 0001:000e2670       ?replace@base_list_iterator@@QEAAPEAXAEAVbase_list@@@Z 00000000004e3670 f i item_cmpfunc.obj
 0001:000e27b0       ?ref@?$List_iterator@VItem@@@@QEAAPEAPEAVItem@@XZ 00000000004e37b0 f i item_cmpfunc.obj
 0001:000e27f0       ?ref@base_list_iterator@@QEAAPEAPEAXXZ 00000000004e37f0 f i item_cmpfunc.obj
 0001:000e2810       ?rewind@?$List_iterator@VItem_field@@@@QEAAXXZ 00000000004e3810 f i item_cmpfunc.obj
 0001:000e2850       ?remove@?$List_iterator@VItem_field@@@@QEAAXXZ 00000000004e3850 f i item_cmpfunc.obj
 0001:000e2890       ?remove@base_list_iterator@@QEAAXXZ 00000000004e3890 f i item_cmpfunc.obj
 0001:000e2910       ?remove@base_list@@QEAAXPEAPEAUlist_node@@@Z 00000000004e3910 f i item_cmpfunc.obj
 0001:000e2a20       ??_Glist_node@@QEAAPEAXI@Z 00000000004e3a20 f i item_cmpfunc.obj
 0001:000e2a90       ??1list_node@@QEAA@XZ      00000000004e3a90 f i item_cmpfunc.obj
 0001:000e2ad0       ?ref@?$List_iterator@VItem_field@@@@QEAAPEAPEAVItem_field@@XZ 00000000004e3ad0 f i item_cmpfunc.obj
 0001:000e2b10       ??_9Item@@$BCBI@AA         00000000004e3b10 f i item_cmpfunc.obj
 0001:000e2b20       ?create_func_abs@@YAPEAVItem@@PEAV1@@Z 00000000004e3b20 f   item_create.obj
 0001:000e2bd0       ?create_func_acos@@YAPEAVItem@@PEAV1@@Z 00000000004e3bd0 f   item_create.obj
 0001:000e2c80       ?create_func_aes_encrypt@@YAPEAVItem@@PEAV1@0@Z 00000000004e3c80 f   item_create.obj
 0001:000e2d40       ?create_func_aes_decrypt@@YAPEAVItem@@PEAV1@0@Z 00000000004e3d40 f   item_create.obj
 0001:000e2e00       ?create_func_ascii@@YAPEAVItem@@PEAV1@@Z 00000000004e3e00 f   item_create.obj
 0001:000e2eb0       ?create_func_ord@@YAPEAVItem@@PEAV1@@Z 00000000004e3eb0 f   item_create.obj
 0001:000e2f60       ?create_func_asin@@YAPEAVItem@@PEAV1@@Z 00000000004e3f60 f   item_create.obj
 0001:000e3010       ?create_func_bin@@YAPEAVItem@@PEAV1@@Z 00000000004e4010 f   item_create.obj
 0001:000e31c0       ?create_func_bit_count@@YAPEAVItem@@PEAV1@@Z 00000000004e41c0 f   item_create.obj
 0001:000e3270       ?create_func_ceiling@@YAPEAVItem@@PEAV1@@Z 00000000004e4270 f   item_create.obj
 0001:000e3320       ?create_func_connection_id@@YAPEAVItem@@XZ 00000000004e4320 f   item_create.obj
 0001:000e33e0       ?create_func_conv@@YAPEAVItem@@PEAV1@00@Z 00000000004e43e0 f   item_create.obj
 0001:000e34a0       ?create_func_cos@@YAPEAVItem@@PEAV1@@Z 00000000004e44a0 f   item_create.obj
 0001:000e3550       ?create_func_cot@@YAPEAVItem@@PEAV1@@Z 00000000004e4550 f   item_create.obj
 0001:000e3700       ?create_func_date_format@@YAPEAVItem@@PEAV1@0@Z 00000000004e4700 f   item_create.obj
 0001:000e37c0       ?create_func_dayofmonth@@YAPEAVItem@@PEAV1@@Z 00000000004e47c0 f   item_create.obj
 0001:000e3870       ?create_func_dayofweek@@YAPEAVItem@@PEAV1@@Z 00000000004e4870 f   item_create.obj
 0001:000e3920       ?create_func_dayofyear@@YAPEAVItem@@PEAV1@@Z 00000000004e4920 f   item_create.obj
 0001:000e39d0       ?create_func_dayname@@YAPEAVItem@@PEAV1@@Z 00000000004e49d0 f   item_create.obj
 0001:000e3a80       ?create_func_degrees@@YAPEAVItem@@PEAV1@@Z 00000000004e4a80 f   item_create.obj
 0001:000e3b40       ?create_func_exp@@YAPEAVItem@@PEAV1@@Z 00000000004e4b40 f   item_create.obj
 0001:000e3bf0       ?create_func_find_in_set@@YAPEAVItem@@PEAV1@0@Z 00000000004e4bf0 f   item_create.obj
 0001:000e3cb0       ?create_func_floor@@YAPEAVItem@@PEAV1@@Z 00000000004e4cb0 f   item_create.obj
 0001:000e3d60       ?create_func_found_rows@@YAPEAVItem@@XZ 00000000004e4d60 f   item_create.obj
 0001:000e3e20       ?create_func_from_days@@YAPEAVItem@@PEAV1@@Z 00000000004e4e20 f   item_create.obj
 0001:000e3ed0       ?create_func_get_lock@@YAPEAVItem@@PEAV1@0@Z 00000000004e4ed0 f   item_create.obj
 0001:000e3fa0       ?create_func_hex@@YAPEAVItem@@PEAV1@@Z 00000000004e4fa0 f   item_create.obj
 0001:000e4050       ?create_func_inet_ntoa@@YAPEAVItem@@PEAV1@@Z 00000000004e5050 f   item_create.obj
 0001:000e4100       ?create_func_inet_aton@@YAPEAVItem@@PEAV1@@Z 00000000004e5100 f   item_create.obj
 0001:000e41b0       ?create_func_ifnull@@YAPEAVItem@@PEAV1@0@Z 00000000004e51b0 f   item_create.obj
 0001:000e4270       ?create_func_nullif@@YAPEAVItem@@PEAV1@0@Z 00000000004e5270 f   item_create.obj
 0001:000e4330       ?create_func_locate@@YAPEAVItem@@PEAV1@0@Z 00000000004e5330 f   item_create.obj
 0001:000e43f0       ?create_func_instr@@YAPEAVItem@@PEAV1@0@Z 00000000004e53f0 f   item_create.obj
 0001:000e44b0       ?create_func_isnull@@YAPEAVItem@@PEAV1@@Z 00000000004e54b0 f   item_create.obj
 0001:000e4560       ?create_func_lcase@@YAPEAVItem@@PEAV1@@Z 00000000004e5560 f   item_create.obj
 0001:000e4610       ?create_func_length@@YAPEAVItem@@PEAV1@@Z 00000000004e5610 f   item_create.obj
 0001:000e46c0       ?create_func_bit_length@@YAPEAVItem@@PEAV1@@Z 00000000004e56c0 f   item_create.obj
 0001:000e4770       ?create_func_coercibility@@YAPEAVItem@@PEAV1@@Z 00000000004e5770 f   item_create.obj
 0001:000e4820       ?create_func_char_length@@YAPEAVItem@@PEAV1@@Z 00000000004e5820 f   item_create.obj
 0001:000e48d0       ?create_func_ln@@YAPEAVItem@@PEAV1@@Z 00000000004e58d0 f   item_create.obj
 0001:000e4980       ?create_func_log2@@YAPEAVItem@@PEAV1@@Z 00000000004e5980 f   item_create.obj
 0001:000e4a30       ?create_func_log10@@YAPEAVItem@@PEAV1@@Z 00000000004e5a30 f   item_create.obj
 0001:000e4ae0       ?create_func_lpad@@YAPEAVItem@@PEAV1@00@Z 00000000004e5ae0 f   item_create.obj
 0001:000e4ba0       ?create_func_ltrim@@YAPEAVItem@@PEAV1@@Z 00000000004e5ba0 f   item_create.obj
 0001:000e4c50       ?create_func_md5@@YAPEAVItem@@PEAV1@@Z 00000000004e5c50 f   item_create.obj
 0001:000e4d00       ?create_func_mod@@YAPEAVItem@@PEAV1@0@Z 00000000004e5d00 f   item_create.obj
 0001:000e4dc0       ?create_func_name_const@@YAPEAVItem@@PEAV1@0@Z 00000000004e5dc0 f   item_create.obj
 0001:000e4e80       ?create_func_monthname@@YAPEAVItem@@PEAV1@@Z 00000000004e5e80 f   item_create.obj
 0001:000e4f30       ?create_func_month@@YAPEAVItem@@PEAV1@@Z 00000000004e5f30 f   item_create.obj
 0001:000e4fe0       ?create_func_oct@@YAPEAVItem@@PEAV1@@Z 00000000004e5fe0 f   item_create.obj
 0001:000e5190       ?create_func_period_add@@YAPEAVItem@@PEAV1@0@Z 00000000004e6190 f   item_create.obj
 0001:000e5250       ?create_func_period_diff@@YAPEAVItem@@PEAV1@0@Z 00000000004e6250 f   item_create.obj
 0001:000e5310       ?create_func_pi@@YAPEAVItem@@XZ 00000000004e6310 f   item_create.obj
 0001:000e53d0       ?create_func_pow@@YAPEAVItem@@PEAV1@0@Z 00000000004e63d0 f   item_create.obj
 0001:000e5490       ?create_func_radians@@YAPEAVItem@@PEAV1@@Z 00000000004e6490 f   item_create.obj
 0001:000e5550       ?create_func_release_lock@@YAPEAVItem@@PEAV1@@Z 00000000004e6550 f   item_create.obj
 0001:000e5610       ?create_func_repeat@@YAPEAVItem@@PEAV1@0@Z 00000000004e6610 f   item_create.obj
 0001:000e56d0       ?create_func_reverse@@YAPEAVItem@@PEAV1@@Z 00000000004e66d0 f   item_create.obj
 0001:000e5780       ?create_func_rpad@@YAPEAVItem@@PEAV1@00@Z 00000000004e6780 f   item_create.obj
 0001:000e5840       ?create_func_rtrim@@YAPEAVItem@@PEAV1@@Z 00000000004e6840 f   item_create.obj
 0001:000e58f0       ?create_func_sec_to_time@@YAPEAVItem@@PEAV1@@Z 00000000004e68f0 f   item_create.obj
 0001:000e59a0       ?create_func_sign@@YAPEAVItem@@PEAV1@@Z 00000000004e69a0 f   item_create.obj
 0001:000e5a50       ?create_func_sin@@YAPEAVItem@@PEAV1@@Z 00000000004e6a50 f   item_create.obj
 0001:000e5b00       ?create_func_sha@@YAPEAVItem@@PEAV1@@Z 00000000004e6b00 f   item_create.obj
 0001:000e5bb0       ?create_func_sleep@@YAPEAVItem@@PEAV1@@Z 00000000004e6bb0 f   item_create.obj
 0001:000e5c70       ?create_func_space@@YAPEAVItem@@PEAV1@@Z 00000000004e6c70 f   item_create.obj
 0001:000e5f30       ?create_func_soundex@@YAPEAVItem@@PEAV1@@Z 00000000004e6f30 f   item_create.obj
 0001:000e5fe0       ?create_func_sqrt@@YAPEAVItem@@PEAV1@@Z 00000000004e6fe0 f   item_create.obj
 0001:000e6090       ?create_func_strcmp@@YAPEAVItem@@PEAV1@0@Z 00000000004e7090 f   item_create.obj
 0001:000e6150       ?create_func_tan@@YAPEAVItem@@PEAV1@@Z 00000000004e7150 f   item_create.obj
 0001:000e6200       ?create_func_time_format@@YAPEAVItem@@PEAV1@0@Z 00000000004e7200 f   item_create.obj
 0001:000e62c0       ?create_func_time_to_sec@@YAPEAVItem@@PEAV1@@Z 00000000004e72c0 f   item_create.obj
 0001:000e6370       ?create_func_to_days@@YAPEAVItem@@PEAV1@@Z 00000000004e7370 f   item_create.obj
 0001:000e6420       ?create_func_ucase@@YAPEAVItem@@PEAV1@@Z 00000000004e7420 f   item_create.obj
 0001:000e64d0       ?create_func_unhex@@YAPEAVItem@@PEAV1@@Z 00000000004e74d0 f   item_create.obj
 0001:000e6580       ?create_func_uuid@@YAPEAVItem@@XZ 00000000004e7580 f   item_create.obj
 0001:000e6630       ?create_func_version@@YAPEAVItem@@XZ 00000000004e7630 f   item_create.obj
 0001:000e6700       ?create_func_weekday@@YAPEAVItem@@PEAV1@@Z 00000000004e7700 f   item_create.obj
 0001:000e67b0       ?create_func_year@@YAPEAVItem@@PEAV1@@Z 00000000004e77b0 f   item_create.obj
 0001:000e6860       ?create_load_file@@YAPEAVItem@@PEAV1@@Z 00000000004e7860 f   item_create.obj
 0001:000e6920       ?create_func_cast@@YAPEAVItem@@PEAV1@W4Cast_target@@PEBD2PEAUcharset_info_st@@@Z 00000000004e7920 f   item_create.obj
 0001:000e7050       ?create_func_is_free_lock@@YAPEAVItem@@PEAV1@@Z 00000000004e8050 f   item_create.obj
 0001:000e7110       ?create_func_is_used_lock@@YAPEAVItem@@PEAV1@@Z 00000000004e8110 f   item_create.obj
 0001:000e71d0       ?create_func_quote@@YAPEAVItem@@PEAV1@@Z 00000000004e81d0 f   item_create.obj
 0001:000e7280       ?create_func_as_wkt@@YAPEAVItem@@PEAV1@@Z 00000000004e8280 f   item_create.obj
 0001:000e7330       ?create_func_as_wkb@@YAPEAVItem@@PEAV1@@Z 00000000004e8330 f   item_create.obj
 0001:000e73e0       ?create_func_srid@@YAPEAVItem@@PEAV1@@Z 00000000004e83e0 f   item_create.obj
 0001:000e7490       ?create_func_startpoint@@YAPEAVItem@@PEAV1@@Z 00000000004e8490 f   item_create.obj
 0001:000e7540       ?create_func_endpoint@@YAPEAVItem@@PEAV1@@Z 00000000004e8540 f   item_create.obj
 0001:000e75f0       ?create_func_exteriorring@@YAPEAVItem@@PEAV1@@Z 00000000004e85f0 f   item_create.obj
 0001:000e76a0       ?create_func_pointn@@YAPEAVItem@@PEAV1@0@Z 00000000004e86a0 f   item_create.obj
 0001:000e7760       ?create_func_interiorringn@@YAPEAVItem@@PEAV1@0@Z 00000000004e8760 f   item_create.obj
 0001:000e7820       ?create_func_geometryn@@YAPEAVItem@@PEAV1@0@Z 00000000004e8820 f   item_create.obj
 0001:000e78e0       ?create_func_centroid@@YAPEAVItem@@PEAV1@@Z 00000000004e88e0 f   item_create.obj
 0001:000e7990       ?create_func_envelope@@YAPEAVItem@@PEAV1@@Z 00000000004e8990 f   item_create.obj
 0001:000e7a40       ?create_func_equals@@YAPEAVItem@@PEAV1@0@Z 00000000004e8a40 f   item_create.obj
 0001:000e7b00       ?create_func_disjoint@@YAPEAVItem@@PEAV1@0@Z 00000000004e8b00 f   item_create.obj
 0001:000e7bc0       ?create_func_intersects@@YAPEAVItem@@PEAV1@0@Z 00000000004e8bc0 f   item_create.obj
 0001:000e7c80       ?create_func_touches@@YAPEAVItem@@PEAV1@0@Z 00000000004e8c80 f   item_create.obj
 0001:000e7d40       ?create_func_crosses@@YAPEAVItem@@PEAV1@0@Z 00000000004e8d40 f   item_create.obj
 0001:000e7e00       ?create_func_within@@YAPEAVItem@@PEAV1@0@Z 00000000004e8e00 f   item_create.obj
 0001:000e7ec0       ?create_func_contains@@YAPEAVItem@@PEAV1@0@Z 00000000004e8ec0 f   item_create.obj
 0001:000e7f80       ?create_func_overlaps@@YAPEAVItem@@PEAV1@0@Z 00000000004e8f80 f   item_create.obj
 0001:000e8040       ?create_func_isempty@@YAPEAVItem@@PEAV1@@Z 00000000004e9040 f   item_create.obj
 0001:000e80f0       ?create_func_issimple@@YAPEAVItem@@PEAV1@@Z 00000000004e90f0 f   item_create.obj
 0001:000e81a0       ?create_func_isclosed@@YAPEAVItem@@PEAV1@@Z 00000000004e91a0 f   item_create.obj
 0001:000e8250       ?create_func_geometry_type@@YAPEAVItem@@PEAV1@@Z 00000000004e9250 f   item_create.obj
 0001:000e8300       ?create_func_dimension@@YAPEAVItem@@PEAV1@@Z 00000000004e9300 f   item_create.obj
 0001:000e83b0       ?create_func_x@@YAPEAVItem@@PEAV1@@Z 00000000004e93b0 f   item_create.obj
 0001:000e8460       ?create_func_y@@YAPEAVItem@@PEAV1@@Z 00000000004e9460 f   item_create.obj
 0001:000e8510       ?create_func_numpoints@@YAPEAVItem@@PEAV1@@Z 00000000004e9510 f   item_create.obj
 0001:000e85c0       ?create_func_numinteriorring@@YAPEAVItem@@PEAV1@@Z 00000000004e95c0 f   item_create.obj
 0001:000e8670       ?create_func_numgeometries@@YAPEAVItem@@PEAV1@@Z 00000000004e9670 f   item_create.obj
 0001:000e8720       ?create_func_area@@YAPEAVItem@@PEAV1@@Z 00000000004e9720 f   item_create.obj
 0001:000e87d0       ?create_func_glength@@YAPEAVItem@@PEAV1@@Z 00000000004e97d0 f   item_create.obj
 0001:000e8880       ?create_func_point@@YAPEAVItem@@PEAV1@0@Z 00000000004e9880 f   item_create.obj
 0001:000e8940       ?create_func_crc32@@YAPEAVItem@@PEAV1@@Z 00000000004e9940 f   item_create.obj
 0001:000e89f0       ?create_func_compress@@YAPEAVItem@@PEAV1@@Z 00000000004e99f0 f   item_create.obj
 0001:000e8aa0       ?create_func_uncompress@@YAPEAVItem@@PEAV1@@Z 00000000004e9aa0 f   item_create.obj
 0001:000e8b50       ?create_func_uncompressed_length@@YAPEAVItem@@PEAV1@@Z 00000000004e9b50 f   item_create.obj
 0001:000e8c00       ?create_func_datediff@@YAPEAVItem@@PEAV1@0@Z 00000000004e9c00 f   item_create.obj
 0001:000e8da0       ?create_func_weekofyear@@YAPEAVItem@@PEAV1@@Z 00000000004e9da0 f   item_create.obj
 0001:000e8ed0       ?create_func_makedate@@YAPEAVItem@@PEAV1@0@Z 00000000004e9ed0 f   item_create.obj
 0001:000e8f90       ?create_func_addtime@@YAPEAVItem@@PEAV1@0@Z 00000000004e9f90 f   item_create.obj
 0001:000e9050       ?create_func_subtime@@YAPEAVItem@@PEAV1@0@Z 00000000004ea050 f   item_create.obj
 0001:000e9110       ?create_func_timediff@@YAPEAVItem@@PEAV1@0@Z 00000000004ea110 f   item_create.obj
 0001:000e91d0       ?create_func_maketime@@YAPEAVItem@@PEAV1@00@Z 00000000004ea1d0 f   item_create.obj
 0001:000e9290       ?create_func_str_to_date@@YAPEAVItem@@PEAV1@0@Z 00000000004ea290 f   item_create.obj
 0001:000e9350       ?create_func_last_day@@YAPEAVItem@@PEAV1@@Z 00000000004ea350 f   item_create.obj
 0001:000eae30       ??0Item_func_abs@@QEAA@PEAVItem@@@Z 00000000004ebe30 f i item_create.obj
 0001:000eaea0       ?result_type@Item_func_numhybrid@@UEBA?AW4Item_result@@XZ 00000000004ebea0 f i item_create.obj
 0001:000eaec0       ?is_null@Item_func_numhybrid@@UEAAHXZ 00000000004ebec0 f i item_create.obj
 0001:000eaf20       ??0Item_func_num1@@QEAA@PEAVItem@@@Z 00000000004ebf20 f i item_create.obj
 0001:000eaf90       ??0Item_func_numhybrid@@QEAA@PEAVItem@@@Z 00000000004ebf90 f i item_create.obj
 0001:000eb010       ??_GItem_func_numhybrid@@UEAAPEAXI@Z 00000000004ec010 f i item_create.obj
 0001:000eb010       ??_EItem_func_numhybrid@@UEAAPEAXI@Z 00000000004ec010 f i item_create.obj
 0001:000eb080       ??1Item_func_numhybrid@@UEAA@XZ 00000000004ec080 f i item_create.obj
 0001:000eb0c0       ?str_op@Item_func_num1@@UEAAPEAVString@@PEAV2@@Z 00000000004ec0c0 f i item_create.obj
 0001:000eb130       ??_EItem_func_num1@@UEAAPEAXI@Z 00000000004ec130 f i item_create.obj
 0001:000eb130       ??_GItem_func_num1@@UEAAPEAXI@Z 00000000004ec130 f i item_create.obj
 0001:000eb1a0       ??1Item_func_num1@@UEAA@XZ 00000000004ec1a0 f i item_create.obj
 0001:000eb1e0       ?func_name@Item_func_abs@@UEBAPEBDXZ 00000000004ec1e0 f i item_create.obj
 0001:000eb200       ??_GItem_func_abs@@UEAAPEAXI@Z 00000000004ec200 f i item_create.obj
 0001:000eb200       ??_EItem_func_abs@@UEAAPEAXI@Z 00000000004ec200 f i item_create.obj
 0001:000eb270       ??1Item_func_abs@@UEAA@XZ  00000000004ec270 f i item_create.obj
 0001:000eb2b0       ??0Item_func_acos@@QEAA@PEAVItem@@@Z 00000000004ec2b0 f i item_create.obj
 0001:000eb320       ?val_int@Item_real_func@@UEAA_JXZ 00000000004ec320 f i item_create.obj
 0001:000eb3b0       ?result_type@Item_real_func@@UEBA?AW4Item_result@@XZ 00000000004ec3b0 f i item_create.obj
 0001:000eb3c0       ??0Item_dec_func@@QEAA@PEAVItem@@@Z 00000000004ec3c0 f i item_create.obj
 0001:000eb430       ??0Item_real_func@@QEAA@PEAVItem@@@Z 00000000004ec430 f i item_create.obj
 0001:000eb4a0       ?fix_length_and_dec@Item_real_func@@UEAAXXZ 00000000004ec4a0 f i item_create.obj
 0001:000eb510       ??_EItem_real_func@@UEAAPEAXI@Z 00000000004ec510 f i item_create.obj
 0001:000eb510       ??_GItem_real_func@@UEAAPEAXI@Z 00000000004ec510 f i item_create.obj
 0001:000eb580       ??1Item_real_func@@UEAA@XZ 00000000004ec580 f i item_create.obj
 0001:000eb5c0       ?fix_length_and_dec@Item_dec_func@@UEAAXXZ 00000000004ec5c0 f i item_create.obj
 0001:000eb630       ??_GItem_dec_func@@UEAAPEAXI@Z 00000000004ec630 f i item_create.obj
 0001:000eb630       ??_EItem_dec_func@@UEAAPEAXI@Z 00000000004ec630 f i item_create.obj
 0001:000eb6a0       ??1Item_dec_func@@UEAA@XZ  00000000004ec6a0 f i item_create.obj
 0001:000eb6e0       ?func_name@Item_func_acos@@UEBAPEBDXZ 00000000004ec6e0 f i item_create.obj
 0001:000eb700       ??_GItem_func_acos@@UEAAPEAXI@Z 00000000004ec700 f i item_create.obj
 0001:000eb700       ??_EItem_func_acos@@UEAAPEAXI@Z 00000000004ec700 f i item_create.obj
 0001:000eb770       ??1Item_func_acos@@UEAA@XZ 00000000004ec770 f i item_create.obj
 0001:000eb7b0       ??0Item_func_aes_encrypt@@QEAA@PEAVItem@@0@Z 00000000004ec7b0 f i item_create.obj
 0001:000eb830       ??0Item_str_func@@QEAA@PEAVItem@@0@Z 00000000004ec830 f i item_create.obj
 0001:000eb8b0       ?func_name@Item_func_aes_encrypt@@UEBAPEBDXZ 00000000004ec8b0 f i item_create.obj
 0001:000eb8d0       ??_EItem_func_aes_encrypt@@UEAAPEAXI@Z 00000000004ec8d0 f i item_create.obj
 0001:000eb8d0       ??_GItem_func_aes_encrypt@@UEAAPEAXI@Z 00000000004ec8d0 f i item_create.obj
 0001:000eb940       ??1Item_func_aes_encrypt@@UEAA@XZ 00000000004ec940 f i item_create.obj
 0001:000eb980       ??0Item_func_aes_decrypt@@QEAA@PEAVItem@@0@Z 00000000004ec980 f i item_create.obj
 0001:000eba00       ?func_name@Item_func_aes_decrypt@@UEBAPEBDXZ 00000000004eca00 f i item_create.obj
 0001:000eba20       ??_GItem_func_aes_decrypt@@UEAAPEAXI@Z 00000000004eca20 f i item_create.obj
 0001:000eba20       ??_EItem_func_aes_decrypt@@UEAAPEAXI@Z 00000000004eca20 f i item_create.obj
 0001:000eba90       ??1Item_func_aes_decrypt@@UEAA@XZ 00000000004eca90 f i item_create.obj
 0001:000ebad0       ??0Item_func_ascii@@QEAA@PEAVItem@@@Z 00000000004ecad0 f i item_create.obj
 0001:000ebb90       ?func_name@Item_func_ascii@@UEBAPEBDXZ 00000000004ecb90 f i item_create.obj
 0001:000ebbb0       ?fix_length_and_dec@Item_func_ascii@@UEAAXXZ 00000000004ecbb0 f i item_create.obj
 0001:000ebbd0       ??_EItem_func_ascii@@UEAAPEAXI@Z 00000000004ecbd0 f i item_create.obj
 0001:000ebbd0       ??_GItem_func_ascii@@UEAAPEAXI@Z 00000000004ecbd0 f i item_create.obj
 0001:000ebc40       ??1Item_func_ascii@@UEAA@XZ 00000000004ecc40 f i item_create.obj
 0001:000ebcd0       ??0Item_func_ord@@QEAA@PEAVItem@@@Z 00000000004eccd0 f i item_create.obj
 0001:000ebd90       ?func_name@Item_func_ord@@UEBAPEBDXZ 00000000004ecd90 f i item_create.obj
 0001:000ebdb0       ??_EItem_func_ord@@UEAAPEAXI@Z 00000000004ecdb0 f i item_create.obj
 0001:000ebdb0       ??_GItem_func_ord@@UEAAPEAXI@Z 00000000004ecdb0 f i item_create.obj
 0001:000ebe20       ??1Item_func_ord@@UEAA@XZ  00000000004ece20 f i item_create.obj
 0001:000ebeb0       ??0Item_func_asin@@QEAA@PEAVItem@@@Z 00000000004eceb0 f i item_create.obj
 0001:000ebf20       ?func_name@Item_func_asin@@UEBAPEBDXZ 00000000004ecf20 f i item_create.obj
 0001:000ebf40       ??_EItem_func_asin@@UEAAPEAXI@Z 00000000004ecf40 f i item_create.obj
 0001:000ebf40       ??_GItem_func_asin@@UEAAPEAXI@Z 00000000004ecf40 f i item_create.obj
 0001:000ebfb0       ??1Item_func_asin@@UEAA@XZ 00000000004ecfb0 f i item_create.obj
 0001:000ebff0       ??0Item_int@@QEAA@JI@Z     00000000004ecff0 f i item_create.obj
 0001:000ec080       ??0Item_func_conv@@QEAA@PEAVItem@@00@Z 00000000004ed080 f i item_create.obj
 0001:000ec100       ??0Item_str_func@@QEAA@PEAVItem@@00@Z 00000000004ed100 f i item_create.obj
 0001:000ec190       ??0Item_func@@QEAA@PEAVItem@@00@Z 00000000004ed190 f i item_create.obj
 0001:000ec340       ?func_name@Item_func_conv@@UEBAPEBDXZ 00000000004ed340 f i item_create.obj
 0001:000ec360       ?fix_length_and_dec@Item_func_conv@@UEAAXXZ 00000000004ed360 f i item_create.obj
 0001:000ec3c0       ??_EItem_func_conv@@UEAAPEAXI@Z 00000000004ed3c0 f i item_create.obj
 0001:000ec3c0       ??_GItem_func_conv@@UEAAPEAXI@Z 00000000004ed3c0 f i item_create.obj
 0001:000ec430       ??1Item_func_conv@@UEAA@XZ 00000000004ed430 f i item_create.obj
 0001:000ec470       ??0Item_func_bit_count@@QEAA@PEAVItem@@@Z 00000000004ed470 f i item_create.obj
 0001:000ec4e0       ?func_name@Item_func_bit_count@@UEBAPEBDXZ 00000000004ed4e0 f i item_create.obj
 0001:000ec500       ?fix_length_and_dec@Item_func_bit_count@@UEAAXXZ 00000000004ed500 f i item_create.obj
 0001:000ec520       ??_GItem_func_bit_count@@UEAAPEAXI@Z 00000000004ed520 f i item_create.obj
 0001:000ec520       ??_EItem_func_bit_count@@UEAAPEAXI@Z 00000000004ed520 f i item_create.obj
 0001:000ec590       ??1Item_func_bit_count@@UEAA@XZ 00000000004ed590 f i item_create.obj
 0001:000ec5d0       ??0Item_func_ceiling@@QEAA@PEAVItem@@@Z 00000000004ed5d0 f i item_create.obj
 0001:000ec640       ??0Item_func_int_val@@QEAA@PEAVItem@@@Z 00000000004ed640 f i item_create.obj
 0001:000ec6b0       ??_EItem_func_int_val@@UEAAPEAXI@Z 00000000004ed6b0 f i item_create.obj
 0001:000ec6b0       ??_GItem_func_int_val@@UEAAPEAXI@Z 00000000004ed6b0 f i item_create.obj
 0001:000ec720       ??1Item_func_int_val@@UEAA@XZ 00000000004ed720 f i item_create.obj
 0001:000ec760       ?func_name@Item_func_ceiling@@UEBAPEBDXZ 00000000004ed760 f i item_create.obj
 0001:000ec780       ??_GItem_func_ceiling@@UEAAPEAXI@Z 00000000004ed780 f i item_create.obj
 0001:000ec780       ??_EItem_func_ceiling@@UEAAPEAXI@Z 00000000004ed780 f i item_create.obj
 0001:000ec7f0       ??1Item_func_ceiling@@UEAA@XZ 00000000004ed7f0 f i item_create.obj
 0001:000ec830       ??0Item_func_connection_id@@QEAA@XZ 00000000004ed830 f i item_create.obj
 0001:000ec890       ?func_name@Item_func_connection_id@@UEBAPEBDXZ 00000000004ed890 f i item_create.obj
 0001:000ec8b0       ?val_int@Item_func_connection_id@@UEAA_JXZ 00000000004ed8b0 f i item_create.obj
 0001:000ec930       ??_EItem_func_connection_id@@UEAAPEAXI@Z 00000000004ed930 f i item_create.obj
 0001:000ec930       ??_GItem_func_connection_id@@UEAAPEAXI@Z 00000000004ed930 f i item_create.obj
 0001:000ec9a0       ??1Item_func_connection_id@@UEAA@XZ 00000000004ed9a0 f i item_create.obj
 0001:000ec9e0       ??0Item_func_cos@@QEAA@PEAVItem@@@Z 00000000004ed9e0 f i item_create.obj
 0001:000eca50       ?func_name@Item_func_cos@@UEBAPEBDXZ 00000000004eda50 f i item_create.obj
 0001:000eca70       ??_EItem_func_cos@@UEAAPEAXI@Z 00000000004eda70 f i item_create.obj
 0001:000eca70       ??_GItem_func_cos@@UEAAPEAXI@Z 00000000004eda70 f i item_create.obj
 0001:000ecae0       ??1Item_func_cos@@UEAA@XZ  00000000004edae0 f i item_create.obj
 0001:000ecb20       ??0Item_func_div@@QEAA@PEAVItem@@0@Z 00000000004edb20 f i item_create.obj
 0001:000ecba0       ??0Item_num_op@@QEAA@PEAVItem@@0@Z 00000000004edba0 f i item_create.obj
 0001:000ecc20       ??0Item_func_numhybrid@@QEAA@PEAVItem@@0@Z 00000000004edc20 f i item_create.obj
 0001:000eccb0       ?print@Item_num_op@@UEAAXPEAVString@@@Z 00000000004edcb0 f i item_create.obj
 0001:000ecd00       ?str_op@Item_num_op@@UEAAPEAVString@@PEAV2@@Z 00000000004edd00 f i item_create.obj
 0001:000ecd70       ??_EItem_num_op@@UEAAPEAXI@Z 00000000004edd70 f i item_create.obj
 0001:000ecd70       ??_GItem_num_op@@UEAAPEAXI@Z 00000000004edd70 f i item_create.obj
 0001:000ecde0       ??1Item_num_op@@UEAA@XZ    00000000004edde0 f i item_create.obj
 0001:000ece20       ?int_op@Item_func_div@@UEAA_JXZ 00000000004ede20 f i item_create.obj
 0001:000ece80       ?func_name@Item_func_div@@UEBAPEBDXZ 00000000004ede80 f i item_create.obj
 0001:000ecea0       ??_GItem_func_div@@UEAAPEAXI@Z 00000000004edea0 f i item_create.obj
 0001:000ecea0       ??_EItem_func_div@@UEAAPEAXI@Z 00000000004edea0 f i item_create.obj
 0001:000ecf10       ??1Item_func_div@@UEAA@XZ  00000000004edf10 f i item_create.obj
 0001:000ecf50       ??0Item_func_tan@@QEAA@PEAVItem@@@Z 00000000004edf50 f i item_create.obj
 0001:000ecfc0       ?func_name@Item_func_tan@@UEBAPEBDXZ 00000000004edfc0 f i item_create.obj
 0001:000ecfe0       ??_EItem_func_tan@@UEAAPEAXI@Z 00000000004edfe0 f i item_create.obj
 0001:000ecfe0       ??_GItem_func_tan@@UEAAPEAXI@Z 00000000004edfe0 f i item_create.obj
 0001:000ed050       ??1Item_func_tan@@UEAA@XZ  00000000004ee050 f i item_create.obj
 0001:000ed090       ??0Item_func_date_format@@QEAA@PEAVItem@@0H@Z 00000000004ee090 f i item_create.obj
 0001:000ed170       ?func_name@Item_func_date_format@@UEBAPEBDXZ 00000000004ee170 f i item_create.obj
 0001:000ed1e0       ??_EItem_func_date_format@@UEAAPEAXI@Z 00000000004ee1e0 f i item_create.obj
 0001:000ed1e0       ??_GItem_func_date_format@@UEAAPEAXI@Z 00000000004ee1e0 f i item_create.obj
 0001:000ed250       ??1Item_func_date_format@@UEAA@XZ 00000000004ee250 f i item_create.obj
 0001:000ed2e0       ??0Item_func_dayofmonth@@QEAA@PEAVItem@@@Z 00000000004ee2e0 f i item_create.obj
 0001:000ed350       ?func_name@Item_func_dayofmonth@@UEBAPEBDXZ 00000000004ee350 f i item_create.obj
 0001:000ed370       ?fix_length_and_dec@Item_func_dayofmonth@@UEAAXXZ 00000000004ee370 f i item_create.obj
 0001:000ed3a0       ??_EItem_func_dayofmonth@@UEAAPEAXI@Z 00000000004ee3a0 f i item_create.obj
 0001:000ed3a0       ??_GItem_func_dayofmonth@@UEAAPEAXI@Z 00000000004ee3a0 f i item_create.obj
 0001:000ed410       ??1Item_func_dayofmonth@@UEAA@XZ 00000000004ee410 f i item_create.obj
 0001:000ed450       ??0Item_func_weekday@@QEAA@PEAVItem@@H@Z 00000000004ee450 f i item_create.obj
 0001:000ed4d0       ?val_real@Item_func_weekday@@UEAANXZ 00000000004ee4d0 f i item_create.obj
 0001:000ed550       ?val_str@Item_func_weekday@@UEAAPEAVString@@PEAV2@@Z 00000000004ee550 f i item_create.obj
 0001:000ed620       ?func_name@Item_func_weekday@@UEBAPEBDXZ 00000000004ee620 f i item_create.obj
 0001:000ed690       ?result_type@Item_func_weekday@@UEBA?AW4Item_result@@XZ 00000000004ee690 f i item_create.obj
 0001:000ed6a0       ?fix_length_and_dec@Item_func_weekday@@UEAAXXZ 00000000004ee6a0 f i item_create.obj
 0001:000ed720       ??_EItem_func_weekday@@UEAAPEAXI@Z 00000000004ee720 f i item_create.obj
 0001:000ed720       ??_GItem_func_weekday@@UEAAPEAXI@Z 00000000004ee720 f i item_create.obj
 0001:000ed790       ??1Item_func_weekday@@UEAA@XZ 00000000004ee790 f i item_create.obj
 0001:000ed7d0       ??0Item_func_dayofyear@@QEAA@PEAVItem@@@Z 00000000004ee7d0 f i item_create.obj
 0001:000ed840       ?func_name@Item_func_dayofyear@@UEBAPEBDXZ 00000000004ee840 f i item_create.obj
 0001:000ed860       ?fix_length_and_dec@Item_func_dayofyear@@UEAAXXZ 00000000004ee860 f i item_create.obj
 0001:000ed890       ??_EItem_func_dayofyear@@UEAAPEAXI@Z 00000000004ee890 f i item_create.obj
 0001:000ed890       ??_GItem_func_dayofyear@@UEAAPEAXI@Z 00000000004ee890 f i item_create.obj
 0001:000ed900       ??1Item_func_dayofyear@@UEAA@XZ 00000000004ee900 f i item_create.obj
 0001:000ed940       ??0Item_func_dayname@@QEAA@PEAVItem@@@Z 00000000004ee940 f i item_create.obj
 0001:000ed9b0       ?func_name@Item_func_dayname@@UEBAPEBDXZ 00000000004ee9b0 f i item_create.obj
 0001:000ed9d0       ?result_type@Item_func_dayname@@UEBA?AW4Item_result@@XZ 00000000004ee9d0 f i item_create.obj
 0001:000ed9e0       ?fix_length_and_dec@Item_func_dayname@@UEAAXXZ 00000000004ee9e0 f i item_create.obj
 0001:000eda60       ??_GItem_func_dayname@@UEAAPEAXI@Z 00000000004eea60 f i item_create.obj
 0001:000eda60       ??_EItem_func_dayname@@UEAAPEAXI@Z 00000000004eea60 f i item_create.obj
 0001:000edad0       ??1Item_func_dayname@@UEAA@XZ 00000000004eead0 f i item_create.obj
 0001:000edb10       ??0Item_func_units@@QEAA@PEADPEAVItem@@NN@Z 00000000004eeb10 f i item_create.obj
 0001:000edbd0       ?func_name@Item_func_units@@UEBAPEBDXZ 00000000004eebd0 f i item_create.obj
 0001:000edbf0       ?fix_length_and_dec@Item_func_units@@UEAAXXZ 00000000004eebf0 f i item_create.obj
 0001:000edc60       ??_GItem_func_units@@UEAAPEAXI@Z 00000000004eec60 f i item_create.obj
 0001:000edc60       ??_EItem_func_units@@UEAAPEAXI@Z 00000000004eec60 f i item_create.obj
 0001:000edcd0       ??1Item_func_units@@UEAA@XZ 00000000004eecd0 f i item_create.obj
 0001:000edd10       ??0Item_func_exp@@QEAA@PEAVItem@@@Z 00000000004eed10 f i item_create.obj
 0001:000edd80       ?func_name@Item_func_exp@@UEBAPEBDXZ 00000000004eed80 f i item_create.obj
 0001:000edda0       ??_EItem_func_exp@@UEAAPEAXI@Z 00000000004eeda0 f i item_create.obj
 0001:000edda0       ??_GItem_func_exp@@UEAAPEAXI@Z 00000000004eeda0 f i item_create.obj
 0001:000ede10       ??1Item_func_exp@@UEAA@XZ  00000000004eee10 f i item_create.obj
 0001:000ede50       ??0Item_func_find_in_set@@QEAA@PEAVItem@@0@Z 00000000004eee50 f i item_create.obj
 0001:000edfe0       ?func_name@Item_func_find_in_set@@UEBAPEBDXZ 00000000004eefe0 f i item_create.obj
 0001:000ee000       ??_EItem_func_find_in_set@@UEAAPEAXI@Z 00000000004ef000 f i item_create.obj
 0001:000ee000       ??_GItem_func_find_in_set@@UEAAPEAXI@Z 00000000004ef000 f i item_create.obj
 0001:000ee070       ??1Item_func_find_in_set@@UEAA@XZ 00000000004ef070 f i item_create.obj
 0001:000ee170       ??0Item_func_floor@@QEAA@PEAVItem@@@Z 00000000004ef170 f i item_create.obj
 0001:000ee1e0       ?func_name@Item_func_floor@@UEBAPEBDXZ 00000000004ef1e0 f i item_create.obj
 0001:000ee200       ??_GItem_func_floor@@UEAAPEAXI@Z 00000000004ef200 f i item_create.obj
 0001:000ee200       ??_EItem_func_floor@@UEAAPEAXI@Z 00000000004ef200 f i item_create.obj
 0001:000ee270       ??1Item_func_floor@@UEAA@XZ 00000000004ef270 f i item_create.obj
 0001:000ee2b0       ??0Item_func_found_rows@@QEAA@XZ 00000000004ef2b0 f i item_create.obj
 0001:000ee310       ?func_name@Item_func_found_rows@@UEBAPEBDXZ 00000000004ef310 f i item_create.obj
 0001:000ee330       ?fix_length_and_dec@Item_func_found_rows@@UEAAXXZ 00000000004ef330 f i item_create.obj
 0001:000ee350       ??_EItem_func_found_rows@@UEAAPEAXI@Z 00000000004ef350 f i item_create.obj
 0001:000ee350       ??_GItem_func_found_rows@@UEAAPEAXI@Z 00000000004ef350 f i item_create.obj
 0001:000ee3c0       ??1Item_func_found_rows@@UEAA@XZ 00000000004ef3c0 f i item_create.obj
 0001:000ee400       ??0Item_func_from_days@@QEAA@PEAVItem@@@Z 00000000004ef400 f i item_create.obj
 0001:000ee470       ??0Item_date@@QEAA@PEAVItem@@@Z 00000000004ef470 f i item_create.obj
 0001:000ee4e0       ?result_type@Item_date@@UEBA?AW4Item_result@@XZ 00000000004ef4e0 f i item_create.obj
 0001:000ee4f0       ?field_type@Item_date@@UEBA?AW4enum_field_types@@XZ 00000000004ef4f0 f i item_create.obj
 0001:000ee500       ?val_real@Item_date@@UEAANXZ 00000000004ef500 f i item_create.obj
 0001:000ee540       ?func_name@Item_date@@UEBAPEBDXZ 00000000004ef540 f i item_create.obj
 0001:000ee560       ?fix_length_and_dec@Item_date@@UEAAXXZ 00000000004ef560 f i item_create.obj
 0001:000ee5d0       ?tmp_table_field@Item_date@@UEAAPEAVField@@PEAUst_table@@@Z 00000000004ef5d0 f i item_create.obj
 0001:000ee6d0       ?result_as_longlong@Item_date@@UEAAHXZ 00000000004ef6d0 f i item_create.obj
 0001:000ee6e0       ?val_decimal@Item_date@@UEAAPEAVmy_decimal@@PEAV2@@Z 00000000004ef6e0 f i item_create.obj
 0001:000ee760       ?save_in_field@Item_date@@UEAAHPEAVField@@H@Z 00000000004ef760 f i item_create.obj
 0001:000ee7c0       ??_EItem_date@@UEAAPEAXI@Z 00000000004ef7c0 f i item_create.obj
 0001:000ee7c0       ??_GItem_date@@UEAAPEAXI@Z 00000000004ef7c0 f i item_create.obj
 0001:000ee830       ??1Item_date@@UEAA@XZ      00000000004ef830 f i item_create.obj
 0001:000ee870       ?func_name@Item_func_from_days@@UEBAPEBDXZ 00000000004ef870 f i item_create.obj
 0001:000ee890       ??_EItem_func_from_days@@UEAAPEAXI@Z 00000000004ef890 f i item_create.obj
 0001:000ee890       ??_GItem_func_from_days@@UEAAPEAXI@Z 00000000004ef890 f i item_create.obj
 0001:000ee900       ??1Item_func_from_days@@UEAA@XZ 00000000004ef900 f i item_create.obj
 0001:000ee940       ??0Item_func_get_lock@@QEAA@PEAVItem@@0@Z 00000000004ef940 f i item_create.obj
 0001:000eea10       ?func_name@Item_func_get_lock@@UEBAPEBDXZ 00000000004efa10 f i item_create.obj
 0001:000eea30       ?fix_length_and_dec@Item_func_get_lock@@UEAAXXZ 00000000004efa30 f i item_create.obj
 0001:000eea60       ??_GItem_func_get_lock@@UEAAPEAXI@Z 00000000004efa60 f i item_create.obj
 0001:000eea60       ??_EItem_func_get_lock@@UEAAPEAXI@Z 00000000004efa60 f i item_create.obj
 0001:000eead0       ??1Item_func_get_lock@@UEAA@XZ 00000000004efad0 f i item_create.obj
 0001:000eeb60       ?uncacheable@st_lex@@QEAAXE@Z 00000000004efb60 f i item_create.obj
 0001:000eec70       ??0Item_func_hex@@QEAA@PEAVItem@@@Z 00000000004efc70 f i item_create.obj
 0001:000eed30       ?func_name@Item_func_hex@@UEBAPEBDXZ 00000000004efd30 f i item_create.obj
 0001:000eed50       ?fix_length_and_dec@Item_func_hex@@UEAAXXZ 00000000004efd50 f i item_create.obj
 0001:000eede0       ??_EItem_func_hex@@UEAAPEAXI@Z 00000000004efde0 f i item_create.obj
 0001:000eede0       ??_GItem_func_hex@@UEAAPEAXI@Z 00000000004efde0 f i item_create.obj
 0001:000eee50       ??1Item_func_hex@@UEAA@XZ  00000000004efe50 f i item_create.obj
 0001:000eeee0       ??0Item_func_inet_ntoa@@QEAA@PEAVItem@@@Z 00000000004efee0 f i item_create.obj
 0001:000eef50       ?func_name@Item_func_inet_ntoa@@UEBAPEBDXZ 00000000004eff50 f i item_create.obj
 0001:000eef70       ?fix_length_and_dec@Item_func_inet_ntoa@@UEAAXXZ 00000000004eff70 f i item_create.obj
 0001:000eefa0       ??_EItem_func_inet_ntoa@@UEAAPEAXI@Z 00000000004effa0 f i item_create.obj
 0001:000eefa0       ??_GItem_func_inet_ntoa@@UEAAPEAXI@Z 00000000004effa0 f i item_create.obj
 0001:000ef010       ??1Item_func_inet_ntoa@@UEAA@XZ 00000000004f0010 f i item_create.obj
 0001:000ef050       ??0Item_func_inet_aton@@QEAA@PEAVItem@@@Z 00000000004f0050 f i item_create.obj
 0001:000ef0c0       ?func_name@Item_func_inet_aton@@UEBAPEBDXZ 00000000004f00c0 f i item_create.obj
 0001:000ef0e0       ?fix_length_and_dec@Item_func_inet_aton@@UEAAXXZ 00000000004f00e0 f i item_create.obj
 0001:000ef120       ??_GItem_func_inet_aton@@UEAAPEAXI@Z 00000000004f0120 f i item_create.obj
 0001:000ef120       ??_EItem_func_inet_aton@@UEAAPEAXI@Z 00000000004f0120 f i item_create.obj
 0001:000ef190       ??1Item_func_inet_aton@@UEAA@XZ 00000000004f0190 f i item_create.obj
 0001:000ef1d0       ??0Item_func_ifnull@@QEAA@PEAVItem@@0@Z 00000000004f01d0 f i item_create.obj
 0001:000ef250       ??0Item_func_coalesce@@IEAA@PEAVItem@@0@Z 00000000004f0250 f i item_create.obj
 0001:000ef2d0       ?find_num_type@Item_func_coalesce@@UEAAXXZ 00000000004f02d0 f i item_create.obj
 0001:000ef2e0       ?result_type@Item_func_coalesce@@UEBA?AW4Item_result@@XZ 00000000004f02e0 f i item_create.obj
 0001:000ef300       ?func_name@Item_func_coalesce@@UEBAPEBDXZ 00000000004f0300 f i item_create.obj
 0001:000ef320       ?not_null_tables@Item_func_coalesce@@UEBA_KXZ 00000000004f0320 f i item_create.obj
 0001:000ef330       ??_GItem_func_coalesce@@UEAAPEAXI@Z 00000000004f0330 f i item_create.obj
 0001:000ef330       ??_EItem_func_coalesce@@UEAAPEAXI@Z 00000000004f0330 f i item_create.obj
 0001:000ef3a0       ??1Item_func_coalesce@@UEAA@XZ 00000000004f03a0 f i item_create.obj
 0001:000ef3e0       ?func_name@Item_func_ifnull@@UEBAPEBDXZ 00000000004f03e0 f i item_create.obj
 0001:000ef400       ??_EItem_func_ifnull@@UEAAPEAXI@Z 00000000004f0400 f i item_create.obj
 0001:000ef400       ??_GItem_func_ifnull@@UEAAPEAXI@Z 00000000004f0400 f i item_create.obj
 0001:000ef470       ??1Item_func_ifnull@@UEAA@XZ 00000000004f0470 f i item_create.obj
 0001:000ef4b0       ??0Item_func_nullif@@QEAA@PEAVItem@@0@Z 00000000004f04b0 f i item_create.obj
 0001:000ef540       ?result_type@Item_func_nullif@@UEBA?AW4Item_result@@XZ 00000000004f0540 f i item_create.obj
 0001:000ef560       ?decimal_precision@Item_func_nullif@@UEBAIXZ 00000000004f0560 f i item_create.obj
 0001:000ef5c0       ?func_name@Item_func_nullif@@UEBAPEBDXZ 00000000004f05c0 f i item_create.obj
 0001:000ef5e0       ?print@Item_func_nullif@@UEAAXPEAVString@@@Z 00000000004f05e0 f i item_create.obj
 0001:000ef630       ?not_null_tables@Item_func_nullif@@UEBA_KXZ 00000000004f0630 f i item_create.obj
 0001:000ef640       ??_GItem_func_nullif@@UEAAPEAXI@Z 00000000004f0640 f i item_create.obj
 0001:000ef640       ??_EItem_func_nullif@@UEAAPEAXI@Z 00000000004f0640 f i item_create.obj
 0001:000ef6b0       ??1Item_func_nullif@@UEAA@XZ 00000000004f06b0 f i item_create.obj
 0001:000ef6f0       ??0Item_func_locate@@QEAA@PEAVItem@@0@Z 00000000004f06f0 f i item_create.obj
 0001:000ef880       ?func_name@Item_func_locate@@UEBAPEBDXZ 00000000004f0880 f i item_create.obj
 0001:000ef8a0       ??_GItem_func_locate@@UEAAPEAXI@Z 00000000004f08a0 f i item_create.obj
 0001:000ef8a0       ??_EItem_func_locate@@UEAAPEAXI@Z 00000000004f08a0 f i item_create.obj
 0001:000ef910       ??1Item_func_locate@@UEAA@XZ 00000000004f0910 f i item_create.obj
 0001:000efa10       ??0Item_func_lcase@@QEAA@PEAVItem@@@Z 00000000004f0a10 f i item_create.obj
 0001:000efa80       ??0Item_str_conv@@QEAA@PEAVItem@@@Z 00000000004f0a80 f i item_create.obj
 0001:000efb40       ??_EItem_str_conv@@UEAAPEAXI@Z 00000000004f0b40 f i item_create.obj
 0001:000efb40       ??_GItem_str_conv@@UEAAPEAXI@Z 00000000004f0b40 f i item_create.obj
 0001:000efbb0       ??1Item_str_conv@@UEAA@XZ  00000000004f0bb0 f i item_create.obj
 0001:000efc40       ?func_name@Item_func_lcase@@UEBAPEBDXZ 00000000004f0c40 f i item_create.obj
 0001:000efc60       ?fix_length_and_dec@Item_func_lcase@@UEAAXXZ 00000000004f0c60 f i item_create.obj
 0001:000efd40       ??_GItem_func_lcase@@UEAAPEAXI@Z 00000000004f0d40 f i item_create.obj
 0001:000efd40       ??_EItem_func_lcase@@UEAAPEAXI@Z 00000000004f0d40 f i item_create.obj
 0001:000efdb0       ??1Item_func_lcase@@UEAA@XZ 00000000004f0db0 f i item_create.obj
 0001:000efdf0       ??0Item_func_length@@QEAA@PEAVItem@@@Z 00000000004f0df0 f i item_create.obj
 0001:000efeb0       ?func_name@Item_func_length@@UEBAPEBDXZ 00000000004f0eb0 f i item_create.obj
 0001:000efed0       ?fix_length_and_dec@Item_func_length@@UEAAXXZ 00000000004f0ed0 f i item_create.obj
 0001:000efef0       ??_GItem_func_length@@UEAAPEAXI@Z 00000000004f0ef0 f i item_create.obj
 0001:000efef0       ??_EItem_func_length@@UEAAPEAXI@Z 00000000004f0ef0 f i item_create.obj
 0001:000eff60       ??1Item_func_length@@UEAA@XZ 00000000004f0f60 f i item_create.obj
 0001:000efff0       ??0Item_func_bit_length@@QEAA@PEAVItem@@@Z 00000000004f0ff0 f i item_create.obj
 0001:000f0060       ?val_int@Item_func_bit_length@@UEAA_JXZ 00000000004f1060 f i item_create.obj
 0001:000f00e0       ?func_name@Item_func_bit_length@@UEBAPEBDXZ 00000000004f10e0 f i item_create.obj
 0001:000f0100       ??_EItem_func_bit_length@@UEAAPEAXI@Z 00000000004f1100 f i item_create.obj
 0001:000f0100       ??_GItem_func_bit_length@@UEAAPEAXI@Z 00000000004f1100 f i item_create.obj
 0001:000f0170       ??1Item_func_bit_length@@UEAA@XZ 00000000004f1170 f i item_create.obj
 0001:000f01b0       ??0Item_func_coercibility@@QEAA@PEAVItem@@@Z 00000000004f11b0 f i item_create.obj
 0001:000f0220       ?func_name@Item_func_coercibility@@UEBAPEBDXZ 00000000004f1220 f i item_create.obj
 0001:000f0240       ?fix_length_and_dec@Item_func_coercibility@@UEAAXXZ 00000000004f1240 f i item_create.obj
 0001:000f0270       ?not_null_tables@Item_func_coercibility@@UEBA_KXZ 00000000004f1270 f i item_create.obj
 0001:000f0280       ??_EItem_func_coercibility@@UEAAPEAXI@Z 00000000004f1280 f i item_create.obj
 0001:000f0280       ??_GItem_func_coercibility@@UEAAPEAXI@Z 00000000004f1280 f i item_create.obj
 0001:000f02f0       ??1Item_func_coercibility@@UEAA@XZ 00000000004f12f0 f i item_create.obj
 0001:000f0330       ??0Item_func_char_length@@QEAA@PEAVItem@@@Z 00000000004f1330 f i item_create.obj
 0001:000f03f0       ?func_name@Item_func_char_length@@UEBAPEBDXZ 00000000004f13f0 f i item_create.obj
 0001:000f0410       ?fix_length_and_dec@Item_func_char_length@@UEAAXXZ 00000000004f1410 f i item_create.obj
 0001:000f0430       ??_GItem_func_char_length@@UEAAPEAXI@Z 00000000004f1430 f i item_create.obj
 0001:000f0430       ??_EItem_func_char_length@@UEAAPEAXI@Z 00000000004f1430 f i item_create.obj
 0001:000f04a0       ??1Item_func_char_length@@UEAA@XZ 00000000004f14a0 f i item_create.obj
 0001:000f0530       ??0Item_func_ln@@QEAA@PEAVItem@@@Z 00000000004f1530 f i item_create.obj
 0001:000f05a0       ?func_name@Item_func_ln@@UEBAPEBDXZ 00000000004f15a0 f i item_create.obj
 0001:000f05c0       ??_EItem_func_ln@@UEAAPEAXI@Z 00000000004f15c0 f i item_create.obj
 0001:000f05c0       ??_GItem_func_ln@@UEAAPEAXI@Z 00000000004f15c0 f i item_create.obj
 0001:000f0630       ??1Item_func_ln@@UEAA@XZ   00000000004f1630 f i item_create.obj
 0001:000f0670       ??0Item_func_log2@@QEAA@PEAVItem@@@Z 00000000004f1670 f i item_create.obj
 0001:000f06e0       ?func_name@Item_func_log2@@UEBAPEBDXZ 00000000004f16e0 f i item_create.obj
 0001:000f0700       ??_EItem_func_log2@@UEAAPEAXI@Z 00000000004f1700 f i item_create.obj
 0001:000f0700       ??_GItem_func_log2@@UEAAPEAXI@Z 00000000004f1700 f i item_create.obj
 0001:000f0770       ??1Item_func_log2@@UEAA@XZ 00000000004f1770 f i item_create.obj
 0001:000f07b0       ??0Item_func_log10@@QEAA@PEAVItem@@@Z 00000000004f17b0 f i item_create.obj
 0001:000f0820       ?func_name@Item_func_log10@@UEBAPEBDXZ 00000000004f1820 f i item_create.obj
 0001:000f0840       ??_EItem_func_log10@@UEAAPEAXI@Z 00000000004f1840 f i item_create.obj
 0001:000f0840       ??_GItem_func_log10@@UEAAPEAXI@Z 00000000004f1840 f i item_create.obj
 0001:000f08b0       ??1Item_func_log10@@UEAA@XZ 00000000004f18b0 f i item_create.obj
 0001:000f08f0       ??0Item_func_lpad@@QEAA@PEAVItem@@00@Z 00000000004f18f0 f i item_create.obj
 0001:000f0a30       ?func_name@Item_func_lpad@@UEBAPEBDXZ 00000000004f1a30 f i item_create.obj
 0001:000f0a50       ??_GItem_func_lpad@@UEAAPEAXI@Z 00000000004f1a50 f i item_create.obj
 0001:000f0a50       ??_EItem_func_lpad@@UEAAPEAXI@Z 00000000004f1a50 f i item_create.obj
 0001:000f0ac0       ??1Item_func_lpad@@UEAA@XZ 00000000004f1ac0 f i item_create.obj
 0001:000f0bc0       ??0Item_func_ltrim@@QEAA@PEAVItem@@@Z 00000000004f1bc0 f i item_create.obj
 0001:000f0c30       ??0Item_func_trim@@QEAA@PEAVItem@@@Z 00000000004f1c30 f i item_create.obj
 0001:000f0d60       ?func_name@Item_func_trim@@UEBAPEBDXZ 00000000004f1d60 f i item_create.obj
 0001:000f0d80       ?mode_name@Item_func_trim@@UEBAPEBDXZ 00000000004f1d80 f i item_create.obj
 0001:000f0da0       ??_EItem_func_trim@@UEAAPEAXI@Z 00000000004f1da0 f i item_create.obj
 0001:000f0da0       ??_GItem_func_trim@@UEAAPEAXI@Z 00000000004f1da0 f i item_create.obj
 0001:000f0e10       ??1Item_func_trim@@UEAA@XZ 00000000004f1e10 f i item_create.obj
 0001:000f0f10       ?func_name@Item_func_ltrim@@UEBAPEBDXZ 00000000004f1f10 f i item_create.obj
 0001:000f0f30       ?mode_name@Item_func_ltrim@@UEBAPEBDXZ 00000000004f1f30 f i item_create.obj
 0001:000f0f50       ??_EItem_func_ltrim@@UEAAPEAXI@Z 00000000004f1f50 f i item_create.obj
 0001:000f0f50       ??_GItem_func_ltrim@@UEAAPEAXI@Z 00000000004f1f50 f i item_create.obj
 0001:000f0fc0       ??1Item_func_ltrim@@UEAA@XZ 00000000004f1fc0 f i item_create.obj
 0001:000f1000       ??0Item_func_md5@@QEAA@PEAVItem@@@Z 00000000004f2000 f i item_create.obj
 0001:000f1130       ?func_name@Item_func_md5@@UEBAPEBDXZ 00000000004f2130 f i item_create.obj
 0001:000f1150       ??_EItem_func_md5@@UEAAPEAXI@Z 00000000004f2150 f i item_create.obj
 0001:000f1150       ??_GItem_func_md5@@UEAAPEAXI@Z 00000000004f2150 f i item_create.obj
 0001:000f11c0       ??1Item_func_md5@@UEAA@XZ  00000000004f21c0 f i item_create.obj
 0001:000f1250       ??0Item_func_mod@@QEAA@PEAVItem@@0@Z 00000000004f2250 f i item_create.obj
 0001:000f12d0       ?func_name@Item_func_mod@@UEBAPEBDXZ 00000000004f22d0 f i item_create.obj
 0001:000f12f0       ??_EItem_func_mod@@UEAAPEAXI@Z 00000000004f22f0 f i item_create.obj
 0001:000f12f0       ??_GItem_func_mod@@UEAAPEAXI@Z 00000000004f22f0 f i item_create.obj
 0001:000f1360       ??1Item_func_mod@@UEAA@XZ  00000000004f2360 f i item_create.obj
 0001:000f13a0       ??0Item_name_const@@QEAA@PEAVItem@@0@Z 00000000004f23a0 f i item_create.obj
 0001:000f1440       ?result_type@Item_name_const@@UEBA?AW4Item_result@@XZ 00000000004f2440 f i item_create.obj
 0001:000f14a0       ?const_item@Item_name_const@@UEBAHXZ 00000000004f24a0 f i item_create.obj
 0001:000f14b0       ?save_in_field@Item_name_const@@UEAAHPEAVField@@H@Z 00000000004f24b0 f i item_create.obj
 0001:000f1520       ?send@Item_name_const@@UEAAHPEAVProtocol@@PEAVString@@@Z 00000000004f2520 f i item_create.obj
 0001:000f1590       ??_GItem_name_const@@UEAAPEAXI@Z 00000000004f2590 f i item_create.obj
 0001:000f1590       ??_EItem_name_const@@UEAAPEAXI@Z 00000000004f2590 f i item_create.obj
 0001:000f1600       ??1Item_name_const@@UEAA@XZ 00000000004f2600 f i item_create.obj
 0001:000f1640       ??0Item_func_monthname@@QEAA@PEAVItem@@@Z 00000000004f2640 f i item_create.obj
 0001:000f16b0       ??0Item_func_month@@QEAA@PEAVItem@@@Z 00000000004f26b0 f i item_create.obj
 0001:000f1720       ?val_real@Item_func_month@@UEAANXZ 00000000004f2720 f i item_create.obj
 0001:000f17a0       ?val_str@Item_func_month@@UEAAPEAVString@@PEAV2@@Z 00000000004f27a0 f i item_create.obj
 0001:000f1840       ?func_name@Item_func_month@@UEBAPEBDXZ 00000000004f2840 f i item_create.obj
 0001:000f1860       ?result_type@Item_func_month@@UEBA?AW4Item_result@@XZ 00000000004f2860 f i item_create.obj
 0001:000f1870       ?fix_length_and_dec@Item_func_month@@UEAAXXZ 00000000004f2870 f i item_create.obj
 0001:000f18f0       ??_EItem_func_month@@UEAAPEAXI@Z 00000000004f28f0 f i item_create.obj
 0001:000f18f0       ??_GItem_func_month@@UEAAPEAXI@Z 00000000004f28f0 f i item_create.obj
 0001:000f1960       ??1Item_func_month@@UEAA@XZ 00000000004f2960 f i item_create.obj
 0001:000f19a0       ?func_name@Item_func_monthname@@UEBAPEBDXZ 00000000004f29a0 f i item_create.obj
 0001:000f19c0       ?result_type@Item_func_monthname@@UEBA?AW4Item_result@@XZ 00000000004f29c0 f i item_create.obj
 0001:000f19d0       ?fix_length_and_dec@Item_func_monthname@@UEAAXXZ 00000000004f29d0 f i item_create.obj
 0001:000f1a50       ??_GItem_func_monthname@@UEAAPEAXI@Z 00000000004f2a50 f i item_create.obj
 0001:000f1a50       ??_EItem_func_monthname@@UEAAPEAXI@Z 00000000004f2a50 f i item_create.obj
 0001:000f1ac0       ??1Item_func_monthname@@UEAA@XZ 00000000004f2ac0 f i item_create.obj
 0001:000f1b00       ??0Item_func_period_add@@QEAA@PEAVItem@@0@Z 00000000004f2b00 f i item_create.obj
 0001:000f1b80       ?func_name@Item_func_period_add@@UEBAPEBDXZ 00000000004f2b80 f i item_create.obj
 0001:000f1ba0       ?fix_length_and_dec@Item_func_period_add@@UEAAXXZ 00000000004f2ba0 f i item_create.obj
 0001:000f1bc0       ??_EItem_func_period_add@@UEAAPEAXI@Z 00000000004f2bc0 f i item_create.obj
 0001:000f1bc0       ??_GItem_func_period_add@@UEAAPEAXI@Z 00000000004f2bc0 f i item_create.obj
 0001:000f1c30       ??1Item_func_period_add@@UEAA@XZ 00000000004f2c30 f i item_create.obj
 0001:000f1c70       ??0Item_func_period_diff@@QEAA@PEAVItem@@0@Z 00000000004f2c70 f i item_create.obj
 0001:000f1cf0       ?func_name@Item_func_period_diff@@UEBAPEBDXZ 00000000004f2cf0 f i item_create.obj
 0001:000f1d10       ?fix_length_and_dec@Item_func_period_diff@@UEAAXXZ 00000000004f2d10 f i item_create.obj
 0001:000f1d40       ??_EItem_func_period_diff@@UEAAPEAXI@Z 00000000004f2d40 f i item_create.obj
 0001:000f1d40       ??_GItem_func_period_diff@@UEAAPEAXI@Z 00000000004f2d40 f i item_create.obj
 0001:000f1db0       ??1Item_func_period_diff@@UEAA@XZ 00000000004f2db0 f i item_create.obj
 0001:000f1df0       ??0Item_static_float_func@@QEAA@PEBDNII@Z 00000000004f2df0 f i item_create.obj
 0001:000f1e90       ?print@Item_static_float_func@@UEAAXPEAVString@@@Z 00000000004f2e90 f i item_create.obj
 0001:000f1ef0       ??_EItem_static_float_func@@UEAAPEAXI@Z 00000000004f2ef0 f i item_create.obj
 0001:000f1ef0       ??_GItem_static_float_func@@UEAAPEAXI@Z 00000000004f2ef0 f i item_create.obj
 0001:000f1f60       ??1Item_static_float_func@@UEAA@XZ 00000000004f2f60 f i item_create.obj
 0001:000f1fa0       ??0Item_func_pow@@QEAA@PEAVItem@@0@Z 00000000004f2fa0 f i item_create.obj
 0001:000f2020       ??0Item_dec_func@@QEAA@PEAVItem@@0@Z 00000000004f3020 f i item_create.obj
 0001:000f20a0       ??0Item_real_func@@QEAA@PEAVItem@@0@Z 00000000004f30a0 f i item_create.obj
 0001:000f2120       ?func_name@Item_func_pow@@UEBAPEBDXZ 00000000004f3120 f i item_create.obj
 0001:000f2140       ??_GItem_func_pow@@UEAAPEAXI@Z 00000000004f3140 f i item_create.obj
 0001:000f2140       ??_EItem_func_pow@@UEAAPEAXI@Z 00000000004f3140 f i item_create.obj
 0001:000f21b0       ??1Item_func_pow@@UEAA@XZ  00000000004f31b0 f i item_create.obj
 0001:000f21f0       ??0Item_func_release_lock@@QEAA@PEAVItem@@@Z 00000000004f31f0 f i item_create.obj
 0001:000f22b0       ?func_name@Item_func_release_lock@@UEBAPEBDXZ 00000000004f32b0 f i item_create.obj
 0001:000f22d0       ?fix_length_and_dec@Item_func_release_lock@@UEAAXXZ 00000000004f32d0 f i item_create.obj
 0001:000f2300       ??_GItem_func_release_lock@@UEAAPEAXI@Z 00000000004f3300 f i item_create.obj
 0001:000f2300       ??_EItem_func_release_lock@@UEAAPEAXI@Z 00000000004f3300 f i item_create.obj
 0001:000f2370       ??1Item_func_release_lock@@UEAA@XZ 00000000004f3370 f i item_create.obj
 0001:000f2400       ??0Item_func_repeat@@QEAA@PEAVItem@@0@Z 00000000004f3400 f i item_create.obj
 0001:000f24d0       ?func_name@Item_func_repeat@@UEBAPEBDXZ 00000000004f34d0 f i item_create.obj
 0001:000f24f0       ??_EItem_func_repeat@@UEAAPEAXI@Z 00000000004f34f0 f i item_create.obj
 0001:000f24f0       ??_GItem_func_repeat@@UEAAPEAXI@Z 00000000004f34f0 f i item_create.obj
 0001:000f2560       ??1Item_func_repeat@@UEAA@XZ 00000000004f3560 f i item_create.obj
 0001:000f25f0       ??0Item_func_reverse@@QEAA@PEAVItem@@@Z 00000000004f35f0 f i item_create.obj
 0001:000f26b0       ?func_name@Item_func_reverse@@UEBAPEBDXZ 00000000004f36b0 f i item_create.obj
 0001:000f26d0       ??_EItem_func_reverse@@UEAAPEAXI@Z 00000000004f36d0 f i item_create.obj
 0001:000f26d0       ??_GItem_func_reverse@@UEAAPEAXI@Z 00000000004f36d0 f i item_create.obj
 0001:000f2740       ??1Item_func_reverse@@UEAA@XZ 00000000004f3740 f i item_create.obj
 0001:000f27d0       ??0Item_func_rpad@@QEAA@PEAVItem@@00@Z 00000000004f37d0 f i item_create.obj
 0001:000f2910       ?func_name@Item_func_rpad@@UEBAPEBDXZ 00000000004f3910 f i item_create.obj
 0001:000f2930       ??_EItem_func_rpad@@UEAAPEAXI@Z 00000000004f3930 f i item_create.obj
 0001:000f2930       ??_GItem_func_rpad@@UEAAPEAXI@Z 00000000004f3930 f i item_create.obj
 0001:000f29a0       ??1Item_func_rpad@@UEAA@XZ 00000000004f39a0 f i item_create.obj
 0001:000f2aa0       ??0Item_func_rtrim@@QEAA@PEAVItem@@@Z 00000000004f3aa0 f i item_create.obj
 0001:000f2b10       ?func_name@Item_func_rtrim@@UEBAPEBDXZ 00000000004f3b10 f i item_create.obj
 0001:000f2b30       ?mode_name@Item_func_rtrim@@UEBAPEBDXZ 00000000004f3b30 f i item_create.obj
 0001:000f2b50       ??_GItem_func_rtrim@@UEAAPEAXI@Z 00000000004f3b50 f i item_create.obj
 0001:000f2b50       ??_EItem_func_rtrim@@UEAAPEAXI@Z 00000000004f3b50 f i item_create.obj
 0001:000f2bc0       ??1Item_func_rtrim@@UEAA@XZ 00000000004f3bc0 f i item_create.obj
 0001:000f2c00       ??0Item_func_sec_to_time@@QEAA@PEAVItem@@@Z 00000000004f3c00 f i item_create.obj
 0001:000f2c70       ??0Item_str_timefunc@@QEAA@PEAVItem@@@Z 00000000004f3c70 f i item_create.obj
 0001:000f2ce0       ?field_type@Item_str_timefunc@@UEBA?AW4enum_field_types@@XZ 00000000004f3ce0 f i item_create.obj
 0001:000f2cf0       ?fix_length_and_dec@Item_str_timefunc@@UEAAXXZ 00000000004f3cf0 f i item_create.obj
 0001:000f2d20       ?tmp_table_field@Item_str_timefunc@@UEAAPEAVField@@PEAUst_table@@@Z 00000000004f3d20 f i item_create.obj
 0001:000f2e20       ?val_real@Item_str_timefunc@@UEAANXZ 00000000004f3e20 f i item_create.obj
 0001:000f2e60       ?val_decimal@Item_str_timefunc@@UEAAPEAVmy_decimal@@PEAV2@@Z 00000000004f3e60 f i item_create.obj
 0001:000f2ee0       ?save_in_field@Item_str_timefunc@@UEAAHPEAVField@@H@Z 00000000004f3ee0 f i item_create.obj
 0001:000f2f40       ??_EItem_str_timefunc@@UEAAPEAXI@Z 00000000004f3f40 f i item_create.obj
 0001:000f2f40       ??_GItem_str_timefunc@@UEAAPEAXI@Z 00000000004f3f40 f i item_create.obj
 0001:000f2fb0       ??1Item_str_timefunc@@UEAA@XZ 00000000004f3fb0 f i item_create.obj
 0001:000f2ff0       ?val_real@Item_func_sec_to_time@@UEAANXZ 00000000004f3ff0 f i item_create.obj
 0001:000f3070       ?fix_length_and_dec@Item_func_sec_to_time@@UEAAXXZ 00000000004f4070 f i item_create.obj
 0001:000f30e0       ?func_name@Item_func_sec_to_time@@UEBAPEBDXZ 00000000004f40e0 f i item_create.obj
 0001:000f3100       ?result_as_longlong@Item_func_sec_to_time@@UEAAHXZ 00000000004f4100 f i item_create.obj
 0001:000f3110       ??_EItem_func_sec_to_time@@UEAAPEAXI@Z 00000000004f4110 f i item_create.obj
 0001:000f3110       ??_GItem_func_sec_to_time@@UEAAPEAXI@Z 00000000004f4110 f i item_create.obj
 0001:000f3180       ??1Item_func_sec_to_time@@UEAA@XZ 00000000004f4180 f i item_create.obj
 0001:000f31c0       ??0Item_func_sign@@QEAA@PEAVItem@@@Z 00000000004f41c0 f i item_create.obj
 0001:000f3230       ?func_name@Item_func_sign@@UEBAPEBDXZ 00000000004f4230 f i item_create.obj
 0001:000f3250       ??_EItem_func_sign@@UEAAPEAXI@Z 00000000004f4250 f i item_create.obj
 0001:000f3250       ??_GItem_func_sign@@UEAAPEAXI@Z 00000000004f4250 f i item_create.obj
 0001:000f32c0       ??1Item_func_sign@@UEAA@XZ 00000000004f42c0 f i item_create.obj
 0001:000f3300       ??0Item_func_sin@@QEAA@PEAVItem@@@Z 00000000004f4300 f i item_create.obj
 0001:000f3370       ?func_name@Item_func_sin@@UEBAPEBDXZ 00000000004f4370 f i item_create.obj
 0001:000f3390       ??_EItem_func_sin@@UEAAPEAXI@Z 00000000004f4390 f i item_create.obj
 0001:000f3390       ??_GItem_func_sin@@UEAAPEAXI@Z 00000000004f4390 f i item_create.obj
 0001:000f3400       ??1Item_func_sin@@UEAA@XZ  00000000004f4400 f i item_create.obj
 0001:000f3440       ??0Item_func_sha@@QEAA@PEAVItem@@@Z 00000000004f4440 f i item_create.obj
 0001:000f3510       ?func_name@Item_func_sha@@UEBAPEBDXZ 00000000004f4510 f i item_create.obj
 0001:000f3530       ??_GItem_func_sha@@UEAAPEAXI@Z 00000000004f4530 f i item_create.obj
 0001:000f3530       ??_EItem_func_sha@@UEAAPEAXI@Z 00000000004f4530 f i item_create.obj
 0001:000f35a0       ??1Item_func_sha@@UEAA@XZ  00000000004f45a0 f i item_create.obj
 0001:000f35e0       ??0Item_func_sleep@@QEAA@PEAVItem@@@Z 00000000004f45e0 f i item_create.obj
 0001:000f3650       ?const_item@Item_func_sleep@@UEBAHXZ 00000000004f4650 f i item_create.obj
 0001:000f3660       ?func_name@Item_func_sleep@@UEBAPEBDXZ 00000000004f4660 f i item_create.obj
 0001:000f3680       ?update_used_tables@Item_func_sleep@@UEAAXXZ 00000000004f4680 f i item_create.obj
 0001:000f36f0       ??_GItem_func_sleep@@UEAAPEAXI@Z 00000000004f46f0 f i item_create.obj
 0001:000f36f0       ??_EItem_func_sleep@@UEAAPEAXI@Z 00000000004f46f0 f i item_create.obj
 0001:000f3760       ??1Item_func_sleep@@UEAA@XZ 00000000004f4760 f i item_create.obj
 0001:000f37a0       ??0Item_func_soundex@@QEAA@PEAVItem@@@Z 00000000004f47a0 f i item_create.obj
 0001:000f3860       ?func_name@Item_func_soundex@@UEBAPEBDXZ 00000000004f4860 f i item_create.obj
 0001:000f3880       ??_GItem_func_soundex@@UEAAPEAXI@Z 00000000004f4880 f i item_create.obj
 0001:000f3880       ??_EItem_func_soundex@@UEAAPEAXI@Z 00000000004f4880 f i item_create.obj
 0001:000f38f0       ??1Item_func_soundex@@UEAA@XZ 00000000004f48f0 f i item_create.obj
 0001:000f3980       ??0Item_func_sqrt@@QEAA@PEAVItem@@@Z 00000000004f4980 f i item_create.obj
 0001:000f39f0       ?func_name@Item_func_sqrt@@UEBAPEBDXZ 00000000004f49f0 f i item_create.obj
 0001:000f3a10       ??_EItem_func_sqrt@@UEAAPEAXI@Z 00000000004f4a10 f i item_create.obj
 0001:000f3a10       ??_GItem_func_sqrt@@UEAAPEAXI@Z 00000000004f4a10 f i item_create.obj
 0001:000f3a80       ??1Item_func_sqrt@@UEAA@XZ 00000000004f4a80 f i item_create.obj
 0001:000f3ac0       ??0Item_func_strcmp@@QEAA@PEAVItem@@0@Z 00000000004f4ac0 f i item_create.obj
 0001:000f3b40       ?select_optimize@Item_func_strcmp@@UEBA?AW4optimize_type@Item_func@@XZ 00000000004f4b40 f i item_create.obj
 0001:000f3b50       ?func_name@Item_func_strcmp@@UEBAPEBDXZ 00000000004f4b50 f i item_create.obj
 0001:000f3b70       ?print@Item_func_strcmp@@UEAAXPEAVString@@@Z 00000000004f4b70 f i item_create.obj
 0001:000f3bc0       ??_EItem_func_strcmp@@UEAAPEAXI@Z 00000000004f4bc0 f i item_create.obj
 0001:000f3bc0       ??_GItem_func_strcmp@@UEAAPEAXI@Z 00000000004f4bc0 f i item_create.obj
 0001:000f3c30       ??1Item_func_strcmp@@UEAA@XZ 00000000004f4c30 f i item_create.obj
 0001:000f3c70       ??0Item_func_time_to_sec@@QEAA@PEAVItem@@@Z 00000000004f4c70 f i item_create.obj
 0001:000f3ce0       ?func_name@Item_func_time_to_sec@@UEBAPEBDXZ 00000000004f4ce0 f i item_create.obj
 0001:000f3d00       ?fix_length_and_dec@Item_func_time_to_sec@@UEAAXXZ 00000000004f4d00 f i item_create.obj
 0001:000f3d30       ??_EItem_func_time_to_sec@@UEAAPEAXI@Z 00000000004f4d30 f i item_create.obj
 0001:000f3d30       ??_GItem_func_time_to_sec@@UEAAPEAXI@Z 00000000004f4d30 f i item_create.obj
 0001:000f3da0       ??1Item_func_time_to_sec@@UEAA@XZ 00000000004f4da0 f i item_create.obj
 0001:000f3de0       ??0Item_func_to_days@@QEAA@PEAVItem@@@Z 00000000004f4de0 f i item_create.obj
 0001:000f3e50       ?func_name@Item_func_to_days@@UEBAPEBDXZ 00000000004f4e50 f i item_create.obj
 0001:000f3e70       ?fix_length_and_dec@Item_func_to_days@@UEAAXXZ 00000000004f4e70 f i item_create.obj
 0001:000f3ea0       ??_EItem_func_to_days@@UEAAPEAXI@Z 00000000004f4ea0 f i item_create.obj
 0001:000f3ea0       ??_GItem_func_to_days@@UEAAPEAXI@Z 00000000004f4ea0 f i item_create.obj
 0001:000f3f10       ??1Item_func_to_days@@UEAA@XZ 00000000004f4f10 f i item_create.obj
 0001:000f3f50       ??0Item_func_ucase@@QEAA@PEAVItem@@@Z 00000000004f4f50 f i item_create.obj
 0001:000f3fc0       ?func_name@Item_func_ucase@@UEBAPEBDXZ 00000000004f4fc0 f i item_create.obj
 0001:000f3fe0       ?fix_length_and_dec@Item_func_ucase@@UEAAXXZ 00000000004f4fe0 f i item_create.obj
 0001:000f40c0       ??_GItem_func_ucase@@UEAAPEAXI@Z 00000000004f50c0 f i item_create.obj
 0001:000f40c0       ??_EItem_func_ucase@@UEAAPEAXI@Z 00000000004f50c0 f i item_create.obj
 0001:000f4130       ??1Item_func_ucase@@UEAA@XZ 00000000004f5130 f i item_create.obj
 0001:000f4170       ??0Item_func_unhex@@QEAA@PEAVItem@@@Z 00000000004f5170 f i item_create.obj
 0001:000f4240       ?func_name@Item_func_unhex@@UEBAPEBDXZ 00000000004f5240 f i item_create.obj
 0001:000f4260       ?fix_length_and_dec@Item_func_unhex@@UEAAXXZ 00000000004f5260 f i item_create.obj
 0001:000f42f0       ??_GItem_func_unhex@@UEAAPEAXI@Z 00000000004f52f0 f i item_create.obj
 0001:000f42f0       ??_EItem_func_unhex@@UEAAPEAXI@Z 00000000004f52f0 f i item_create.obj
 0001:000f4360       ??1Item_func_unhex@@UEAA@XZ 00000000004f5360 f i item_create.obj
 0001:000f43f0       ??0Item_func_uuid@@QEAA@XZ 00000000004f53f0 f i item_create.obj
 0001:000f4450       ??0Item_str_func@@QEAA@XZ  00000000004f5450 f i item_create.obj
 0001:000f44c0       ?fix_length_and_dec@Item_func_uuid@@UEAAXXZ 00000000004f54c0 f i item_create.obj
 0001:000f4530       ?func_name@Item_func_uuid@@UEBAPEBDXZ 00000000004f5530 f i item_create.obj
 0001:000f4550       ??_GItem_func_uuid@@UEAAPEAXI@Z 00000000004f5550 f i item_create.obj
 0001:000f4550       ??_EItem_func_uuid@@UEAAPEAXI@Z 00000000004f5550 f i item_create.obj
 0001:000f45c0       ??1Item_func_uuid@@UEAA@XZ 00000000004f55c0 f i item_create.obj
 0001:000f4600       ??0Item_func_year@@QEAA@PEAVItem@@@Z 00000000004f5600 f i item_create.obj
 0001:000f4670       ?func_name@Item_func_year@@UEBAPEBDXZ 00000000004f5670 f i item_create.obj
 0001:000f4690       ?fix_length_and_dec@Item_func_year@@UEAAXXZ 00000000004f5690 f i item_create.obj
 0001:000f46c0       ??_EItem_func_year@@UEAAPEAXI@Z 00000000004f56c0 f i item_create.obj
 0001:000f46c0       ??_GItem_func_year@@UEAAPEAXI@Z 00000000004f56c0 f i item_create.obj
 0001:000f4730       ??1Item_func_year@@UEAA@XZ 00000000004f5730 f i item_create.obj
 0001:000f4770       ??0Item_load_file@@QEAA@PEAVItem@@@Z 00000000004f5770 f i item_create.obj
 0001:000f4830       ?func_name@Item_load_file@@UEBAPEBDXZ 00000000004f5830 f i item_create.obj
 0001:000f4850       ?fix_length_and_dec@Item_load_file@@UEAAXXZ 00000000004f5850 f i item_create.obj
 0001:000f48d0       ??_EItem_load_file@@UEAAPEAXI@Z 00000000004f58d0 f i item_create.obj
 0001:000f48d0       ??_GItem_load_file@@UEAAPEAXI@Z 00000000004f58d0 f i item_create.obj
 0001:000f4940       ??1Item_load_file@@UEAA@XZ 00000000004f5940 f i item_create.obj
 0001:000f49d0       ??0Item_func_signed@@QEAA@PEAVItem@@@Z 00000000004f59d0 f i item_create.obj
 0001:000f4a40       ?func_name@Item_func_signed@@UEBAPEBDXZ 00000000004f5a40 f i item_create.obj
 0001:000f4a60       ?fix_length_and_dec@Item_func_signed@@UEAAXXZ 00000000004f5a60 f i item_create.obj
 0001:000f4aa0       ?decimal_precision@Item_func_signed@@UEBAIXZ 00000000004f5aa0 f i item_create.obj
 0001:000f4b00       ??_EItem_func_signed@@UEAAPEAXI@Z 00000000004f5b00 f i item_create.obj
 0001:000f4b00       ??_GItem_func_signed@@UEAAPEAXI@Z 00000000004f5b00 f i item_create.obj
 0001:000f4b70       ??1Item_func_signed@@UEAA@XZ 00000000004f5b70 f i item_create.obj
 0001:000f4bb0       ??0Item_func_unsigned@@QEAA@PEAVItem@@@Z 00000000004f5bb0 f i item_create.obj
 0001:000f4c20       ?func_name@Item_func_unsigned@@UEBAPEBDXZ 00000000004f5c20 f i item_create.obj
 0001:000f4c40       ?fix_length_and_dec@Item_func_unsigned@@UEAAXXZ 00000000004f5c40 f i item_create.obj
 0001:000f4c80       ??_GItem_func_unsigned@@UEAAPEAXI@Z 00000000004f5c80 f i item_create.obj
 0001:000f4c80       ??_EItem_func_unsigned@@UEAAPEAXI@Z 00000000004f5c80 f i item_create.obj
 0001:000f4cf0       ??1Item_func_unsigned@@UEAA@XZ 00000000004f5cf0 f i item_create.obj
 0001:000f4d30       ??0Item_decimal_typecast@@QEAA@PEAVItem@@HH@Z 00000000004f5d30 f i item_create.obj
 0001:000f4e40       ?result_type@Item_decimal_typecast@@UEBA?AW4Item_result@@XZ 00000000004f5e40 f i item_create.obj
 0001:000f4e50       ?field_type@Item_decimal_typecast@@UEBA?AW4enum_field_types@@XZ 00000000004f5e50 f i item_create.obj
 0001:000f4e60       ?fix_length_and_dec@Item_decimal_typecast@@UEAAXXZ 00000000004f5e60 f i item_create.obj
 0001:000f4e70       ?func_name@Item_decimal_typecast@@UEBAPEBDXZ 00000000004f5e70 f i item_create.obj
 0001:000f4e90       ??_GItem_decimal_typecast@@UEAAPEAXI@Z 00000000004f5e90 f i item_create.obj
 0001:000f4e90       ??_EItem_decimal_typecast@@UEAAPEAXI@Z 00000000004f5e90 f i item_create.obj
 0001:000f4f00       ??1Item_decimal_typecast@@UEAA@XZ 00000000004f5f00 f i item_create.obj
 0001:000f4f40       ??0Item_func_binary@@QEAA@PEAVItem@@@Z 00000000004f5f40 f i item_create.obj
 0001:000f4fb0       ?val_str@Item_func_binary@@UEAAPEAVString@@PEAV2@@Z 00000000004f5fb0 f i item_create.obj
 0001:000f50a0       ?fix_length_and_dec@Item_func_binary@@UEAAXXZ 00000000004f60a0 f i item_create.obj
 0001:000f5110       ?func_name@Item_func_binary@@UEBAPEBDXZ 00000000004f6110 f i item_create.obj
 0001:000f5130       ??_EItem_func_binary@@UEAAPEAXI@Z 00000000004f6130 f i item_create.obj
 0001:000f5130       ??_GItem_func_binary@@UEAAPEAXI@Z 00000000004f6130 f i item_create.obj
 0001:000f51a0       ??1Item_func_binary@@UEAA@XZ 00000000004f61a0 f i item_create.obj
 0001:000f51e0       ??0Item_char_typecast@@QEAA@PEAVItem@@HPEAUcharset_info_st@@@Z 00000000004f61e0 f i item_create.obj
 0001:000f52e0       ??0Item_typecast@@QEAA@PEAVItem@@@Z 00000000004f62e0 f i item_create.obj
 0001:000f5350       ?val_str@Item_typecast@@UEAAPEAVString@@PEAV2@@Z 00000000004f6350 f i item_create.obj
 0001:000f5440       ?fix_length_and_dec@Item_typecast@@UEAAXXZ 00000000004f6440 f i item_create.obj
 0001:000f54b0       ??_EItem_typecast@@UEAAPEAXI@Z 00000000004f64b0 f i item_create.obj
 0001:000f54b0       ??_GItem_typecast@@UEAAPEAXI@Z 00000000004f64b0 f i item_create.obj
 0001:000f5520       ??1Item_typecast@@UEAA@XZ  00000000004f6520 f i item_create.obj
 0001:000f5560       ?functype@Item_char_typecast@@UEBA?AW4Functype@Item_func@@XZ 00000000004f6560 f i item_create.obj
 0001:000f5570       ?func_name@Item_char_typecast@@UEBAPEBDXZ 00000000004f6570 f i item_create.obj
 0001:000f5590       ?cast_type@Item_char_typecast@@UEBAPEBDXZ 00000000004f6590 f i item_create.obj
 0001:000f55b0       ??_GItem_char_typecast@@UEAAPEAXI@Z 00000000004f65b0 f i item_create.obj
 0001:000f55b0       ??_EItem_char_typecast@@UEAAPEAXI@Z 00000000004f65b0 f i item_create.obj
 0001:000f5620       ??1Item_char_typecast@@UEAA@XZ 00000000004f6620 f i item_create.obj
 0001:000f56b0       ??0Item_date_typecast@@QEAA@PEAVItem@@@Z 00000000004f66b0 f i item_create.obj
 0001:000f5720       ??0Item_typecast_maybe_null@@QEAA@PEAVItem@@@Z 00000000004f6720 f i item_create.obj
 0001:000f5790       ?fix_length_and_dec@Item_typecast_maybe_null@@UEAAXXZ 00000000004f6790 f i item_create.obj
 0001:000f5810       ??_EItem_typecast_maybe_null@@UEAAPEAXI@Z 00000000004f6810 f i item_create.obj
 0001:000f5810       ??_GItem_typecast_maybe_null@@UEAAPEAXI@Z 00000000004f6810 f i item_create.obj
 0001:000f5880       ??1Item_typecast_maybe_null@@UEAA@XZ 00000000004f6880 f i item_create.obj
 0001:000f58c0       ?func_name@Item_date_typecast@@UEBAPEBDXZ 00000000004f68c0 f i item_create.obj
 0001:000f58e0       ?cast_type@Item_date_typecast@@UEBAPEBDXZ 00000000004f68e0 f i item_create.obj
 0001:000f5900       ?field_type@Item_date_typecast@@UEBA?AW4enum_field_types@@XZ 00000000004f6900 f i item_create.obj
 0001:000f5910       ?tmp_table_field@Item_date_typecast@@UEAAPEAVField@@PEAUst_table@@@Z 00000000004f6910 f i item_create.obj
 0001:000f5a10       ?fix_length_and_dec@Item_date_typecast@@UEAAXXZ 00000000004f6a10 f i item_create.obj
 0001:000f5a80       ?result_as_longlong@Item_date_typecast@@UEAAHXZ 00000000004f6a80 f i item_create.obj
 0001:000f5a90       ?val_real@Item_date_typecast@@UEAANXZ 00000000004f6a90 f i item_create.obj
 0001:000f5ae0       ?val_decimal@Item_date_typecast@@UEAAPEAVmy_decimal@@PEAV2@@Z 00000000004f6ae0 f i item_create.obj
 0001:000f5b60       ?save_in_field@Item_date_typecast@@UEAAHPEAVField@@H@Z 00000000004f6b60 f i item_create.obj
 0001:000f5bc0       ??_GItem_date_typecast@@UEAAPEAXI@Z 00000000004f6bc0 f i item_create.obj
 0001:000f5bc0       ??_EItem_date_typecast@@UEAAPEAXI@Z 00000000004f6bc0 f i item_create.obj
 0001:000f5c30       ??1Item_date_typecast@@UEAA@XZ 00000000004f6c30 f i item_create.obj
 0001:000f5c70       ??0Item_time_typecast@@QEAA@PEAVItem@@@Z 00000000004f6c70 f i item_create.obj
 0001:000f5ce0       ?func_name@Item_time_typecast@@UEBAPEBDXZ 00000000004f6ce0 f i item_create.obj
 0001:000f5d00       ?cast_type@Item_time_typecast@@UEBAPEBDXZ 00000000004f6d00 f i item_create.obj
 0001:000f5d20       ?field_type@Item_time_typecast@@UEBA?AW4enum_field_types@@XZ 00000000004f6d20 f i item_create.obj
 0001:000f5d30       ?tmp_table_field@Item_time_typecast@@UEAAPEAVField@@PEAUst_table@@@Z 00000000004f6d30 f i item_create.obj
 0001:000f5e30       ?result_as_longlong@Item_time_typecast@@UEAAHXZ 00000000004f6e30 f i item_create.obj
 0001:000f5e40       ?val_real@Item_time_typecast@@UEAANXZ 00000000004f6e40 f i item_create.obj
 0001:000f5e80       ?val_decimal@Item_time_typecast@@UEAAPEAVmy_decimal@@PEAV2@@Z 00000000004f6e80 f i item_create.obj
 0001:000f5f00       ?save_in_field@Item_time_typecast@@UEAAHPEAVField@@H@Z 00000000004f6f00 f i item_create.obj
 0001:000f5f60       ??_GItem_time_typecast@@UEAAPEAXI@Z 00000000004f6f60 f i item_create.obj
 0001:000f5f60       ??_EItem_time_typecast@@UEAAPEAXI@Z 00000000004f6f60 f i item_create.obj
 0001:000f5fd0       ??1Item_time_typecast@@UEAA@XZ 00000000004f6fd0 f i item_create.obj
 0001:000f6010       ??0Item_datetime_typecast@@QEAA@PEAVItem@@@Z 00000000004f7010 f i item_create.obj
 0001:000f6080       ?func_name@Item_datetime_typecast@@UEBAPEBDXZ 00000000004f7080 f i item_create.obj
 0001:000f60a0       ?cast_type@Item_datetime_typecast@@UEBAPEBDXZ 00000000004f70a0 f i item_create.obj
 0001:000f60c0       ?field_type@Item_datetime_typecast@@UEBA?AW4enum_field_types@@XZ 00000000004f70c0 f i item_create.obj
 0001:000f60d0       ?fix_length_and_dec@Item_datetime_typecast@@UEAAXXZ 00000000004f70d0 f i item_create.obj
 0001:000f6120       ?tmp_table_field@Item_datetime_typecast@@UEAAPEAVField@@PEAUst_table@@@Z 00000000004f7120 f i item_create.obj
 0001:000f6220       ?result_as_longlong@Item_datetime_typecast@@UEAAHXZ 00000000004f7220 f i item_create.obj
 0001:000f6230       ?val_real@Item_datetime_typecast@@UEAANXZ 00000000004f7230 f i item_create.obj
 0001:000f6270       ?val_decimal@Item_datetime_typecast@@UEAAPEAVmy_decimal@@PEAV2@@Z 00000000004f7270 f i item_create.obj
 0001:000f62f0       ?save_in_field@Item_datetime_typecast@@UEAAHPEAVField@@H@Z 00000000004f72f0 f i item_create.obj
 0001:000f6350       ??_EItem_datetime_typecast@@UEAAPEAXI@Z 00000000004f7350 f i item_create.obj
 0001:000f6350       ??_GItem_datetime_typecast@@UEAAPEAXI@Z 00000000004f7350 f i item_create.obj
 0001:000f63c0       ??1Item_datetime_typecast@@UEAA@XZ 00000000004f73c0 f i item_create.obj
 0001:000f6400       ??0Item_func_is_free_lock@@QEAA@PEAVItem@@@Z 00000000004f7400 f i item_create.obj
 0001:000f64c0       ?func_name@Item_func_is_free_lock@@UEBAPEBDXZ 00000000004f74c0 f i item_create.obj
 0001:000f64e0       ?fix_length_and_dec@Item_func_is_free_lock@@UEAAXXZ 00000000004f74e0 f i item_create.obj
 0001:000f6510       ??_GItem_func_is_free_lock@@UEAAPEAXI@Z 00000000004f7510 f i item_create.obj
 0001:000f6510       ??_EItem_func_is_free_lock@@UEAAPEAXI@Z 00000000004f7510 f i item_create.obj
 0001:000f6580       ??1Item_func_is_free_lock@@UEAA@XZ 00000000004f7580 f i item_create.obj
 0001:000f6610       ??0Item_func_is_used_lock@@QEAA@PEAVItem@@@Z 00000000004f7610 f i item_create.obj
 0001:000f66d0       ?func_name@Item_func_is_used_lock@@UEBAPEBDXZ 00000000004f76d0 f i item_create.obj
 0001:000f66f0       ?fix_length_and_dec@Item_func_is_used_lock@@UEAAXXZ 00000000004f76f0 f i item_create.obj
 0001:000f6720       ??_EItem_func_is_used_lock@@UEAAPEAXI@Z 00000000004f7720 f i item_create.obj
 0001:000f6720       ??_GItem_func_is_used_lock@@UEAAPEAXI@Z 00000000004f7720 f i item_create.obj
 0001:000f6790       ??1Item_func_is_used_lock@@UEAA@XZ 00000000004f7790 f i item_create.obj
 0001:000f6820       ??0Item_func_quote@@QEAA@PEAVItem@@@Z 00000000004f7820 f i item_create.obj
 0001:000f68e0       ?func_name@Item_func_quote@@UEBAPEBDXZ 00000000004f78e0 f i item_create.obj
 0001:000f6900       ?fix_length_and_dec@Item_func_quote@@UEAAXXZ 00000000004f7900 f i item_create.obj
 0001:000f6980       ??_GItem_func_quote@@UEAAPEAXI@Z 00000000004f7980 f i item_create.obj
 0001:000f6980       ??_EItem_func_quote@@UEAAPEAXI@Z 00000000004f7980 f i item_create.obj
 0001:000f69f0       ??1Item_func_quote@@UEAA@XZ 00000000004f79f0 f i item_create.obj
 0001:000f6a80       ??0Item_func_as_wkt@@QEAA@PEAVItem@@@Z 00000000004f7a80 f i item_create.obj
 0001:000f6af0       ?func_name@Item_func_as_wkt@@UEBAPEBDXZ 00000000004f7af0 f i item_create.obj
 0001:000f6b10       ??_EItem_func_as_wkt@@UEAAPEAXI@Z 00000000004f7b10 f i item_create.obj
 0001:000f6b10       ??_GItem_func_as_wkt@@UEAAPEAXI@Z 00000000004f7b10 f i item_create.obj
 0001:000f6b80       ??1Item_func_as_wkt@@UEAA@XZ 00000000004f7b80 f i item_create.obj
 0001:000f6bc0       ??0Item_func_as_wkb@@QEAA@PEAVItem@@@Z 00000000004f7bc0 f i item_create.obj
 0001:000f6c30       ??0Item_geometry_func@@QEAA@PEAVItem@@@Z 00000000004f7c30 f i item_create.obj
 0001:000f6ca0       ?field_type@Item_geometry_func@@UEBA?AW4enum_field_types@@XZ 00000000004f7ca0 f i item_create.obj
 0001:000f6cb0       ?is_null@Item_geometry_func@@UEAAHXZ 00000000004f7cb0 f i item_create.obj
 0001:000f6d10       ??_EItem_geometry_func@@UEAAPEAXI@Z 00000000004f7d10 f i item_create.obj
 0001:000f6d10       ??_GItem_geometry_func@@UEAAPEAXI@Z 00000000004f7d10 f i item_create.obj
 0001:000f6d80       ??1Item_geometry_func@@UEAA@XZ 00000000004f7d80 f i item_create.obj
 0001:000f6dc0       ?func_name@Item_func_as_wkb@@UEBAPEBDXZ 00000000004f7dc0 f i item_create.obj
 0001:000f6de0       ?field_type@Item_func_as_wkb@@UEBA?AW4enum_field_types@@XZ 00000000004f7de0 f i item_create.obj
 0001:000f6df0       ??_EItem_func_as_wkb@@UEAAPEAXI@Z 00000000004f7df0 f i item_create.obj
 0001:000f6df0       ??_GItem_func_as_wkb@@UEAAPEAXI@Z 00000000004f7df0 f i item_create.obj
 0001:000f6e60       ??1Item_func_as_wkb@@UEAA@XZ 00000000004f7e60 f i item_create.obj
 0001:000f6ea0       ??0Item_func_srid@@QEAA@PEAVItem@@@Z 00000000004f7ea0 f i item_create.obj
 0001:000f6f60       ?func_name@Item_func_srid@@UEBAPEBDXZ 00000000004f7f60 f i item_create.obj
 0001:000f6f80       ?fix_length_and_dec@Item_func_srid@@UEAAXXZ 00000000004f7f80 f i item_create.obj
 0001:000f6fb0       ??_GItem_func_srid@@UEAAPEAXI@Z 00000000004f7fb0 f i item_create.obj
 0001:000f6fb0       ??_EItem_func_srid@@UEAAPEAXI@Z 00000000004f7fb0 f i item_create.obj
 0001:000f7020       ??1Item_func_srid@@UEAA@XZ 00000000004f8020 f i item_create.obj
 0001:000f70b0       ??0Item_func_spatial_decomp@@QEAA@PEAVItem@@W4Functype@Item_func@@@Z 00000000004f80b0 f i item_create.obj
 0001:000f7130       ?func_name@Item_func_spatial_decomp@@UEBAPEBDXZ 00000000004f8130 f i item_create.obj
 0001:000f71f0       ??_GItem_func_spatial_decomp@@UEAAPEAXI@Z 00000000004f81f0 f i item_create.obj
 0001:000f71f0       ??_EItem_func_spatial_decomp@@UEAAPEAXI@Z 00000000004f81f0 f i item_create.obj
 0001:000f7260       ??1Item_func_spatial_decomp@@UEAA@XZ 00000000004f8260 f i item_create.obj
 0001:000f72a0       ??0Item_func_spatial_decomp_n@@QEAA@PEAVItem@@0W4Functype@Item_func@@@Z 00000000004f82a0 f i item_create.obj
 0001:000f7330       ??0Item_geometry_func@@QEAA@PEAVItem@@0@Z 00000000004f8330 f i item_create.obj
 0001:000f73b0       ?func_name@Item_func_spatial_decomp_n@@UEBAPEBDXZ 00000000004f83b0 f i item_create.obj
 0001:000f7470       ??_EItem_func_spatial_decomp_n@@UEAAPEAXI@Z 00000000004f8470 f i item_create.obj
 0001:000f7470       ??_GItem_func_spatial_decomp_n@@UEAAPEAXI@Z 00000000004f8470 f i item_create.obj
 0001:000f74e0       ??1Item_func_spatial_decomp_n@@UEAA@XZ 00000000004f84e0 f i item_create.obj
 0001:000f7520       ??0Item_func_centroid@@QEAA@PEAVItem@@@Z 00000000004f8520 f i item_create.obj
 0001:000f7590       ?func_name@Item_func_centroid@@UEBAPEBDXZ 00000000004f8590 f i item_create.obj
 0001:000f75b0       ??_GItem_func_centroid@@UEAAPEAXI@Z 00000000004f85b0 f i item_create.obj
 0001:000f75b0       ??_EItem_func_centroid@@UEAAPEAXI@Z 00000000004f85b0 f i item_create.obj
 0001:000f7620       ??1Item_func_centroid@@UEAA@XZ 00000000004f8620 f i item_create.obj
 0001:000f7660       ??0Item_func_envelope@@QEAA@PEAVItem@@@Z 00000000004f8660 f i item_create.obj
 0001:000f76d0       ?func_name@Item_func_envelope@@UEBAPEBDXZ 00000000004f86d0 f i item_create.obj
 0001:000f76f0       ??_EItem_func_envelope@@UEAAPEAXI@Z 00000000004f86f0 f i item_create.obj
 0001:000f76f0       ??_GItem_func_envelope@@UEAAPEAXI@Z 00000000004f86f0 f i item_create.obj
 0001:000f7760       ??1Item_func_envelope@@UEAA@XZ 00000000004f8760 f i item_create.obj
 0001:000f77a0       ??0Item_func_spatial_rel@@QEAA@PEAVItem@@0W4Functype@Item_func@@@Z 00000000004f87a0 f i item_create.obj
 0001:000f7830       ?functype@Item_func_spatial_rel@@UEBA?AW4Functype@Item_func@@XZ 00000000004f8830 f i item_create.obj
 0001:000f78b0       ?rev_functype@Item_func_spatial_rel@@UEBA?AW4Functype@Item_func@@XZ 00000000004f88b0 f i item_create.obj
 0001:000f78d0       ?func_name@Item_func_spatial_rel@@UEBAPEBDXZ 00000000004f88d0 f i item_create.obj
 0001:000f7a10       ?print@Item_func_spatial_rel@@UEAAXPEAVString@@@Z 00000000004f8a10 f i item_create.obj
 0001:000f7a60       ?fix_length_and_dec@Item_func_spatial_rel@@UEAAXXZ 00000000004f8a60 f i item_create.obj
 0001:000f7a80       ?is_null@Item_func_spatial_rel@@UEAAHXZ 00000000004f8a80 f i item_create.obj
 0001:000f7ae0       ??_EItem_func_spatial_rel@@UEAAPEAXI@Z 00000000004f8ae0 f i item_create.obj
 0001:000f7ae0       ??_GItem_func_spatial_rel@@UEAAPEAXI@Z 00000000004f8ae0 f i item_create.obj
 0001:000f7b50       ??1Item_func_spatial_rel@@UEAA@XZ 00000000004f8b50 f i item_create.obj
 0001:000f7b90       ??0Item_func_isempty@@QEAA@PEAVItem@@@Z 00000000004f8b90 f i item_create.obj
 0001:000f7c00       ?select_optimize@Item_func_isempty@@UEBA?AW4optimize_type@Item_func@@XZ 00000000004f8c00 f i item_create.obj
 0001:000f7c10       ?func_name@Item_func_isempty@@UEBAPEBDXZ 00000000004f8c10 f i item_create.obj
 0001:000f7c30       ?fix_length_and_dec@Item_func_isempty@@UEAAXXZ 00000000004f8c30 f i item_create.obj
 0001:000f7c50       ??_EItem_func_isempty@@UEAAPEAXI@Z 00000000004f8c50 f i item_create.obj
 0001:000f7c50       ??_GItem_func_isempty@@UEAAPEAXI@Z 00000000004f8c50 f i item_create.obj
 0001:000f7cc0       ??1Item_func_isempty@@UEAA@XZ 00000000004f8cc0 f i item_create.obj
 0001:000f7d00       ??0Item_func_issimple@@QEAA@PEAVItem@@@Z 00000000004f8d00 f i item_create.obj
 0001:000f7d70       ?select_optimize@Item_func_issimple@@UEBA?AW4optimize_type@Item_func@@XZ 00000000004f8d70 f i item_create.obj
 0001:000f7d80       ?func_name@Item_func_issimple@@UEBAPEBDXZ 00000000004f8d80 f i item_create.obj
 0001:000f7da0       ?fix_length_and_dec@Item_func_issimple@@UEAAXXZ 00000000004f8da0 f i item_create.obj
 0001:000f7dc0       ??_EItem_func_issimple@@UEAAPEAXI@Z 00000000004f8dc0 f i item_create.obj
 0001:000f7dc0       ??_GItem_func_issimple@@UEAAPEAXI@Z 00000000004f8dc0 f i item_create.obj
 0001:000f7e30       ??1Item_func_issimple@@UEAA@XZ 00000000004f8e30 f i item_create.obj
 0001:000f7e70       ??0Item_func_isclosed@@QEAA@PEAVItem@@@Z 00000000004f8e70 f i item_create.obj
 0001:000f7ee0       ?select_optimize@Item_func_isclosed@@UEBA?AW4optimize_type@Item_func@@XZ 00000000004f8ee0 f i item_create.obj
 0001:000f7ef0       ?func_name@Item_func_isclosed@@UEBAPEBDXZ 00000000004f8ef0 f i item_create.obj
 0001:000f7f10       ?fix_length_and_dec@Item_func_isclosed@@UEAAXXZ 00000000004f8f10 f i item_create.obj
 0001:000f7f30       ??_EItem_func_isclosed@@UEAAPEAXI@Z 00000000004f8f30 f i item_create.obj
 0001:000f7f30       ??_GItem_func_isclosed@@UEAAPEAXI@Z 00000000004f8f30 f i item_create.obj
 0001:000f7fa0       ??1Item_func_isclosed@@UEAA@XZ 00000000004f8fa0 f i item_create.obj
 0001:000f7fe0       ??0Item_func_geometry_type@@QEAA@PEAVItem@@@Z 00000000004f8fe0 f i item_create.obj
 0001:000f8050       ?func_name@Item_func_geometry_type@@UEBAPEBDXZ 00000000004f9050 f i item_create.obj
 0001:000f8070       ?fix_length_and_dec@Item_func_geometry_type@@UEAAXXZ 00000000004f9070 f i item_create.obj
 0001:000f80a0       ??_EItem_func_geometry_type@@UEAAPEAXI@Z 00000000004f90a0 f i item_create.obj
 0001:000f80a0       ??_GItem_func_geometry_type@@UEAAPEAXI@Z 00000000004f90a0 f i item_create.obj
 0001:000f8110       ??1Item_func_geometry_type@@UEAA@XZ 00000000004f9110 f i item_create.obj
 0001:000f8150       ??0Item_func_dimension@@QEAA@PEAVItem@@@Z 00000000004f9150 f i item_create.obj
 0001:000f8210       ?func_name@Item_func_dimension@@UEBAPEBDXZ 00000000004f9210 f i item_create.obj
 0001:000f8230       ?fix_length_and_dec@Item_func_dimension@@UEAAXXZ 00000000004f9230 f i item_create.obj
 0001:000f8260       ??_GItem_func_dimension@@UEAAPEAXI@Z 00000000004f9260 f i item_create.obj
 0001:000f8260       ??_EItem_func_dimension@@UEAAPEAXI@Z 00000000004f9260 f i item_create.obj
 0001:000f82d0       ??1Item_func_dimension@@UEAA@XZ 00000000004f92d0 f i item_create.obj
 0001:000f8360       ??0Item_func_x@@QEAA@PEAVItem@@@Z 00000000004f9360 f i item_create.obj
 0001:000f8420       ?func_name@Item_func_x@@UEBAPEBDXZ 00000000004f9420 f i item_create.obj
 0001:000f8440       ?fix_length_and_dec@Item_func_x@@UEAAXXZ 00000000004f9440 f i item_create.obj
 0001:000f8490       ??_EItem_func_x@@UEAAPEAXI@Z 00000000004f9490 f i item_create.obj
 0001:000f8490       ??_GItem_func_x@@UEAAPEAXI@Z 00000000004f9490 f i item_create.obj
 0001:000f8500       ??1Item_func_x@@UEAA@XZ    00000000004f9500 f i item_create.obj
 0001:000f8590       ??0Item_func_y@@QEAA@PEAVItem@@@Z 00000000004f9590 f i item_create.obj
 0001:000f8650       ?func_name@Item_func_y@@UEBAPEBDXZ 00000000004f9650 f i item_create.obj
 0001:000f8670       ?fix_length_and_dec@Item_func_y@@UEAAXXZ 00000000004f9670 f i item_create.obj
 0001:000f86c0       ??_GItem_func_y@@UEAAPEAXI@Z 00000000004f96c0 f i item_create.obj
 0001:000f86c0       ??_EItem_func_y@@UEAAPEAXI@Z 00000000004f96c0 f i item_create.obj
 0001:000f8730       ??1Item_func_y@@UEAA@XZ    00000000004f9730 f i item_create.obj
 0001:000f87c0       ??0Item_func_numpoints@@QEAA@PEAVItem@@@Z 00000000004f97c0 f i item_create.obj
 0001:000f8880       ?func_name@Item_func_numpoints@@UEBAPEBDXZ 00000000004f9880 f i item_create.obj
 0001:000f88a0       ?fix_length_and_dec@Item_func_numpoints@@UEAAXXZ 00000000004f98a0 f i item_create.obj
 0001:000f88d0       ??_EItem_func_numpoints@@UEAAPEAXI@Z 00000000004f98d0 f i item_create.obj
 0001:000f88d0       ??_GItem_func_numpoints@@UEAAPEAXI@Z 00000000004f98d0 f i item_create.obj
 0001:000f8940       ??1Item_func_numpoints@@UEAA@XZ 00000000004f9940 f i item_create.obj
 0001:000f89d0       ??0Item_func_numinteriorring@@QEAA@PEAVItem@@@Z 00000000004f99d0 f i item_create.obj
 0001:000f8a90       ?func_name@Item_func_numinteriorring@@UEBAPEBDXZ 00000000004f9a90 f i item_create.obj
 0001:000f8ab0       ?fix_length_and_dec@Item_func_numinteriorring@@UEAAXXZ 00000000004f9ab0 f i item_create.obj
 0001:000f8ae0       ??_GItem_func_numinteriorring@@UEAAPEAXI@Z 00000000004f9ae0 f i item_create.obj
 0001:000f8ae0       ??_EItem_func_numinteriorring@@UEAAPEAXI@Z 00000000004f9ae0 f i item_create.obj
 0001:000f8b50       ??1Item_func_numinteriorring@@UEAA@XZ 00000000004f9b50 f i item_create.obj
 0001:000f8be0       ??0Item_func_numgeometries@@QEAA@PEAVItem@@@Z 00000000004f9be0 f i item_create.obj
 0001:000f8ca0       ?func_name@Item_func_numgeometries@@UEBAPEBDXZ 00000000004f9ca0 f i item_create.obj
 0001:000f8cc0       ?fix_length_and_dec@Item_func_numgeometries@@UEAAXXZ 00000000004f9cc0 f i item_create.obj
 0001:000f8cf0       ??_GItem_func_numgeometries@@UEAAPEAXI@Z 00000000004f9cf0 f i item_create.obj
 0001:000f8cf0       ??_EItem_func_numgeometries@@UEAAPEAXI@Z 00000000004f9cf0 f i item_create.obj
 0001:000f8d60       ??1Item_func_numgeometries@@UEAA@XZ 00000000004f9d60 f i item_create.obj
 0001:000f8df0       ??0Item_func_area@@QEAA@PEAVItem@@@Z 00000000004f9df0 f i item_create.obj
 0001:000f8eb0       ?func_name@Item_func_area@@UEBAPEBDXZ 00000000004f9eb0 f i item_create.obj
 0001:000f8ed0       ?fix_length_and_dec@Item_func_area@@UEAAXXZ 00000000004f9ed0 f i item_create.obj
 0001:000f8f20       ??_GItem_func_area@@UEAAPEAXI@Z 00000000004f9f20 f i item_create.obj
 0001:000f8f20       ??_EItem_func_area@@UEAAPEAXI@Z 00000000004f9f20 f i item_create.obj
 0001:000f8f90       ??1Item_func_area@@UEAA@XZ 00000000004f9f90 f i item_create.obj
 0001:000f9020       ??0Item_func_glength@@QEAA@PEAVItem@@@Z 00000000004fa020 f i item_create.obj
 0001:000f90e0       ?func_name@Item_func_glength@@UEBAPEBDXZ 00000000004fa0e0 f i item_create.obj
 0001:000f9100       ?fix_length_and_dec@Item_func_glength@@UEAAXXZ 00000000004fa100 f i item_create.obj
 0001:000f9150       ??_EItem_func_glength@@UEAAPEAXI@Z 00000000004fa150 f i item_create.obj
 0001:000f9150       ??_GItem_func_glength@@UEAAPEAXI@Z 00000000004fa150 f i item_create.obj
 0001:000f91c0       ??1Item_func_glength@@UEAA@XZ 00000000004fa1c0 f i item_create.obj
 0001:000f9250       ??0Item_func_point@@QEAA@PEAVItem@@0@Z 00000000004fa250 f i item_create.obj
 0001:000f92d0       ?func_name@Item_func_point@@UEBAPEBDXZ 00000000004fa2d0 f i item_create.obj
 0001:000f92f0       ??_GItem_func_point@@UEAAPEAXI@Z 00000000004fa2f0 f i item_create.obj
 0001:000f92f0       ??_EItem_func_point@@UEAAPEAXI@Z 00000000004fa2f0 f i item_create.obj
 0001:000f9360       ??1Item_func_point@@UEAA@XZ 00000000004fa360 f i item_create.obj
 0001:000f93a0       ??0Item_func_crc32@@QEAA@PEAVItem@@@Z 00000000004fa3a0 f i item_create.obj
 0001:000f9470       ?func_name@Item_func_crc32@@UEBAPEBDXZ 00000000004fa470 f i item_create.obj
 0001:000f9490       ?fix_length_and_dec@Item_func_crc32@@UEAAXXZ 00000000004fa490 f i item_create.obj
 0001:000f94b0       ??_GItem_func_crc32@@UEAAPEAXI@Z 00000000004fa4b0 f i item_create.obj
 0001:000f94b0       ??_EItem_func_crc32@@UEAAPEAXI@Z 00000000004fa4b0 f i item_create.obj
 0001:000f9520       ??1Item_func_crc32@@UEAA@XZ 00000000004fa520 f i item_create.obj
 0001:000f95b0       ??0Item_func_compress@@QEAA@PEAVItem@@@Z 00000000004fa5b0 f i item_create.obj
 0001:000f9670       ?fix_length_and_dec@Item_func_compress@@UEAAXXZ 00000000004fa670 f i item_create.obj
 0001:000f96b0       ?func_name@Item_func_compress@@UEBAPEBDXZ 00000000004fa6b0 f i item_create.obj
 0001:000f96d0       ??_GItem_func_compress@@UEAAPEAXI@Z 00000000004fa6d0 f i item_create.obj
 0001:000f96d0       ??_EItem_func_compress@@UEAAPEAXI@Z 00000000004fa6d0 f i item_create.obj
 0001:000f9740       ??1Item_func_compress@@UEAA@XZ 00000000004fa740 f i item_create.obj
 0001:000f97d0       ??0Item_func_uncompress@@QEAA@PEAVItem@@@Z 00000000004fa7d0 f i item_create.obj
 0001:000f9890       ?fix_length_and_dec@Item_func_uncompress@@UEAAXXZ 00000000004fa890 f i item_create.obj
 0001:000f98c0       ?func_name@Item_func_uncompress@@UEBAPEBDXZ 00000000004fa8c0 f i item_create.obj
 0001:000f98e0       ??_GItem_func_uncompress@@UEAAPEAXI@Z 00000000004fa8e0 f i item_create.obj
 0001:000f98e0       ??_EItem_func_uncompress@@UEAAPEAXI@Z 00000000004fa8e0 f i item_create.obj
 0001:000f9950       ??1Item_func_uncompress@@UEAA@XZ 00000000004fa950 f i item_create.obj
 0001:000f99e0       ??0Item_func_uncompressed_length@@QEAA@PEAVItem@@@Z 00000000004fa9e0 f i item_create.obj
 0001:000f9aa0       ?func_name@Item_func_uncompressed_length@@UEBAPEBDXZ 00000000004faaa0 f i item_create.obj
 0001:000f9ac0       ?fix_length_and_dec@Item_func_uncompressed_length@@UEAAXXZ 00000000004faac0 f i item_create.obj
 0001:000f9ae0       ??_GItem_func_uncompressed_length@@UEAAPEAXI@Z 00000000004faae0 f i item_create.obj
 0001:000f9ae0       ??_EItem_func_uncompressed_length@@UEAAPEAXI@Z 00000000004faae0 f i item_create.obj
 0001:000f9b50       ??1Item_func_uncompressed_length@@UEAA@XZ 00000000004fab50 f i item_create.obj
 0001:000f9be0       ??0Item_func_minus@@QEAA@PEAVItem@@0@Z 00000000004fabe0 f i item_create.obj
 0001:000f9c60       ??0Item_func_additive_op@@QEAA@PEAVItem@@0@Z 00000000004fac60 f i item_create.obj
 0001:000f9ce0       ??_GItem_func_additive_op@@UEAAPEAXI@Z 00000000004face0 f i item_create.obj
 0001:000f9ce0       ??_EItem_func_additive_op@@UEAAPEAXI@Z 00000000004face0 f i item_create.obj
 0001:000f9d50       ??1Item_func_additive_op@@UEAA@XZ 00000000004fad50 f i item_create.obj
 0001:000f9d90       ?func_name@Item_func_minus@@UEBAPEBDXZ 00000000004fad90 f i item_create.obj
 0001:000f9db0       ??_EItem_func_minus@@UEAAPEAXI@Z 00000000004fadb0 f i item_create.obj
 0001:000f9db0       ??_GItem_func_minus@@UEAAPEAXI@Z 00000000004fadb0 f i item_create.obj
 0001:000f9e20       ??1Item_func_minus@@UEAA@XZ 00000000004fae20 f i item_create.obj
 0001:000f9e60       ??0Item_func_week@@QEAA@PEAVItem@@0@Z 00000000004fae60 f i item_create.obj
 0001:000f9ee0       ?func_name@Item_func_week@@UEBAPEBDXZ 00000000004faee0 f i item_create.obj
 0001:000f9f00       ?fix_length_and_dec@Item_func_week@@UEAAXXZ 00000000004faf00 f i item_create.obj
 0001:000f9f30       ??_GItem_func_week@@UEAAPEAXI@Z 00000000004faf30 f i item_create.obj
 0001:000f9f30       ??_EItem_func_week@@UEAAPEAXI@Z 00000000004faf30 f i item_create.obj
 0001:000f9fa0       ??1Item_func_week@@UEAA@XZ 00000000004fafa0 f i item_create.obj
 0001:000f9fe0       ??0Item_func_makedate@@QEAA@PEAVItem@@0@Z 00000000004fafe0 f i item_create.obj
 0001:000fa060       ??0Item_date_func@@QEAA@PEAVItem@@0@Z 00000000004fb060 f i item_create.obj
 0001:000fa0e0       ?field_type@Item_date_func@@UEBA?AW4enum_field_types@@XZ 00000000004fb0e0 f i item_create.obj
 0001:000fa0f0       ?tmp_table_field@Item_date_func@@UEAAPEAVField@@PEAUst_table@@@Z 00000000004fb0f0 f i item_create.obj
 0001:000fa1f0       ?result_as_longlong@Item_date_func@@UEAAHXZ 00000000004fb1f0 f i item_create.obj
 0001:000fa200       ?val_real@Item_date_func@@UEAANXZ 00000000004fb200 f i item_create.obj
 0001:000fa250       ?val_decimal@Item_date_func@@UEAAPEAVmy_decimal@@PEAV2@@Z 00000000004fb250 f i item_create.obj
 0001:000fa2d0       ?save_in_field@Item_date_func@@UEAAHPEAVField@@H@Z 00000000004fb2d0 f i item_create.obj
 0001:000fa330       ??_EItem_date_func@@UEAAPEAXI@Z 00000000004fb330 f i item_create.obj
 0001:000fa330       ??_GItem_date_func@@UEAAPEAXI@Z 00000000004fb330 f i item_create.obj
 0001:000fa3a0       ??1Item_date_func@@UEAA@XZ 00000000004fb3a0 f i item_create.obj
 0001:000fa3e0       ?func_name@Item_func_makedate@@UEBAPEBDXZ 00000000004fb3e0 f i item_create.obj
 0001:000fa400       ?field_type@Item_func_makedate@@UEBA?AW4enum_field_types@@XZ 00000000004fb400 f i item_create.obj
 0001:000fa410       ?fix_length_and_dec@Item_func_makedate@@UEAAXXZ 00000000004fb410 f i item_create.obj
 0001:000fa440       ?tmp_table_field@Item_func_makedate@@UEAAPEAVField@@PEAUst_table@@@Z 00000000004fb440 f i item_create.obj
 0001:000fa540       ?val_decimal@Item_func_makedate@@UEAAPEAVmy_decimal@@PEAV2@@Z 00000000004fb540 f i item_create.obj
 0001:000fa5c0       ?save_in_field@Item_func_makedate@@UEAAHPEAVField@@H@Z 00000000004fb5c0 f i item_create.obj
 0001:000fa620       ??_GItem_func_makedate@@UEAAPEAXI@Z 00000000004fb620 f i item_create.obj
 0001:000fa620       ??_EItem_func_makedate@@UEAAPEAXI@Z 00000000004fb620 f i item_create.obj
 0001:000fa690       ??1Item_func_makedate@@UEAA@XZ 00000000004fb690 f i item_create.obj
 0001:000fa6d0       ??0Item_func_add_time@@QEAA@PEAVItem@@0HH@Z 00000000004fb6d0 f i item_create.obj
 0001:000fa790       ?field_type@Item_func_add_time@@UEBA?AW4enum_field_types@@XZ 00000000004fb790 f i item_create.obj
 0001:000fa7b0       ?tmp_table_field@Item_func_add_time@@UEAAPEAVField@@PEAUst_table@@@Z 00000000004fb7b0 f i item_create.obj
 0001:000faaa0       ?func_name@Item_func_add_time@@UEBAPEBDXZ 00000000004fbaa0 f i item_create.obj
 0001:000faac0       ?val_real@Item_func_add_time@@UEAANXZ 00000000004fbac0 f i item_create.obj
 0001:000fab00       ?val_decimal@Item_func_add_time@@UEAAPEAVmy_decimal@@PEAV2@@Z 00000000004fbb00 f i item_create.obj
 0001:000fabd0       ?save_in_field@Item_func_add_time@@UEAAHPEAVField@@H@Z 00000000004fbbd0 f i item_create.obj
 0001:000fac80       ??_GItem_func_add_time@@UEAAPEAXI@Z 00000000004fbc80 f i item_create.obj
 0001:000fac80       ??_EItem_func_add_time@@UEAAPEAXI@Z 00000000004fbc80 f i item_create.obj
 0001:000facf0       ??1Item_func_add_time@@UEAA@XZ 00000000004fbcf0 f i item_create.obj
 0001:000fad30       ??0Item_func_timediff@@QEAA@PEAVItem@@0@Z 00000000004fbd30 f i item_create.obj
 0001:000fadb0       ??0Item_str_timefunc@@QEAA@PEAVItem@@0@Z 00000000004fbdb0 f i item_create.obj
 0001:000fae30       ?func_name@Item_func_timediff@@UEBAPEBDXZ 00000000004fbe30 f i item_create.obj
 0001:000fae50       ?fix_length_and_dec@Item_func_timediff@@UEAAXXZ 00000000004fbe50 f i item_create.obj
 0001:000faea0       ??_EItem_func_timediff@@UEAAPEAXI@Z 00000000004fbea0 f i item_create.obj
 0001:000faea0       ??_GItem_func_timediff@@UEAAPEAXI@Z 00000000004fbea0 f i item_create.obj
 0001:000faf10       ??1Item_func_timediff@@UEAA@XZ 00000000004fbf10 f i item_create.obj
 0001:000faf50       ??0Item_func_maketime@@QEAA@PEAVItem@@00@Z 00000000004fbf50 f i item_create.obj
 0001:000fafd0       ??0Item_str_timefunc@@QEAA@PEAVItem@@00@Z 00000000004fbfd0 f i item_create.obj
 0001:000fb050       ?func_name@Item_func_maketime@@UEBAPEBDXZ 00000000004fc050 f i item_create.obj
 0001:000fb070       ??_GItem_func_maketime@@UEAAPEAXI@Z 00000000004fc070 f i item_create.obj
 0001:000fb070       ??_EItem_func_maketime@@UEAAPEAXI@Z 00000000004fc070 f i item_create.obj
 0001:000fb0e0       ??1Item_func_maketime@@UEAA@XZ 00000000004fc0e0 f i item_create.obj
 0001:000fb120       ??0Item_func_str_to_date@@QEAA@PEAVItem@@0@Z 00000000004fc120 f i item_create.obj
 0001:000fb1a0       ?func_name@Item_func_str_to_date@@UEBAPEBDXZ 00000000004fc1a0 f i item_create.obj
 0001:000fb1c0       ?field_type@Item_func_str_to_date@@UEBA?AW4enum_field_types@@XZ 00000000004fc1c0 f i item_create.obj
 0001:000fb1e0       ??_EItem_func_str_to_date@@UEAAPEAXI@Z 00000000004fc1e0 f i item_create.obj
 0001:000fb1e0       ??_GItem_func_str_to_date@@UEAAPEAXI@Z 00000000004fc1e0 f i item_create.obj
 0001:000fb250       ??1Item_func_str_to_date@@UEAA@XZ 00000000004fc250 f i item_create.obj
 0001:000fb290       ??0Item_func_last_day@@QEAA@PEAVItem@@@Z 00000000004fc290 f i item_create.obj
 0001:000fb300       ?func_name@Item_func_last_day@@UEBAPEBDXZ 00000000004fc300 f i item_create.obj
 0001:000fb320       ??_EItem_func_last_day@@UEAAPEAXI@Z 00000000004fc320 f i item_create.obj
 0001:000fb320       ??_GItem_func_last_day@@UEAAPEAXI@Z 00000000004fc320 f i item_create.obj
 0001:000fb390       ??1Item_func_last_day@@UEAA@XZ 00000000004fc390 f i item_create.obj
 0001:000fb3d0       ?check_reserved_words@@YAHPEAUst_lex_string@@@Z 00000000004fc3d0 f   item_func.obj
 0001:000fb490       ?eval_const_cond@@YAHPEAVItem@@@Z 00000000004fc490 f   item_func.obj
 0001:000fb4f0       ?set_arguments@Item_func@@QEAAXAEAV?$List@VItem@@@@@Z 00000000004fc4f0 f   item_func.obj
 0001:000fb650       ??0Item_func@@QEAA@AEAV?$List@VItem@@@@@Z 00000000004fc650 f   item_func.obj
 0001:000fb700       ??0Item_func@@QEAA@PEAVTHD@@PEAV0@@Z 00000000004fc700 f   item_func.obj
 0001:000fb8a0       ?fix_fields@Item_func@@UEAAHPEAVTHD@@PEAPEAVItem@@@Z 00000000004fc8a0 f   item_func.obj
 0001:000fbcb0       ?walk@Item_func@@UEAAHP8Item@@EAAHPEAE@Z0@Z 00000000004fccb0 f   item_func.obj
 0001:000fbd80       ?traverse_cond@Item_func@@UEAAXP6AXPEBVItem@@PEAX@Z1W4traverse_order@2@@Z 00000000004fcd80 f   item_func.obj
 0001:000fbf00       ?transform@Item_func@@UEAAPEAVItem@@P82@EAAPEAV2@PEAE@Z0@Z 00000000004fcf00 f   item_func.obj
 0001:000fc030       ?compile@Item_func@@UEAAPEAVItem@@P82@EAAHPEAPEAE@Z0P82@EAAPEAV2@PEAE@Z2@Z 00000000004fd030 f   item_func.obj
 0001:000fc190       ?split_sum_func@Item_func@@UEAAXPEAVTHD@@PEAPEAVItem@@AEAV?$List@VItem@@@@@Z 00000000004fd190 f   item_func.obj
 0001:000fc250       ?update_used_tables@Item_func@@UEAAXXZ 00000000004fd250 f   item_func.obj
 0001:000fc390       ?used_tables@Item_func@@UEBA_KXZ 00000000004fd390 f   item_func.obj
 0001:000fc3b0       ?not_null_tables@Item_func@@UEBA_KXZ 00000000004fd3b0 f   item_func.obj
 0001:000fc3d0       ?print@Item_func@@UEAAXPEAVString@@@Z 00000000004fd3d0 f   item_func.obj
 0001:000fc450       ?print_args@Item_func@@QEAAXPEAVString@@I@Z 00000000004fd450 f   item_func.obj
 0001:000fc500       ?print_op@Item_func@@QEAAXPEAVString@@@Z 00000000004fd500 f   item_func.obj
 0001:000fc630       ?eq@Item_func@@UEBAHPEBVItem@@H@Z 00000000004fd630 f   item_func.obj
 0001:000fc870       ?tmp_table_field@Item_func@@UEAAPEAVField@@PEAUst_table@@@Z 00000000004fd870 f   item_func.obj
 0001:000fcd10       ?is_expensive_processor@Item_func@@UEAAHPEAE@Z 00000000004fdd10 f   item_func.obj
 0001:000fcd60       ?val_decimal@Item_func@@UEAAPEAVmy_decimal@@PEAV2@@Z 00000000004fdd60 f   item_func.obj
 0001:000fcdf0       ?val_str@Item_real_func@@UEAAPEAVString@@PEAV2@@Z 00000000004fddf0 f   item_func.obj
 0001:000fcea0       ?val_decimal@Item_real_func@@UEAAPEAVmy_decimal@@PEAV2@@Z 00000000004fdea0 f   item_func.obj
 0001:000fcf40       ?fix_num_length_and_dec@Item_func@@UEAAXXZ 00000000004fdf40 f   item_func.obj
 0001:000fd080       ?fix_num_length_and_dec@Item_func_numhybrid@@UEAAXXZ 00000000004fe080 f   item_func.obj
 0001:000fd090       ?count_decimal_length@Item_func@@QEAAXXZ 00000000004fe090 f   item_func.obj
 0001:000fd240       ?count_only_length@Item_func@@QEAAXXZ 00000000004fe240 f   item_func.obj
 0001:000fd330       ?count_real_length@Item_func@@QEAAXXZ 00000000004fe330 f   item_func.obj
 0001:000fd500       ?signal_divide_by_null@Item_func@@QEAAXXZ 00000000004fe500 f   item_func.obj
 0001:000fd580       ?get_tmp_table_item@Item_func@@UEAAPEAVItem@@PEAVTHD@@@Z 00000000004fe580 f   item_func.obj
 0001:000fd690       ?val_real@Item_int_func@@UEAANXZ 00000000004fe690 f   item_func.obj
 0001:000fd740       ?val_str@Item_int_func@@UEAAPEAVString@@PEAV2@@Z 00000000004fe740 f   item_func.obj
 0001:000fd810       ?fix_length_and_dec@Item_func_connection_id@@UEAAXXZ 00000000004fe810 f   item_func.obj
 0001:000fd860       ?fix_fields@Item_func_connection_id@@UEAAHPEAVTHD@@PEAPEAVItem@@@Z 00000000004fe860 f   item_func.obj
 0001:000fd8e0       ?find_num_type@Item_num_op@@UEAAXXZ 00000000004fe8e0 f   item_func.obj
 0001:000fdc50       ?find_num_type@Item_func_num1@@UEAAXXZ 00000000004fec50 f   item_func.obj
 0001:000fdf10       ?fix_num_length_and_dec@Item_func_num1@@UEAAXXZ 00000000004fef10 f   item_func.obj
 0001:000fdf50       ?fix_length_and_dec@Item_func_numhybrid@@UEAAXXZ 00000000004fef50 f   item_func.obj
 0001:000fdfb0       ?val_str@Item_func_numhybrid@@UEAAPEAVString@@PEAV2@@Z 00000000004fefb0 f   item_func.obj
 0001:000fe270       ?val_real@Item_func_numhybrid@@UEAANXZ 00000000004ff270 f   item_func.obj
 0001:000fe560       ?val_int@Item_func_numhybrid@@UEAA_JXZ 00000000004ff560 f   item_func.obj
 0001:000fe7f0       ?val_decimal@Item_func_numhybrid@@UEAAPEAVmy_decimal@@PEAV2@@Z 00000000004ff7f0 f   item_func.obj
 0001:000fea10       ?print@Item_func_signed@@UEAAXPEAVString@@@Z 00000000004ffa10 f   item_func.obj
 0001:000feaa0       ?val_int_from_str@Item_func_signed@@QEAA_JPEAH@Z 00000000004ffaa0 f   item_func.obj
 0001:000fed90       ?val_int@Item_func_signed@@UEAA_JXZ 00000000004ffd90 f   item_func.obj
 0001:000feeb0       ?print@Item_func_unsigned@@UEAAXPEAVString@@@Z 00000000004ffeb0 f   item_func.obj
 0001:000fef40       ?val_int@Item_func_unsigned@@UEAA_JXZ 00000000004fff40 f   item_func.obj
 0001:000ff140       ?val_str@Item_decimal_typecast@@UEAAPEAVString@@PEAV2@@Z 0000000000500140 f   item_func.obj
 0001:000ff210       ?val_real@Item_decimal_typecast@@UEAANXZ 0000000000500210 f   item_func.obj
 0001:000ff2d0       ?val_int@Item_decimal_typecast@@UEAA_JXZ 00000000005002d0 f   item_func.obj
 0001:000ff390       ?val_decimal@Item_decimal_typecast@@UEAAPEAVmy_decimal@@PEAV2@@Z 0000000000500390 f   item_func.obj
 0001:000ff5d0       ?print@Item_decimal_typecast@@UEAAXPEAVString@@@Z 00000000005005d0 f   item_func.obj
 0001:000ff790       ?real_op@Item_func_plus@@UEAANXZ 0000000000500790 f   item_func.obj
 0001:000ff870       ?int_op@Item_func_plus@@UEAA_JXZ 0000000000500870 f   item_func.obj
 0001:000ff960       ?decimal_op@Item_func_plus@@UEAAPEAVmy_decimal@@PEAV2@@Z 0000000000500960 f   item_func.obj
 0001:000ffaf0       ?result_precision@Item_func_additive_op@@UEAAXXZ 0000000000500af0 f   item_func.obj
 0001:000ffd50       ?fix_length_and_dec@Item_func_minus@@UEAAXXZ 0000000000500d50 f   item_func.obj
 0001:000ffdc0       ?real_op@Item_func_minus@@UEAANXZ 0000000000500dc0 f   item_func.obj
 0001:000ffea0       ?int_op@Item_func_minus@@UEAA_JXZ 0000000000500ea0 f   item_func.obj
 0001:000fff90       ?decimal_op@Item_func_minus@@UEAAPEAVmy_decimal@@PEAV2@@Z 0000000000500f90 f   item_func.obj
 0001:00100120       ?real_op@Item_func_mul@@UEAANXZ 0000000000501120 f   item_func.obj
 0001:00100230       ?int_op@Item_func_mul@@UEAA_JXZ 0000000000501230 f   item_func.obj
 0001:00100340       ?decimal_op@Item_func_mul@@UEAAPEAVmy_decimal@@PEAV2@@Z 0000000000501340 f   item_func.obj
 0001:001004d0       ?result_precision@Item_func_mul@@UEAAXXZ 00000000005014d0 f   item_func.obj
 0001:001006d0       ?real_op@Item_func_div@@UEAANXZ 00000000005016d0 f   item_func.obj
 0001:00100800       ?decimal_op@Item_func_div@@UEAAPEAVmy_decimal@@PEAV2@@Z 0000000000501800 f   item_func.obj
 0001:001009c0       ?result_precision@Item_func_div@@UEAAXXZ 00000000005019c0 f   item_func.obj
 0001:00100b50       ?fix_length_and_dec@Item_func_div@@UEAAXXZ 0000000000501b50 f   item_func.obj
 0001:00100e40       ?val_int@Item_func_int_div@@UEAA_JXZ 0000000000501e40 f   item_func.obj
 0001:00100f80       ?fix_length_and_dec@Item_func_int_div@@UEAAXXZ 0000000000501f80 f   item_func.obj
 0001:00100ff0       ?int_op@Item_func_mod@@UEAA_JXZ 0000000000501ff0 f   item_func.obj
 0001:001011b0       ?real_op@Item_func_mod@@UEAANXZ 00000000005021b0 f   item_func.obj
 0001:001012e0       ?decimal_op@Item_func_mod@@UEAAPEAVmy_decimal@@PEAV2@@Z 00000000005022e0 f   item_func.obj
 0001:00101490       ?result_precision@Item_func_mod@@UEAAXXZ 0000000000502490 f   item_func.obj
 0001:00101570       ?fix_length_and_dec@Item_func_mod@@UEAAXXZ 0000000000502570 f   item_func.obj
 0001:001015d0       ?real_op@Item_func_neg@@UEAANXZ 00000000005025d0 f   item_func.obj
 0001:00101650       ?int_op@Item_func_neg@@UEAA_JXZ 0000000000502650 f   item_func.obj
 0001:001016d0       ?decimal_op@Item_func_neg@@UEAAPEAVmy_decimal@@PEAV2@@Z 00000000005026d0 f   item_func.obj
 0001:001017c0       ?fix_num_length_and_dec@Item_func_neg@@UEAAXXZ 00000000005027c0 f   item_func.obj
 0001:00101800       ?fix_length_and_dec@Item_func_neg@@UEAAXXZ 0000000000502800 f   item_func.obj
 0001:001019d0       ?real_op@Item_func_abs@@UEAANXZ 00000000005029d0 f   item_func.obj
 0001:00101a50       ?int_op@Item_func_abs@@UEAA_JXZ 0000000000502a50 f   item_func.obj
 0001:00101b00       ?decimal_op@Item_func_abs@@UEAAPEAVmy_decimal@@PEAV2@@Z 0000000000502b00 f   item_func.obj
 0001:00101c00       ?fix_length_and_dec@Item_func_abs@@UEAAXXZ 0000000000502c00 f   item_func.obj
 0001:00101c60       ?val_real@Item_func_ln@@UEAANXZ 0000000000502c60 f   item_func.obj
 0001:00101d30       ?val_real@Item_func_log@@UEAANXZ 0000000000502d30 f   item_func.obj
 0001:00101ed0       ?val_real@Item_func_log2@@UEAANXZ 0000000000502ed0 f   item_func.obj
 0001:00101fb0       ?val_real@Item_func_log10@@UEAANXZ 0000000000502fb0 f   item_func.obj
 0001:00102080       ?val_real@Item_func_exp@@UEAANXZ 0000000000503080 f   item_func.obj
 0001:00102140       ?val_real@Item_func_sqrt@@UEAANXZ 0000000000503140 f   item_func.obj
 0001:00102210       ?val_real@Item_func_pow@@UEAANXZ 0000000000503210 f   item_func.obj
 0001:00102320       ?val_real@Item_func_acos@@UEAANXZ 0000000000503320 f   item_func.obj
 0001:00102420       ?val_real@Item_func_asin@@UEAANXZ 0000000000503420 f   item_func.obj
 0001:00102520       ?val_real@Item_func_atan@@UEAANXZ 0000000000503520 f   item_func.obj
 0001:00102670       ?val_real@Item_func_cos@@UEAANXZ 0000000000503670 f   item_func.obj
 0001:00102730       ?val_real@Item_func_sin@@UEAANXZ 0000000000503730 f   item_func.obj
 0001:001027f0       ?val_real@Item_func_tan@@UEAANXZ 00000000005037f0 f   item_func.obj
 0001:001028b0       ?val_int@Item_func_shift_left@@UEAA_JXZ 00000000005038b0 f   item_func.obj
 0001:001029d0       ?val_int@Item_func_shift_right@@UEAA_JXZ 00000000005039d0 f   item_func.obj
 0001:00102af0       ?val_int@Item_func_bit_neg@@UEAA_JXZ 0000000000503af0 f   item_func.obj
 0001:00102ba0       ?fix_length_and_dec@Item_func_integer@@UEAAXXZ 0000000000503ba0 f   item_func.obj
 0001:00102c40       ?fix_num_length_and_dec@Item_func_int_val@@UEAAXXZ 0000000000503c40 f   item_func.obj
 0001:00102d10       ?find_num_type@Item_func_int_val@@UEAAXXZ 0000000000503d10 f   item_func.obj
 0001:00103020       ?int_op@Item_func_ceiling@@UEAA_JXZ 0000000000504020 f   item_func.obj
 0001:00103180       ?real_op@Item_func_ceiling@@UEAANXZ 0000000000504180 f   item_func.obj
 0001:00103200       ?decimal_op@Item_func_ceiling@@UEAAPEAVmy_decimal@@PEAV2@@Z 0000000000504200 f   item_func.obj
 0001:00103300       ?int_op@Item_func_floor@@UEAA_JXZ 0000000000504300 f   item_func.obj
 0001:00103460       ?real_op@Item_func_floor@@UEAANXZ 0000000000504460 f   item_func.obj
 0001:001034e0       ?decimal_op@Item_func_floor@@UEAAPEAVmy_decimal@@PEAV2@@Z 00000000005044e0 f   item_func.obj
 0001:001035e0       ?fix_length_and_dec@Item_func_round@@UEAAXXZ 00000000005045e0 f   item_func.obj
 0001:00103a10       ?my_double_round@@YANN_JHH@Z 0000000000504a10 f   item_func.obj
 0001:00103cd0       ?real_op@Item_func_round@@UEAANXZ 0000000000504cd0 f   item_func.obj
 0001:00103de0       ?int_op@Item_func_round@@UEAA_JXZ 0000000000504de0 f   item_func.obj
 0001:00104050       ?decimal_op@Item_func_round@@UEAAPEAVmy_decimal@@PEAV2@@Z 0000000000505050 f   item_func.obj
 0001:00104250       ?fix_fields@Item_func_rand@@UEAAHPEAVTHD@@PEAPEAVItem@@@Z 0000000000505250 f   item_func.obj
 0001:00104450       ?update_used_tables@Item_func_rand@@UEAAXXZ 0000000000505450 f   item_func.obj
 0001:001044b0       ?val_real@Item_func_rand@@UEAANXZ 00000000005054b0 f   item_func.obj
 0001:00104520       ?val_int@Item_func_sign@@UEAA_JXZ 0000000000505520 f   item_func.obj
 0001:00104600       ?val_real@Item_func_units@@UEAANXZ 0000000000505600 f   item_func.obj
 0001:001046d0       ?fix_length_and_dec@Item_func_min_max@@UEAAXXZ 00000000005056d0 f   item_func.obj
 0001:00104a20       ?cmp_datetimes@Item_func_min_max@@QEAAIPEA_K@Z 0000000000505a20 f   item_func.obj
 0001:00104c10       ?val_str@Item_func_min_max@@UEAAPEAVString@@PEAV2@@Z 0000000000505c10 f   item_func.obj
 0001:00105110       ?val_real@Item_func_min_max@@UEAANXZ 0000000000506110 f   item_func.obj
 0001:00105330       ?val_int@Item_func_min_max@@UEAA_JXZ 0000000000506330 f   item_func.obj
 0001:00105500       ?val_decimal@Item_func_min_max@@UEAAPEAVmy_decimal@@PEAV2@@Z 0000000000506500 f   item_func.obj
 0001:00105780       ?val_int@Item_func_length@@UEAA_JXZ 0000000000506780 f   item_func.obj
 0001:00105850       ?val_int@Item_func_char_length@@UEAA_JXZ 0000000000506850 f   item_func.obj
 0001:00105920       ?val_int@Item_func_coercibility@@UEAA_JXZ 0000000000506920 f   item_func.obj
 0001:001059a0       ?fix_length_and_dec@Item_func_locate@@UEAAXXZ 00000000005069a0 f   item_func.obj
 0001:00105a20       ?val_int@Item_func_locate@@UEAA_JXZ 0000000000506a20 f   item_func.obj
 0001:00105d50       ?print@Item_func_locate@@UEAAXPEAVString@@@Z 0000000000506d50 f   item_func.obj
 0001:00105e50       ?val_int@Item_func_field@@UEAA_JXZ 0000000000506e50 f   item_func.obj
 0001:00106350       ?fix_length_and_dec@Item_func_field@@UEAAXXZ 0000000000507350 f   item_func.obj
 0001:00106480       ?val_int@Item_func_ascii@@UEAA_JXZ 0000000000507480 f   item_func.obj
 0001:00106570       ?val_int@Item_func_ord@@UEAA_JXZ 0000000000507570 f   item_func.obj
 0001:00106740       ?fix_length_and_dec@Item_func_find_in_set@@UEAAXXZ 0000000000507740 f   item_func.obj
 0001:00106930       ?val_int@Item_func_find_in_set@@UEAA_JXZ 0000000000507930 f   item_func.obj
 0001:00106e00       ?val_int@Item_func_bit_count@@UEAA_JXZ 0000000000507e00 f   item_func.obj
 0001:00106eb0       ?cleanup@udf_handler@@QEAAXXZ 0000000000507eb0 f   item_func.obj
 0001:00106fa0       ?fix_fields@udf_handler@@QEAAHPEAVTHD@@PEAVItem_result_field@@IPEAPEAVItem@@@Z 0000000000507fa0 f   item_func.obj
 0001:00107dd0       ?get_arguments@udf_handler@@QEAAHXZ 0000000000508dd0 f   item_func.obj
 0001:00108060       ?val_str@udf_handler@@QEAAPEAVString@@PEAV2@0@Z 0000000000509060 f   item_func.obj
 0001:00108430       ?val_decimal@udf_handler@@QEAAPEAVmy_decimal@@PEADPEAV2@@Z 0000000000509430 f   item_func.obj
 0001:001085d0       ?cleanup@Item_udf_func@@UEAAXXZ 00000000005095d0 f   item_func.obj
 0001:00108620       ?print@Item_udf_func@@UEAAXPEAVString@@@Z 0000000000509620 f   item_func.obj
 0001:001086f0       ?val_real@Item_func_udf_float@@UEAANXZ 00000000005096f0 f   item_func.obj
 0001:00108860       ?val_str@Item_func_udf_float@@UEAAPEAVString@@PEAV2@@Z 0000000000509860 f   item_func.obj
 0001:00108910       ?val_int@Item_func_udf_int@@UEAA_JXZ 0000000000509910 f   item_func.obj
 0001:00108a20       ?val_str@Item_func_udf_int@@UEAAPEAVString@@PEAV2@@Z 0000000000509a20 f   item_func.obj
 0001:00108af0       ?val_int@Item_func_udf_decimal@@UEAA_JXZ 0000000000509af0 f   item_func.obj
 0001:00108bc0       ?val_real@Item_func_udf_decimal@@UEAANXZ 0000000000509bc0 f   item_func.obj
 0001:00108c90       ?val_decimal@Item_func_udf_decimal@@UEAAPEAVmy_decimal@@PEAV2@@Z 0000000000509c90 f   item_func.obj
 0001:00108e00       ?val_str@Item_func_udf_decimal@@UEAAPEAVString@@PEAV2@@Z 0000000000509e00 f   item_func.obj
 0001:00108f30       ?fix_length_and_dec@Item_func_udf_decimal@@UEAAXXZ 0000000000509f30 f   item_func.obj
 0001:00108f80       ?fix_length_and_dec@Item_func_udf_str@@UEAAXXZ 0000000000509f80 f   item_func.obj
 0001:001090d0       ?val_str@Item_func_udf_str@@UEAAPEAVString@@PEAV2@@Z 000000000050a0d0 f   item_func.obj
 0001:00109180       ??1udf_handler@@QEAA@XZ    000000000050a180 f   item_func.obj
 0001:00109200       ?ull_get_key@@YAPEADPEBVUser_level_lock@@PEAID@Z 000000000050a200 f   item_func.obj
 0001:00109230       ?item_user_lock_init@@YAXXZ 000000000050a230 f   item_func.obj
 0001:001092d0       ?item_user_lock_free@@YAXXZ 000000000050a2d0 f   item_func.obj
 0001:00109330       ?item_user_lock_release@@YAXPEAVUser_level_lock@@@Z 000000000050a330 f   item_func.obj
 0001:001093f0       ?val_int@Item_master_pos_wait@@UEAA_JXZ 000000000050a3f0 f   item_func.obj
 0001:001095d0       ?val_int@Item_func_get_lock@@UEAA_JXZ 000000000050a5d0 f   item_func.obj
 0001:00109f80       ?val_int@Item_func_release_lock@@UEAA_JXZ 000000000050af80 f   item_func.obj
 0001:0010a2b0       ?fix_fields@Item_func_last_insert_id@@UEAAHPEAVTHD@@PEAPEAVItem@@@Z 000000000050b2b0 f   item_func.obj
 0001:0010a3a0       ?val_int@Item_func_last_insert_id@@UEAA_JXZ 000000000050b3a0 f   item_func.obj
 0001:0010a470       ?val_int@Item_func_benchmark@@UEAA_JXZ 000000000050b470 f   item_func.obj
 0001:0010a750       ?print@Item_func_benchmark@@UEAAXPEAVString@@@Z 000000000050b750 f   item_func.obj
 0001:0010a8c0       ?val_int@Item_func_sleep@@UEAA_JXZ 000000000050b8c0 f   item_func.obj
 0001:0010abb0       ?fix_fields@Item_func_set_user_var@@UEAAHPEAVTHD@@PEAPEAVItem@@@Z 000000000050bbb0 f   item_func.obj
 0001:0010af30       ?fix_length_and_dec@Item_func_set_user_var@@UEAAXXZ 000000000050bf30 f   item_func.obj
 0001:0010afd0       ?update_hash@Item_func_set_user_var@@QEAAHPEAXIW4Item_result@@PEAUcharset_info_st@@W4Derivation@@H@Z 000000000050bfd0 f   item_func.obj
 0001:0010b330       ?val_real@user_var_entry@@QEAANPEAD@Z 000000000050c330 f   item_func.obj
 0001:0010b430       ?val_int@user_var_entry@@QEAA_JPEAD@Z 000000000050c430 f   item_func.obj
 0001:0010b530       ?val_str@user_var_entry@@QEAAPEAVString@@PEADPEAV2@I@Z 000000000050c530 f   item_func.obj
 0001:0010b6b0       ?val_decimal@user_var_entry@@QEAAPEAVmy_decimal@@PEADPEAV2@@Z 000000000050c6b0 f   item_func.obj
 0001:0010b7d0       ?check@Item_func_set_user_var@@QEAAHH@Z 000000000050c7d0 f   item_func.obj
 0001:0010bc00       ?update@Item_func_set_user_var@@QEAAHXZ 000000000050cc00 f   item_func.obj
 0001:0010bf50       ?val_real@Item_func_set_user_var@@UEAANXZ 000000000050cf50 f   item_func.obj
 0001:0010bfe0       ?val_int@Item_func_set_user_var@@UEAA_JXZ 000000000050cfe0 f   item_func.obj
 0001:0010c070       ?val_str@Item_func_set_user_var@@UEAAPEAVString@@PEAV2@@Z 000000000050d070 f   item_func.obj
 0001:0010c120       ?val_decimal@Item_func_set_user_var@@UEAAPEAVmy_decimal@@PEAV2@@Z 000000000050d120 f   item_func.obj
 0001:0010c1c0       ?val_result@Item_func_set_user_var@@UEAANXZ 000000000050d1c0 f   item_func.obj
 0001:0010c250       ?val_int_result@Item_func_set_user_var@@UEAA_JXZ 000000000050d250 f   item_func.obj
 0001:0010c2e0       ?str_result@Item_func_set_user_var@@UEAAPEAVString@@PEAV2@@Z 000000000050d2e0 f   item_func.obj
 0001:0010c390       ?val_decimal_result@Item_func_set_user_var@@UEAAPEAVmy_decimal@@PEAV2@@Z 000000000050d390 f   item_func.obj
 0001:0010c430       ?print@Item_func_set_user_var@@UEAAXPEAVString@@@Z 000000000050d430 f   item_func.obj
 0001:0010c4f0       ?print_as_stmt@Item_func_set_user_var@@QEAAXPEAVString@@@Z 000000000050d4f0 f   item_func.obj
 0001:0010c5b0       ?send@Item_func_set_user_var@@UEAAHPEAVProtocol@@PEAVString@@@Z 000000000050d5b0 f   item_func.obj
 0001:0010c640       ?make_field@Item_func_set_user_var@@UEAAXPEAVSend_field@@@Z 000000000050d640 f   item_func.obj
 0001:0010c700       ?save_in_field@Item_func_set_user_var@@QEAAHPEAVField@@HH@Z 000000000050d700 f   item_func.obj
 0001:0010cbb0       ?val_str@Item_func_get_user_var@@UEAAPEAVString@@PEAV2@@Z 000000000050dbb0 f   item_func.obj
 0001:0010cd10       ?val_real@Item_func_get_user_var@@UEAANXZ 000000000050dd10 f   item_func.obj
 0001:0010cda0       ?val_decimal@Item_func_get_user_var@@UEAAPEAVmy_decimal@@PEAV2@@Z 000000000050dda0 f   item_func.obj
 0001:0010ce40       ?val_int@Item_func_get_user_var@@UEAA_JXZ 000000000050de40 f   item_func.obj
 0001:0010ced0       ?get_var_with_binlog@@YAHPEAVTHD@@W4enum_sql_command@@AEAUst_lex_string@@PEAPEAVuser_var_entry@@@Z 000000000050ded0 f   item_func.obj
 0001:0010d4a0       ?fix_length_and_dec@Item_func_get_user_var@@UEAAXXZ 000000000050e4a0 f   item_func.obj
 0001:0010d640       ?const_item@Item_func_get_user_var@@UEBAHXZ 000000000050e640 f   item_func.obj
 0001:0010d6c0       ?result_type@Item_func_get_user_var@@UEBA?AW4Item_result@@XZ 000000000050e6c0 f   item_func.obj
 0001:0010d740       ?print@Item_func_get_user_var@@UEAAXPEAVString@@@Z 000000000050e740 f   item_func.obj
 0001:0010d7c0       ?eq@Item_func_get_user_var@@UEBAHPEBVItem@@H@Z 000000000050e7c0 f   item_func.obj
 0001:0010d8d0       ?set_value@Item_func_get_user_var@@EEAAHPEAVTHD@@PEAVsp_rcontext@@PEAPEAVItem@@@Z 000000000050e8d0 f   item_func.obj
 0001:0010da30       ?fix_fields@Item_user_var_as_out_param@@UEAAHPEAVTHD@@PEAPEAVItem@@@Z 000000000050ea30 f   item_func.obj
 0001:0010db50       ?set_null_value@Item_user_var_as_out_param@@QEAAXPEAUcharset_info_st@@@Z 000000000050eb50 f   item_func.obj
 0001:0010dbe0       ?set_value@Item_user_var_as_out_param@@QEAAXPEBDIPEAUcharset_info_st@@@Z 000000000050ebe0 f   item_func.obj
 0001:0010dc70       ?val_real@Item_user_var_as_out_param@@UEAANXZ 000000000050ec70 f   item_func.obj
 0001:0010dcd0       ?val_int@Item_user_var_as_out_param@@UEAA_JXZ 000000000050ecd0 f   item_func.obj
 0001:0010dd30       ?val_str@Item_user_var_as_out_param@@UEAAPEAVString@@PEAV2@@Z 000000000050ed30 f   item_func.obj
 0001:0010dd90       ?val_decimal@Item_user_var_as_out_param@@UEAAPEAVmy_decimal@@PEAV2@@Z 000000000050ed90 f   item_func.obj
 0001:0010ddf0       ?print@Item_user_var_as_out_param@@UEAAXPEAVString@@@Z 000000000050edf0 f   item_func.obj
 0001:0010de50       ??0Item_func_get_system_var@@QEAA@PEAVsys_var@@W4enum_var_type@@PEAUst_lex_string@@PEBD_K@Z 000000000050ee50 f   item_func.obj
 0001:0010df60       ?fix_fields@Item_func_get_system_var@@UEAAHPEAVTHD@@PEAPEAVItem@@@Z 000000000050ef60 f   item_func.obj
 0001:0010e0d0       ?val_int@Item_func_inet_aton@@UEAA_JXZ 000000000050f0d0 f   item_func.obj
 0001:0010e3c0       ?init_search@Item_func_match@@QEAAXH@Z 000000000050f3c0 f   item_func.obj
 0001:0010ea40       ?fix_fields@Item_func_match@@UEAAHPEAVTHD@@PEAPEAVItem@@@Z 000000000050fa40 f   item_func.obj
 0001:0010ed20       ?fix_index@Item_func_match@@QEAAHXZ 000000000050fd20 f   item_func.obj
 0001:0010f220       ?eq@Item_func_match@@UEBAHPEBVItem@@H@Z 0000000000510220 f   item_func.obj
 0001:0010f340       ?val_real@Item_func_match@@UEAANXZ 0000000000510340 f   item_func.obj
 0001:0010f700       ?print@Item_func_match@@UEAAXPEAVString@@@Z 0000000000510700 f   item_func.obj
 0001:0010f810       ?val_int@Item_func_bit_xor@@UEAA_JXZ 0000000000510810 f   item_func.obj
 0001:0010f910       ?get_system_var@@YAPEAVItem@@PEAVTHD@@W4enum_var_type@@Ust_lex_string@@2@Z 0000000000510910 f   item_func.obj
 0001:0010fad0       ?val_int@Item_func_is_free_lock@@UEAA_JXZ 0000000000510ad0 f   item_func.obj
 0001:0010fc10       ?val_int@Item_func_is_used_lock@@UEAA_JXZ 0000000000510c10 f   item_func.obj
 0001:0010fd50       ?val_int@Item_func_row_count@@UEAA_JXZ 0000000000510d50 f   item_func.obj
 0001:0010fdc0       ??0Item_func_sp@@QEAA@PEAUName_resolution_context@@PEAVsp_name@@@Z 0000000000510dc0 f   item_func.obj
 0001:0010fed0       ??0Item_func_sp@@QEAA@PEAUName_resolution_context@@PEAVsp_name@@AEAV?$List@VItem@@@@@Z 0000000000510ed0 f   item_func.obj
 0001:0010ffe0       ?cleanup@Item_func_sp@@UEAAXXZ 0000000000510fe0 f   item_func.obj
 0001:001100b0       ?func_name@Item_func_sp@@UEBAPEBDXZ 00000000005110b0 f   item_func.obj
 0001:001102b0       ?init_result_field@Item_func_sp@@AEAAHPEAVTHD@@@Z 00000000005112b0 f   item_func.obj
 0001:001106f0       ?fix_length_and_dec@Item_func_sp@@UEAAXXZ 00000000005116f0 f   item_func.obj
 0001:001108b0       ?execute@Item_func_sp@@AEAAHXZ 00000000005118b0 f   item_func.obj
 0001:00110960       ?execute_impl@Item_func_sp@@AEAAHPEAVTHD@@@Z 0000000000511960 f   item_func.obj
 0001:00110b30       ?make_field@Item_func_sp@@UEAAXPEAVSend_field@@@Z 0000000000511b30 f   item_func.obj
 0001:00110c40       ?field_type@Item_func_sp@@UEBA?AW4enum_field_types@@XZ 0000000000511c40 f   item_func.obj
 0001:00110d50       ?result_type@Item_func_sp@@UEBA?AW4Item_result@@XZ 0000000000511d50 f   item_func.obj
 0001:00110e90       ?val_int@Item_func_found_rows@@UEAA_JXZ 0000000000511e90 f   item_func.obj
 0001:00110f00       ?tmp_table_field@Item_func_sp@@UEAAPEAVField@@PEAUst_table@@@Z 0000000000511f00 f   item_func.obj
 0001:00111000       ?sp_check_access@Item_func_sp@@QEAAHPEAVTHD@@@Z 0000000000512000 f   item_func.obj
 0001:00111170       ?fix_fields@Item_func_sp@@UEAAHPEAVTHD@@PEAPEAVItem@@@Z 0000000000512170 f   item_func.obj
 0001:001113d0       ?update_used_tables@Item_func_sp@@UEAAXXZ 00000000005123d0 f   item_func.obj
 0001:00116c70       ??0Item_result_field@@QEAA@PEAVTHD@@PEAV0@@Z 0000000000517c70 f i item_func.obj
 0001:00116d00       ??0Field_long@@QEAA@KHPEBDPEAUst_table@@H@Z 0000000000517d00 f i item_func.obj
 0001:00116e10       ??0Field_longlong@@QEAA@KHPEBDPEAUst_table@@H@Z 0000000000517e10 f i item_func.obj
 0001:00116f20       ??0Field_double@@QEAA@KHPEBDPEAUst_table@@E@Z 0000000000517f20 f i item_func.obj
 0001:00117030       ?my_decimal_intg@@YAHPEBVmy_decimal@@@Z 0000000000518030 f i item_func.obj
 0001:00117070       ?my_decimal_sub@@YAHIPEAVmy_decimal@@PEBV1@1@Z 0000000000518070 f i item_func.obj
 0001:001170e0       ?my_decimal_mul@@YAHIPEAVmy_decimal@@PEBV1@1@Z 00000000005180e0 f i item_func.obj
 0001:00117150       ?my_decimal_mod@@YAHIPEAVmy_decimal@@PEBV1@1@Z 0000000000518150 f i item_func.obj
 0001:001171c0       ?fix_result@Item_dec_func@@QEAANN@Z 00000000005181c0 f i item_func.obj
 0001:00117240       ?my_decimal_ceiling@@YAHIPEBVmy_decimal@@PEAV1@@Z 0000000000518240 f i item_func.obj
 0001:001172b0       ?my_decimal_floor@@YAHIPEBVmy_decimal@@PEAV1@@Z 00000000005182b0 f i item_func.obj
 0001:00117320       ??AString@@QEBAAEADK@Z     0000000000518320 f i item_func.obj
 0001:00117340       ??_EString@@QEAAPEAXI@Z    0000000000518340 f i item_func.obj
 0001:00117410       ??3String@@SAXPEAX_K@Z     0000000000518410 f i item_func.obj
 0001:00117470       ?val@udf_handler@@QEAANPEAD@Z 0000000000518470 f i item_func.obj
 0001:00117590       ?val_int@udf_handler@@QEAA_JPEAD@Z 0000000000518590 f i item_func.obj
 0001:001176a0       ??_GUser_level_lock@@QEAAPEAXI@Z 00000000005186a0 f i item_func.obj
 0001:00117710       ??1User_level_lock@@QEAA@XZ 0000000000518710 f i item_func.obj
 0001:001177a0       ??0User_level_lock@@QEAA@PEBDIK@Z 00000000005187a0 f i item_func.obj
 0001:001178e0       ?initialized@User_level_lock@@QEAAHXZ 00000000005188e0 f i item_func.obj
 0001:00117940       ?fatal_error@THD@@QEAAXXZ  0000000000518940 f i item_func.obj
 0001:001179d0       ??0Item_func_set_user_var@@QEAA@Ust_lex_string@@PEAVItem@@@Z 00000000005189d0 f i item_func.obj
 0001:00117b50       ?functype@Item_func_set_user_var@@UEBA?AW4Functype@Item_func@@XZ 0000000000518b50 f i item_func.obj
 0001:00117b60       ?result_type@Item_func_set_user_var@@UEBA?AW4Item_result@@XZ 0000000000518b60 f i item_func.obj
 0001:00117b80       ?func_name@Item_func_set_user_var@@UEBAPEBDXZ 0000000000518b80 f i item_func.obj
 0001:00117ba0       ?save_in_field@Item_func_set_user_var@@UEAAHPEAVField@@H@Z 0000000000518ba0 f i item_func.obj
 0001:00117c00       ?save_org_in_field@Item_func_set_user_var@@UEAAXPEAVField@@@Z 0000000000518c00 f i item_func.obj
 0001:00117c60       ??_EItem_func_set_user_var@@UEAAPEAXI@Z 0000000000518c60 f i item_func.obj
 0001:00117c60       ??_GItem_func_set_user_var@@UEAAPEAXI@Z 0000000000518c60 f i item_func.obj
 0001:00117cd0       ??1Item_func_set_user_var@@UEAA@XZ 0000000000518cd0 f i item_func.obj
 0001:00117d60       ??0set_var_user@@QEAA@PEAVItem_func_set_user_var@@@Z 0000000000518d60 f i item_func.obj
 0001:00117dd0       ??0set_var_base@@QEAA@XZ   0000000000518dd0 f i item_func.obj
 0001:00117e40       ?light_check@set_var_base@@UEAAHPEAVTHD@@@Z 0000000000518e40 f i item_func.obj
 0001:00117ea0       ?no_support_one_shot@set_var_base@@UEAAHXZ 0000000000518ea0 f i item_func.obj
 0001:00117eb0       ??_Eset_var_base@@UEAAPEAXI@Z 0000000000518eb0 f i item_func.obj
 0001:00117eb0       ??_Gset_var_base@@UEAAPEAXI@Z 0000000000518eb0 f i item_func.obj
 0001:00117f20       ??1set_var_base@@UEAA@XZ   0000000000518f20 f i item_func.obj
 0001:00117fa0       ??_Gset_var_user@@UEAAPEAXI@Z 0000000000518fa0 f i item_func.obj
 0001:00117fa0       ??_Eset_var_user@@UEAAPEAXI@Z 0000000000518fa0 f i item_func.obj
 0001:00118010       ??1set_var_user@@UEAA@XZ   0000000000519010 f i item_func.obj
 0001:00118050       ??1st_lex@@UEAA@XZ         0000000000519050 f i item_func.obj
 0001:001186f0       ??1?$List@Vkey_part_spec@@@@QEAA@XZ 00000000005196f0 f i item_func.obj
 0001:00118730       ??1?$List@V?$List@VItem@@@@@@QEAA@XZ 0000000000519730 f i item_func.obj
 0001:00118770       ??1st_select_lex@@UEAA@XZ  0000000000519770 f i item_func.obj
 0001:00118b70       ??1st_select_lex_node@@UEAA@XZ 0000000000519b70 f i item_func.obj
 0001:00118b90       ?set_lock_for_tables@st_select_lex_node@@UEAAXW4thr_lock_type@@@Z 0000000000519b90 f i item_func.obj
 0001:00118ba0       ??_Gst_select_lex_node@@UEAAPEAXI@Z 0000000000519ba0 f i item_func.obj
 0001:00118ba0       ??_Est_select_lex_node@@UEAAPEAXI@Z 0000000000519ba0 f i item_func.obj
 0001:00118c10       ??3st_select_lex_node@@SAXPEAX_K@Z 0000000000519c10 f i item_func.obj
 0001:00118c70       ??1Name_resolution_context@@QEAA@XZ 0000000000519c70 f i item_func.obj
 0001:00118cb0       ??1?$List@VItem_func_match@@@@QEAA@XZ 0000000000519cb0 f i item_func.obj
 0001:00118cf0       ??1?$List@UTABLE_LIST@@@@QEAA@XZ 0000000000519cf0 f i item_func.obj
 0001:00118d30       ??1?$List@VItem_outer_ref@@@@QEAA@XZ 0000000000519d30 f i item_func.obj
 0001:00118d70       ??1?$List@Ust_udf_func@@@@QEAA@XZ 0000000000519d70 f i item_func.obj
 0001:00118db0       ??1Query_tables_list@@QEAA@XZ 0000000000519db0 f i item_func.obj
 0001:00118dc0       ??_Est_lex@@UEAAPEAXI@Z    0000000000519dc0 f i item_func.obj
 0001:00118dc0       ??_Gst_lex@@UEAAPEAXI@Z    0000000000519dc0 f i item_func.obj
 0001:00118e30       ??1st_select_lex_unit@@UEAA@XZ 0000000000519e30 f i item_func.obj
 0001:00118f30       ??1?$List@Ust_lex_user@@@@QEAA@XZ 0000000000519f30 f i item_func.obj
 0001:00118f70       ??1?$List@VLEX_COLUMN@@@@QEAA@XZ 0000000000519f70 f i item_func.obj
 0001:00118fb0       ??1?$List@Vset_var_base@@@@QEAA@XZ 0000000000519fb0 f i item_func.obj
 0001:00118ff0       ??1?$List@VItem_param@@@@QEAA@XZ 0000000000519ff0 f i item_func.obj
 0001:00119030       ??1?$List@UName_resolution_context@@@@QEAA@XZ 000000000051a030 f i item_func.obj
 0001:00119070       ??1Alter_info@@QEAA@XZ     000000000051a070 f i item_func.obj
 0001:001191c0       ??1?$List@VAlter_drop@@@@QEAA@XZ 000000000051a1c0 f i item_func.obj
 0001:00119200       ??1?$List@VAlter_column@@@@QEAA@XZ 000000000051a200 f i item_func.obj
 0001:00119240       ??1?$List@VKey@@@@QEAA@XZ  000000000051a240 f i item_func.obj
 0001:00119280       ??1?$List@Vcreate_field@@@@QEAA@XZ 000000000051a280 f i item_func.obj
 0001:001192c0       ?get_name@Item_func_get_user_var@@QEAA?AUst_lex_string@@XZ 000000000051a2c0 f i item_func.obj
 0001:00119340       ?val_real@Item_func_get_system_var@@UEAANXZ 000000000051a340 f i item_func.obj
 0001:001193b0       ?val_int@Item_func_get_system_var@@UEAA_JXZ 000000000051a3b0 f i item_func.obj
 0001:00119410       ?val_str@Item_func_get_system_var@@UEAAPEAVString@@PEAV2@@Z 000000000051a410 f i item_func.obj
 0001:00119480       ?fix_length_and_dec@Item_func_get_system_var@@UEAAXXZ 000000000051a480 f i item_func.obj
 0001:001194e0       ?func_name@Item_func_get_system_var@@UEBAPEBDXZ 000000000051a4e0 f i item_func.obj
 0001:00119500       ??_GItem_func_get_system_var@@UEAAPEAXI@Z 000000000051a500 f i item_func.obj
 0001:00119500       ??_EItem_func_get_system_var@@UEAAPEAXI@Z 000000000051a500 f i item_func.obj
 0001:00119570       ??1Item_func_get_system_var@@UEAA@XZ 000000000051a570 f i item_func.obj
 0001:001195b0       ??0Item_func_concat_ws@@QEAA@AEAV?$List@VItem@@@@@Z 000000000051a5b0 f i item_func.obj
 0001:00119670       ??0Item_str_func@@QEAA@AEAV?$List@VItem@@@@@Z 000000000051a670 f i item_func.obj
 0001:001196e0       ?func_name@Item_func_concat_ws@@UEBAPEBDXZ 000000000051a6e0 f i item_func.obj
 0001:00119700       ?not_null_tables@Item_func_concat_ws@@UEBA_KXZ 000000000051a700 f i item_func.obj
 0001:00119710       ??_GItem_func_concat_ws@@UEAAPEAXI@Z 000000000051a710 f i item_func.obj
 0001:00119710       ??_EItem_func_concat_ws@@UEAAPEAXI@Z 000000000051a710 f i item_func.obj
 0001:00119780       ??1Item_func_concat_ws@@UEAA@XZ 000000000051a780 f i item_func.obj
 0001:00119810       ?agg_arg_collations_for_comparison@Item_func@@QEAAHAEAVDTCollation@@PEAPEAVItem@@II@Z 000000000051a810 f i item_func.obj
 0001:001198a0       ?is_set@?$Bitmap@$0EA@@@QEBADI@Z 000000000051a8a0 f i item_func.obj
 0001:00119930       ?val_int@Item_func_sp@@UEAA_JXZ 000000000051a930 f i item_func.obj
 0001:001199a0       ?val_real@Item_func_sp@@UEAANXZ 000000000051a9a0 f i item_func.obj
 0001:00119a20       ?val_decimal@Item_func_sp@@UEAAPEAVmy_decimal@@PEAV2@@Z 000000000051aa20 f i item_func.obj
 0001:00119aa0       ?val_str@Item_func_sp@@UEAAPEAVString@@PEAV2@@Z 000000000051aaa0 f i item_func.obj
 0001:00119c60       ?change_context_processor@Item_func_sp@@UEAAHPEAE@Z 000000000051ac60 f i item_func.obj
 0001:00119c90       ?functype@Item_func_sp@@UEBA?AW4Functype@Item_func@@XZ 000000000051ac90 f i item_func.obj
 0001:00119ca0       ?is_expensive@Item_func_sp@@UEAAHXZ 000000000051aca0 f i item_func.obj
 0001:00119cb0       ??_GItem_func_sp@@UEAAPEAXI@Z 000000000051acb0 f i item_func.obj
 0001:00119cb0       ??_EItem_func_sp@@UEAAPEAXI@Z 000000000051acb0 f i item_func.obj
 0001:00119d20       ??1Item_func_sp@@UEAA@XZ   000000000051ad20 f i item_func.obj
 0001:00119d80       ?move_field@Field@@QEAAXPEAD@Z 000000000051ad80 f i item_func.obj
 0001:00119db0       ?send_kill_message@THD@@QEBAXXZ 000000000051adb0 f i item_func.obj
 0001:00119e30       ?killed_errno@THD@@QEBAHXZ 000000000051ae30 f i item_func.obj
 0001:00119ea0       ?found_rows@THD@@QEAA_KXZ  000000000051aea0 f i item_func.obj
 0001:00119ec0       ??0?$List@Vset_var_base@@@@QEAA@XZ 000000000051aec0 f i item_func.obj
 0001:00119f10       ?push_back@?$List@Vset_var_base@@@@QEAAHPEAVset_var_base@@@Z 000000000051af10 f i item_func.obj
 0001:00119f60       ?tmp_table_field@Item_geometry_func@@UEAAPEAVField@@PEAUst_table@@@Z 000000000051af60 f   item_geofunc.obj
 0001:0011a050       ?fix_length_and_dec@Item_geometry_func@@UEAAXXZ 000000000051b050 f   item_geofunc.obj
 0001:0011a0c0       ?get_geometry_type@Item_geometry_func@@UEBAHXZ 000000000051b0c0 f   item_geofunc.obj
 0001:0011a0d0       ?val_str@Item_func_geometry_from_text@@UEAAPEAVString@@PEAV2@@Z 000000000051b0d0 f   item_geofunc.obj
 0001:0011a440       ?val_str@Item_func_geometry_from_wkb@@UEAAPEAVString@@PEAV2@@Z 000000000051b440 f   item_geofunc.obj
 0001:0011a6d0       ?val_str@Item_func_as_wkt@@UEAAPEAVString@@PEAV2@@Z 000000000051b6d0 f   item_geofunc.obj
 0001:0011a910       ?fix_length_and_dec@Item_func_as_wkt@@UEAAXXZ 000000000051b910 f   item_geofunc.obj
 0001:0011a940       ?val_str@Item_func_as_wkb@@UEAAPEAVString@@PEAV2@@Z 000000000051b940 f   item_geofunc.obj
 0001:0011ab40       ?val_str@Item_func_geometry_type@@UEAAPEAVString@@PEAV2@@Z 000000000051bb40 f   item_geofunc.obj
 0001:0011acf0       ?get_geometry_type@Item_func_envelope@@UEBAHXZ 000000000051bcf0 f   item_geofunc.obj
 0001:0011ad10       ?val_str@Item_func_envelope@@UEAAPEAVString@@PEAV2@@Z 000000000051bd10 f   item_geofunc.obj
 0001:0011b020       ?get_geometry_type@Item_func_centroid@@UEBAHXZ 000000000051c020 f   item_geofunc.obj
 0001:0011b040       ?val_str@Item_func_centroid@@UEAAPEAVString@@PEAV2@@Z 000000000051c040 f   item_geofunc.obj
 0001:0011b380       ?val_str@Item_func_spatial_decomp@@UEAAPEAVString@@PEAV2@@Z 000000000051c380 f   item_geofunc.obj
 0001:0011b700       ?val_str@Item_func_spatial_decomp_n@@UEAAPEAVString@@PEAV2@@Z 000000000051c700 f   item_geofunc.obj
 0001:0011bae0       ?get_geometry_type@Item_func_point@@UEBAHXZ 000000000051cae0 f   item_geofunc.obj
 0001:0011bb00       ?val_str@Item_func_point@@UEAAPEAVString@@PEAV2@@Z 000000000051cb00 f   item_geofunc.obj
 0001:0011bc70       ?val_str@Item_func_spatial_collection@@UEAAPEAVString@@PEAV2@@Z 000000000051cc70 f   item_geofunc.obj
 0001:0011c240       ?val_int@Item_func_spatial_rel@@UEAA_JXZ 000000000051d240 f   item_geofunc.obj
 0001:0011c620       ?val_int@Item_func_isempty@@UEAA_JXZ 000000000051d620 f   item_geofunc.obj
 0001:0011c7d0       ?val_int@Item_func_issimple@@UEAA_JXZ 000000000051d7d0 f   item_geofunc.obj
 0001:0011c950       ?val_int@Item_func_isclosed@@UEAA_JXZ 000000000051d950 f   item_geofunc.obj
 0001:0011cb20       ?val_int@Item_func_dimension@@UEAA_JXZ 000000000051db20 f   item_geofunc.obj
 0001:0011ccb0       ?val_int@Item_func_numinteriorring@@UEAA_JXZ 000000000051dcb0 f   item_geofunc.obj
 0001:0011ce10       ?val_int@Item_func_numgeometries@@UEAA_JXZ 000000000051de10 f   item_geofunc.obj
 0001:0011cf70       ?val_int@Item_func_numpoints@@UEAA_JXZ 000000000051df70 f   item_geofunc.obj
 0001:0011d0f0       ?val_real@Item_func_x@@UEAANXZ 000000000051e0f0 f   item_geofunc.obj
 0001:0011d270       ?val_real@Item_func_y@@UEAANXZ 000000000051e270 f   item_geofunc.obj
 0001:0011d3f0       ?val_real@Item_func_area@@UEAANXZ 000000000051e3f0 f   item_geofunc.obj
 0001:0011d570       ?val_real@Item_func_glength@@UEAANXZ 000000000051e570 f   item_geofunc.obj
 0001:0011d6f0       ?val_int@Item_func_srid@@UEAA_JXZ 000000000051e6f0 f   item_geofunc.obj
 0001:0011e6d0       ?q_append@String@@QEAAXK@Z 000000000051f6d0 f i item_geofunc.obj
 0001:0011e790       ??0Gis_read_stream@@QEAA@PEAUcharset_info_st@@PEBDH@Z 000000000051f790 f i item_geofunc.obj
 0001:0011e810       ??1Gis_read_stream@@QEAA@XZ 000000000051f810 f i item_geofunc.obj
 0001:0011e870       ?as_wkt@Geometry@@QEAAHPEAVString@@PEAPEBD@Z 000000000051f870 f i item_geofunc.obj
 0001:0011e980       ?qs_append@String@@QEAAXD@Z 000000000051f980 f i item_geofunc.obj
 0001:0011e9d0       ?q_append@String@@QEAAXD@Z 000000000051f9d0 f i item_geofunc.obj
 0001:0011ea20       ?q_append@String@@QEAAXN@Z 000000000051fa20 f i item_geofunc.obj
 0001:0011eaa0       ?append@String@@QEAAHPEBDKK@Z 000000000051faa0 f i item_geofunc.obj
 0001:0011eb90       ?equals@MBR@@QEAAHPEBU1@@Z 000000000051fb90 f i item_geofunc.obj
 0001:0011ec60       ?disjoint@MBR@@QEAAHPEBU1@@Z 000000000051fc60 f i item_geofunc.obj
 0001:0011ed20       ?intersects@MBR@@QEAAHPEBU1@@Z 000000000051fd20 f i item_geofunc.obj
 0001:0011ed90       ?touches@MBR@@QEAAHPEBU1@@Z 000000000051fd90 f i item_geofunc.obj
 0001:0011ef40       ?within@MBR@@QEAAHPEBU1@@Z 000000000051ff40 f i item_geofunc.obj
 0001:0011f000       ?contains@MBR@@QEAAHPEBU1@@Z 0000000000520000 f i item_geofunc.obj
 0001:0011f0c0       ?overlaps@MBR@@QEAAHPEBU1@@Z 00000000005200c0 f i item_geofunc.obj
 0001:0011f390       ??0MBR@@QEAA@NNNN@Z        0000000000520390 f i item_geofunc.obj
 0001:0011f410       ?dimension@MBR@@QEBAHXZ    0000000000520410 f i item_geofunc.obj
 0001:0011f4f0       ??0Item_row@@QEAA@AEAV?$List@VItem@@@@@Z 00000000005204f0 f   item_row.obj
 0001:0011f690       ?illegal_method_call@Item_row@@QEAAXPEBD@Z 0000000000520690 f   item_row.obj
 0001:0011f7b0       ?fix_fields@Item_row@@UEAAHPEAVTHD@@PEAPEAVItem@@@Z 00000000005207b0 f   item_row.obj
 0001:0011fa10       ?cleanup@Item_row@@UEAAXXZ 0000000000520a10 f   item_row.obj
 0001:0011fb00       ?split_sum_func@Item_row@@UEAAXPEAVTHD@@PEAPEAVItem@@AEAV?$List@VItem@@@@@Z 0000000000520b00 f   item_row.obj
 0001:0011fbc0       ?update_used_tables@Item_row@@UEAAXXZ 0000000000520bc0 f   item_row.obj
 0001:0011fcf0       ?check_cols@Item_row@@UEAAHI@Z 0000000000520cf0 f   item_row.obj
 0001:0011fd50       ?print@Item_row@@UEAAXPEAVString@@@Z 0000000000520d50 f   item_row.obj
 0001:0011fe10       ?walk@Item_row@@UEAAHP8Item@@EAAHPEAE@Z0@Z 0000000000520e10 f   item_row.obj
 0001:0011fec0       ?transform@Item_row@@UEAAPEAVItem@@P82@EAAPEAV2@PEAE@Z0@Z 0000000000520ec0 f   item_row.obj
 0001:00120000       ?bring_value@Item_row@@UEAAXXZ 0000000000521000 f   item_row.obj
 0001:00120360       ?type@Item_row@@UEBA?AW4Type@Item@@XZ 0000000000521360 f i item_row.obj
 0001:00120370       ?is_null@Item_row@@UEAAHXZ 0000000000521370 f i item_row.obj
 0001:00120390       ?make_field@Item_row@@UEAAXPEAVSend_field@@@Z 0000000000521390 f i item_row.obj
 0001:001203e0       ?val_real@Item_row@@UEAANXZ 00000000005213e0 f i item_row.obj
 0001:00120430       ?val_int@Item_row@@UEAA_JXZ 0000000000521430 f i item_row.obj
 0001:00120480       ?val_str@Item_row@@UEAAPEAVString@@PEAV2@@Z 0000000000521480 f i item_row.obj
 0001:001204e0       ?val_decimal@Item_row@@UEAAPEAVmy_decimal@@PEAV2@@Z 00000000005214e0 f i item_row.obj
 0001:00120540       ?used_tables@Item_row@@UEBA_KXZ 0000000000521540 f i item_row.obj
 0001:00120560       ?const_item@Item_row@@UEBAHXZ 0000000000521560 f i item_row.obj
 0001:00120580       ?result_type@Item_row@@UEBA?AW4Item_result@@XZ 0000000000521580 f i item_row.obj
 0001:00120590       ?cols@Item_row@@UEAAIXZ    0000000000521590 f i item_row.obj
 0001:001205b0       ?element_index@Item_row@@UEAAPEAVItem@@I@Z 00000000005215b0 f i item_row.obj
 0001:001205e0       ?addr@Item_row@@UEAAPEAPEAVItem@@I@Z 00000000005215e0 f i item_row.obj
 0001:00120610       ?null_inside@Item_row@@UEAAHXZ 0000000000521610 f i item_row.obj
 0001:00120630       ??_EItem_row@@UEAAPEAXI@Z  0000000000521630 f i item_row.obj
 0001:00120630       ??_GItem_row@@UEAAPEAXI@Z  0000000000521630 f i item_row.obj
 0001:001206a0       ??1Item_row@@UEAA@XZ       00000000005216a0 f i item_row.obj
 0001:001206e0       ?check_well_formed_result@Item_str_func@@QEAAPEAVString@@PEAV2@@Z 00000000005216e0 f   item_strfunc.obj
 0001:00120900       ?fix_fields@Item_str_func@@UEAAHPEAVTHD@@PEAPEAVItem@@@Z 0000000000521900 f   item_strfunc.obj
 0001:001209b0       ?val_decimal@Item_str_func@@UEAAPEAVmy_decimal@@PEAV2@@Z 00000000005219b0 f   item_strfunc.obj
 0001:00120b90       ?val_real@Item_str_func@@UEAANXZ 0000000000521b90 f   item_strfunc.obj
 0001:00120d90       ?val_int@Item_str_func@@UEAA_JXZ 0000000000521d90 f   item_strfunc.obj
 0001:00120f70       ?val_str@Item_func_md5@@UEAAPEAVString@@PEAV2@@Z 0000000000521f70 f   item_strfunc.obj
 0001:001212a0       ?fix_length_and_dec@Item_func_md5@@UEAAXXZ 00000000005222a0 f   item_strfunc.obj
 0001:00121320       ?val_str@Item_func_sha@@UEAAPEAVString@@PEAV2@@Z 0000000000522320 f   item_strfunc.obj
 0001:001216c0       ?fix_length_and_dec@Item_func_sha@@UEAAXXZ 00000000005226c0 f   item_strfunc.obj
 0001:00121740       ?val_str@Item_func_aes_encrypt@@UEAAPEAVString@@PEAV2@@Z 0000000000522740 f   item_strfunc.obj
 0001:00121a20       ?fix_length_and_dec@Item_func_aes_encrypt@@UEAAXXZ 0000000000522a20 f   item_strfunc.obj
 0001:00121a70       ?val_str@Item_func_aes_decrypt@@UEAAPEAVString@@PEAV2@@Z 0000000000522a70 f   item_strfunc.obj
 0001:00121df0       ?fix_length_and_dec@Item_func_aes_decrypt@@UEAAXXZ 0000000000522df0 f   item_strfunc.obj
 0001:00121e20       ?val_str@Item_func_concat@@UEAAPEAVString@@PEAV2@@Z 0000000000522e20 f   item_strfunc.obj
 0001:00122510       ?fix_length_and_dec@Item_func_concat@@UEAAXXZ 0000000000523510 f   item_strfunc.obj
 0001:00122690       ?val_str@Item_func_des_encrypt@@UEAAPEAVString@@PEAV2@@Z 0000000000523690 f   item_strfunc.obj
 0001:00122c90       ?val_str@Item_func_des_decrypt@@UEAAPEAVString@@PEAV2@@Z 0000000000523c90 f   item_strfunc.obj
 0001:001231b0       ?val_str@Item_func_concat_ws@@UEAAPEAVString@@PEAV2@@Z 00000000005241b0 f   item_strfunc.obj
 0001:00123b20       ?fix_length_and_dec@Item_func_concat_ws@@UEAAXXZ 0000000000524b20 f   item_strfunc.obj
 0001:00123c30       ?val_str@Item_func_reverse@@UEAAPEAVString@@PEAV2@@Z 0000000000524c30 f   item_strfunc.obj
 0001:00123f20       ?fix_length_and_dec@Item_func_reverse@@UEAAXXZ 0000000000524f20 f   item_strfunc.obj
 0001:00123f90       ?val_str@Item_func_replace@@UEAAPEAVString@@PEAV2@@Z 0000000000524f90 f   item_strfunc.obj
 0001:00124690       ?fix_length_and_dec@Item_func_replace@@UEAAXXZ 0000000000525690 f   item_strfunc.obj
 0001:001247c0       ?val_str@Item_func_insert@@UEAAPEAVString@@PEAV2@@Z 00000000005257c0 f   item_strfunc.obj
 0001:00124b60       ?fix_length_and_dec@Item_func_insert@@UEAAXXZ 0000000000525b60 f   item_strfunc.obj
 0001:00124c20       ?val_str@Item_str_conv@@UEAAPEAVString@@PEAV2@@Z 0000000000525c20 f   item_strfunc.obj
 0001:00124ec0       ?val_str@Item_func_left@@UEAAPEAVString@@PEAV2@@Z 0000000000525ec0 f   item_strfunc.obj
 0001:00125050       ?left_right_max_length@Item_str_func@@QEAAXXZ 0000000000526050 f   item_strfunc.obj
 0001:00125130       ?fix_length_and_dec@Item_func_left@@UEAAXXZ 0000000000526130 f   item_strfunc.obj
 0001:00125190       ?val_str@Item_func_right@@UEAAPEAVString@@PEAV2@@Z 0000000000526190 f   item_strfunc.obj
 0001:00125350       ?fix_length_and_dec@Item_func_right@@UEAAXXZ 0000000000526350 f   item_strfunc.obj
 0001:001253b0       ?val_str@Item_func_substr@@UEAAPEAVString@@PEAV2@@Z 00000000005263b0 f   item_strfunc.obj
 0001:00125740       ?fix_length_and_dec@Item_func_substr@@UEAAXXZ 0000000000526740 f   item_strfunc.obj
 0001:00125930       ?fix_length_and_dec@Item_func_substr_index@@UEAAXXZ 0000000000526930 f   item_strfunc.obj
 0001:001259b0       ?val_str@Item_func_substr_index@@UEAAPEAVString@@PEAV2@@Z 00000000005269b0 f   item_strfunc.obj
 0001:00126000       ?val_str@Item_func_ltrim@@UEAAPEAVString@@PEAV2@@Z 0000000000527000 f   item_strfunc.obj
 0001:001264b0       ?val_str@Item_func_rtrim@@UEAAPEAVString@@PEAV2@@Z 00000000005274b0 f   item_strfunc.obj
 0001:00126b80       ?val_str@Item_func_trim@@UEAAPEAVString@@PEAV2@@Z 0000000000527b80 f   item_strfunc.obj
 0001:001271a0       ?fix_length_and_dec@Item_func_trim@@UEAAXXZ 00000000005281a0 f   item_strfunc.obj
 0001:00127290       ?print@Item_func_trim@@UEAAXPEAVString@@@Z 0000000000528290 f   item_strfunc.obj
 0001:001273b0       ?val_str@Item_func_password@@UEAAPEAVString@@PEAV2@@Z 00000000005283b0 f   item_strfunc.obj
 0001:001274d0       ?alloc@Item_func_password@@SAPEADPEAVTHD@@PEBD@Z 00000000005284d0 f   item_strfunc.obj
 0001:00127540       ?val_str@Item_func_old_password@@UEAAPEAVString@@PEAV2@@Z 0000000000528540 f   item_strfunc.obj
 0001:00127660       ?alloc@Item_func_old_password@@SAPEADPEAVTHD@@PEBD@Z 0000000000528660 f   item_strfunc.obj
 0001:001276d0       ?val_str@Item_func_encrypt@@UEAAPEAVString@@PEAV2@@Z 00000000005286d0 f   item_strfunc.obj
 0001:00127760       ?fix_length_and_dec@Item_func_encode@@UEAAXXZ 0000000000528760 f   item_strfunc.obj
 0001:001277e0       ?val_str@Item_func_encode@@UEAAPEAVString@@PEAV2@@Z 00000000005287e0 f   item_strfunc.obj
 0001:00127910       ?print@Item_func_encode@@UEAAXPEAVString@@@Z 0000000000528910 f   item_strfunc.obj
 0001:001279e0       ?val_str@Item_func_decode@@UEAAPEAVString@@PEAV2@@Z 00000000005289e0 f   item_strfunc.obj
 0001:00127af0       ?safe_charset_converter@Item_func_sysconst@@UEAAPEAVItem@@PEAUcharset_info_st@@@Z 0000000000528af0 f   item_strfunc.obj
 0001:00127e30       ?val_str@Item_func_database@@UEAAPEAVString@@PEAV2@@Z 0000000000528e30 f   item_strfunc.obj
 0001:00127ef0       ?init@Item_func_user@@IEAAHPEBD0@Z 0000000000528ef0 f   item_strfunc.obj
 0001:00128060       ?fix_fields@Item_func_user@@UEAAHPEAVTHD@@PEAPEAVItem@@@Z 0000000000529060 f   item_strfunc.obj
 0001:001280f0       ?fix_fields@Item_func_current_user@@UEAAHPEAVTHD@@PEAPEAVItem@@@Z 00000000005290f0 f   item_strfunc.obj
 0001:001281b0       ?fix_length_and_dec@Item_func_soundex@@UEAAXXZ 00000000005291b0 f   item_strfunc.obj
 0001:00128270       ?val_str@Item_func_soundex@@UEAAPEAVString@@PEAV2@@Z 0000000000529270 f   item_strfunc.obj
 0001:00128920       ??0Item_func_format@@QEAA@PEAVItem@@H@Z 0000000000529920 f   item_strfunc.obj
 0001:00128a10       ?val_str@Item_func_format@@UEAAPEAVString@@PEAV2@@Z 0000000000529a10 f   item_strfunc.obj
 0001:00128f20       ?print@Item_func_format@@UEAAXPEAVString@@@Z 0000000000529f20 f   item_strfunc.obj
 0001:00129090       ?fix_length_and_dec@Item_func_elt@@UEAAXXZ 000000000052a090 f   item_strfunc.obj
 0001:001291e0       ?val_real@Item_func_elt@@UEAANXZ 000000000052a1e0 f   item_strfunc.obj
 0001:001292e0       ?val_int@Item_func_elt@@UEAA_JXZ 000000000052a2e0 f   item_strfunc.obj
 0001:001293d0       ?val_str@Item_func_elt@@UEAAPEAVString@@PEAV2@@Z 000000000052a3d0 f   item_strfunc.obj
 0001:001294f0       ?split_sum_func@Item_func_make_set@@UEAAXPEAVTHD@@PEAPEAVItem@@AEAV?$List@VItem@@@@@Z 000000000052a4f0 f   item_strfunc.obj
 0001:00129580       ?fix_length_and_dec@Item_func_make_set@@UEAAXXZ 000000000052a580 f   item_strfunc.obj
 0001:00129750       ?update_used_tables@Item_func_make_set@@UEAAXXZ 000000000052a750 f   item_strfunc.obj
 0001:00129830       ?val_str@Item_func_make_set@@UEAAPEAVString@@PEAV2@@Z 000000000052a830 f   item_strfunc.obj
 0001:00129af0       ?transform@Item_func_make_set@@UEAAPEAVItem@@P82@EAAPEAV2@PEAE@Z0@Z 000000000052aaf0 f   item_strfunc.obj
 0001:00129bf0       ?print@Item_func_make_set@@UEAAXPEAVString@@@Z 000000000052abf0 f   item_strfunc.obj
 0001:00129ca0       ?val_str@Item_func_char@@UEAAPEAVString@@PEAV2@@Z 000000000052aca0 f   item_strfunc.obj
 0001:00129e40       ?fix_length_and_dec@Item_func_repeat@@UEAAXXZ 000000000052ae40 f   item_strfunc.obj
 0001:00129f50       ?val_str@Item_func_repeat@@UEAAPEAVString@@PEAV2@@Z 000000000052af50 f   item_strfunc.obj
 0001:0012a220       ?fix_length_and_dec@Item_func_rpad@@UEAAXXZ 000000000052b220 f   item_strfunc.obj
 0001:0012a370       ?val_str@Item_func_rpad@@UEAAPEAVString@@PEAV2@@Z 000000000052b370 f   item_strfunc.obj
 0001:0012a7a0       ?fix_length_and_dec@Item_func_lpad@@UEAAXXZ 000000000052b7a0 f   item_strfunc.obj
 0001:0012a8f0       ?val_str@Item_func_lpad@@UEAAPEAVString@@PEAV2@@Z 000000000052b8f0 f   item_strfunc.obj
 0001:0012ace0       ?val_str@Item_func_conv@@UEAAPEAVString@@PEAV2@@Z 000000000052bce0 f   item_strfunc.obj
 0001:0012b100       ?val_str@Item_func_conv_charset@@UEAAPEAVString@@PEAV2@@Z 000000000052c100 f   item_strfunc.obj
 0001:0012b2d0       ?fix_length_and_dec@Item_func_conv_charset@@UEAAXXZ 000000000052c2d0 f   item_strfunc.obj
 0001:0012b350       ?print@Item_func_conv_charset@@UEAAXPEAVString@@@Z 000000000052c350 f   item_strfunc.obj
 0001:0012b400       ?val_str@Item_func_set_collation@@UEAAPEAVString@@PEAV2@@Z 000000000052c400 f   item_strfunc.obj
 0001:0012b4d0       ?fix_length_and_dec@Item_func_set_collation@@UEAAXXZ 000000000052c4d0 f   item_strfunc.obj
 0001:0012b6c0       ?eq@Item_func_set_collation@@UEBAHPEBVItem@@H@Z 000000000052c6c0 f   item_strfunc.obj
 0001:0012b840       ?print@Item_func_set_collation@@UEAAXPEAVString@@@Z 000000000052c840 f   item_strfunc.obj
 0001:0012b950       ?val_str@Item_func_charset@@UEAAPEAVString@@PEAV2@@Z 000000000052c950 f   item_strfunc.obj
 0001:0012ba30       ?val_str@Item_func_collation@@UEAAPEAVString@@PEAV2@@Z 000000000052ca30 f   item_strfunc.obj
 0001:0012bb10       ?val_str@Item_func_hex@@UEAAPEAVString@@PEAV2@@Z 000000000052cb10 f   item_strfunc.obj
 0001:0012bf00       ?val_str@Item_func_unhex@@UEAAPEAVString@@PEAV2@@Z 000000000052cf00 f   item_strfunc.obj
 0001:0012c1b0       ?print@Item_func_binary@@UEAAXPEAVString@@@Z 000000000052d1b0 f   item_strfunc.obj
 0001:0012c240       ?val_str@Item_load_file@@UEAAPEAVString@@PEAV2@@Z 000000000052d240 f   item_strfunc.obj
 0001:0012c610       ?val_str@Item_func_export_set@@UEAAPEAVString@@PEAV2@@Z 000000000052d610 f   item_strfunc.obj
 0001:0012cba0       ?fix_length_and_dec@Item_func_export_set@@UEAAXXZ 000000000052dba0 f   item_strfunc.obj
 0001:0012cce0       ?val_str@Item_func_inet_ntoa@@UEAAPEAVString@@PEAV2@@Z 000000000052dce0 f   item_strfunc.obj
 0001:0012cfb0       ?val_str@Item_func_quote@@UEAAPEAVString@@PEAV2@@Z 000000000052dfb0 f   item_strfunc.obj
 0001:0012d2d0       ?val_int@Item_func_uncompressed_length@@UEAA_JXZ 000000000052e2d0 f   item_strfunc.obj
 0001:0012d410       ?val_int@Item_func_crc32@@UEAA_JXZ 000000000052e410 f   item_strfunc.obj
 0001:0012d500       ?val_str@Item_func_compress@@UEAAPEAVString@@PEAV2@@Z 000000000052e500 f   item_strfunc.obj
 0001:0012d830       ?val_str@Item_func_uncompress@@UEAAPEAVString@@PEAV2@@Z 000000000052e830 f   item_strfunc.obj
 0001:0012db70       ?val_str@Item_func_uuid@@UEAAPEAVString@@PEAV2@@Z 000000000052eb70 f   item_strfunc.obj
 0001:001316c0       ?set@String@@QEAAXAEAV1@KK@Z 00000000005326c0 f i item_strfunc.obj
 0001:001317e0       ?init@SQL_CRYPT@@QEAAXXZ   00000000005327e0 f i item_strfunc.obj
 0001:00131860       ?fix_length_and_dec@Item_func_format@@UEAAXXZ 0000000000532860 f i item_strfunc.obj
 0001:00131940       ?func_name@Item_func_format@@UEBAPEBDXZ 0000000000532940 f i item_strfunc.obj
 0001:00131960       ??_EItem_func_format@@UEAAPEAXI@Z 0000000000532960 f i item_strfunc.obj
 0001:00131960       ??_GItem_func_format@@UEAAPEAXI@Z 0000000000532960 f i item_strfunc.obj
 0001:001319d0       ??1Item_func_format@@UEAA@XZ 00000000005329d0 f i item_strfunc.obj
 0001:00131a60       ?alloc_buffer@@YAPEAVString@@PEAV1@00K@Z 0000000000532a60 f i item_strfunc.obj
 0001:00131b60       ?hexchar_to_int@@YAHD@Z    0000000000532b60 f i item_strfunc.obj
 0001:00131bd0       ?sql_rnd_with_mutex@@YAKXZ 0000000000532bd0 f i item_strfunc.obj
 0001:00131c50       ??0String@@QEAA@PEBDPEAUcharset_info_st@@@Z 0000000000532c50 f i item_strfunc.obj
 0001:00131cf0       ??0Item_subselect@@QEAA@XZ 0000000000532cf0 f   item_subselect.obj
 0001:00131e40       ?init@Item_subselect@@UEAAXPEAVst_select_lex@@PEAVselect_subselect@@@Z 0000000000532e40 f   item_subselect.obj
 0001:00132290       ?get_select_lex@Item_subselect@@QEAAPEAVst_select_lex@@XZ 0000000000533290 f   item_subselect.obj
 0001:001322d0       ?cleanup@Item_subselect@@UEAAXXZ 00000000005332d0 f   item_subselect.obj
 0001:00132460       ?cleanup@Item_singlerow_subselect@@UEAAXXZ 0000000000533460 f   item_subselect.obj
 0001:00132540       ??1Item_subselect@@UEAA@XZ 0000000000533540 f   item_subselect.obj
 0001:00132610       ?select_transformer@Item_subselect@@UEAA?AW4trans_res@1@PEAVJOIN@@@Z 0000000000533610 f   item_subselect.obj
 0001:001326d0       ?fix_fields@Item_subselect@@UEAAHPEAVTHD@@PEAPEAVItem@@@Z 00000000005336d0 f   item_subselect.obj
 0001:00132aa0       ?exec@Item_subselect@@UEAAHXZ 0000000000533aa0 f   item_subselect.obj
 0001:00132b50       ?type@Item_subselect@@UEBA?AW4Type@Item@@XZ 0000000000533b50 f   item_subselect.obj
 0001:00132b70       ?fix_length_and_dec@Item_subselect@@UEAAXXZ 0000000000533b70 f   item_subselect.obj
 0001:00132bc0       ?used_tables@Item_subselect@@UEBA_KXZ 0000000000533bc0 f   item_subselect.obj
 0001:00132c40       ?const_item@Item_subselect@@UEBAHXZ 0000000000533c40 f   item_subselect.obj
 0001:00132c60       ?get_tmp_table_item@Item_subselect@@UEAAPEAVItem@@PEAVTHD@@@Z 0000000000533c60 f   item_subselect.obj
 0001:00132d50       ?update_used_tables@Item_subselect@@UEAAXXZ 0000000000533d50 f   item_subselect.obj
 0001:00132df0       ?print@Item_subselect@@UEAAXPEAVString@@@Z 0000000000533df0 f   item_subselect.obj
 0001:00132e60       ??0Item_singlerow_subselect@@QEAA@PEAVst_select_lex@@@Z 0000000000533e60 f   item_subselect.obj
 0001:00133060       ?invalidate_and_restore_select_lex@Item_singlerow_subselect@@QEAAPEAVst_select_lex@@XZ 0000000000534060 f   item_subselect.obj
 0001:00133170       ??0Item_maxmin_subselect@@QEAA@PEAVTHD@@PEAVItem_subselect@@PEAVst_select_lex@@H@Z 0000000000534170 f   item_subselect.obj
 0001:00133400       ?cleanup@Item_maxmin_subselect@@UEAAXXZ 0000000000534400 f   item_subselect.obj
 0001:001334d0       ?print@Item_maxmin_subselect@@UEAAXPEAVString@@@Z 00000000005344d0 f   item_subselect.obj
 0001:00133550       ?reset@Item_singlerow_subselect@@UEAAXXZ 0000000000534550 f   item_subselect.obj
 0001:00133590       ?select_transformer@Item_singlerow_subselect@@UEAA?AW4trans_res@Item_subselect@@PEAVJOIN@@@Z 0000000000534590 f   item_subselect.obj
 0001:00133870       ?store@Item_singlerow_subselect@@QEAAXIPEAVItem@@@Z 0000000000534870 f   item_subselect.obj
 0001:001338e0       ?result_type@Item_singlerow_subselect@@UEBA?AW4Item_result@@XZ 00000000005348e0 f   item_subselect.obj
 0001:00133920       ?field_type@Item_singlerow_subselect@@UEBA?AW4enum_field_types@@XZ 0000000000534920 f   item_subselect.obj
 0001:00133960       ?fix_length_and_dec@Item_singlerow_subselect@@UEAAXXZ 0000000000534960 f   item_subselect.obj
 0001:00133af0       ?cols@Item_singlerow_subselect@@UEAAIXZ 0000000000534af0 f   item_subselect.obj
 0001:00133b40       ?check_cols@Item_singlerow_subselect@@UEAAHI@Z 0000000000534b40 f   item_subselect.obj
 0001:00133bc0       ?null_inside@Item_singlerow_subselect@@UEAAHXZ 0000000000534bc0 f   item_subselect.obj
 0001:00133c40       ?bring_value@Item_singlerow_subselect@@UEAAXXZ 0000000000534c40 f   item_subselect.obj
 0001:00133c90       ?val_real@Item_singlerow_subselect@@UEAANXZ 0000000000534c90 f   item_subselect.obj
 0001:00133d60       ?val_int@Item_singlerow_subselect@@UEAA_JXZ 0000000000534d60 f   item_subselect.obj
 0001:00133e30       ?val_str@Item_singlerow_subselect@@UEAAPEAVString@@PEAV2@@Z 0000000000534e30 f   item_subselect.obj
 0001:00133ee0       ?val_decimal@Item_singlerow_subselect@@UEAAPEAVmy_decimal@@PEAV2@@Z 0000000000534ee0 f   item_subselect.obj
 0001:00133f90       ?val_bool@Item_singlerow_subselect@@UEAAHXZ 0000000000534f90 f   item_subselect.obj
 0001:00134030       ??0Item_exists_subselect@@QEAA@PEAVst_select_lex@@@Z 0000000000535030 f   item_subselect.obj
 0001:00134240       ?print@Item_exists_subselect@@UEAAXPEAVString@@@Z 0000000000535240 f   item_subselect.obj
 0001:001342a0       ?test_limit@Item_in_subselect@@QEAAHPEAVst_select_lex_unit@@@Z 00000000005352a0 f   item_subselect.obj
 0001:00134340       ??0Item_in_subselect@@QEAA@PEAVItem@@PEAVst_select_lex@@@Z 0000000000535340 f   item_subselect.obj
 0001:001345e0       ??0Item_allany_subselect@@QEAA@PEAVItem@@P6APEAVComp_creator@@H@ZPEAVst_select_lex@@H@Z 00000000005355e0 f   item_subselect.obj
 0001:00134880       ?fix_length_and_dec@Item_exists_subselect@@UEAAXXZ 0000000000535880 f   item_subselect.obj
 0001:00134990       ?val_real@Item_exists_subselect@@UEAANXZ 0000000000535990 f   item_subselect.obj
 0001:00134a30       ?val_int@Item_exists_subselect@@UEAA_JXZ 0000000000535a30 f   item_subselect.obj
 0001:00134ad0       ?val_str@Item_exists_subselect@@UEAAPEAVString@@PEAV2@@Z 0000000000535ad0 f   item_subselect.obj
 0001:00134b80       ?val_decimal@Item_exists_subselect@@UEAAPEAVmy_decimal@@PEAV2@@Z 0000000000535b80 f   item_subselect.obj
 0001:00134c40       ?val_bool@Item_exists_subselect@@UEAAHXZ 0000000000535c40 f   item_subselect.obj
 0001:00134cf0       ?val_real@Item_in_subselect@@UEAANXZ 0000000000535cf0 f   item_subselect.obj
 0001:00134de0       ?val_int@Item_in_subselect@@UEAA_JXZ 0000000000535de0 f   item_subselect.obj
 0001:00134ed0       ?val_str@Item_in_subselect@@UEAAPEAVString@@PEAV2@@Z 0000000000535ed0 f   item_subselect.obj
 0001:00134fe0       ?val_bool@Item_in_subselect@@UEAAHXZ 0000000000535fe0 f   item_subselect.obj
 0001:001350b0       ?val_decimal@Item_in_subselect@@UEAAPEAVmy_decimal@@PEAV2@@Z 00000000005360b0 f   item_subselect.obj
 0001:001351c0       ?single_value_transformer@Item_in_subselect@@QEAA?AW4trans_res@Item_subselect@@PEAVJOIN@@PEAVComp_creator@@@Z 00000000005361c0 f   item_subselect.obj
 0001:00136a70       ?row_value_transformer@Item_in_subselect@@QEAA?AW4trans_res@Item_subselect@@PEAVJOIN@@@Z 0000000000537a70 f   item_subselect.obj
 0001:001384e0       ?select_transformer@Item_in_subselect@@UEAA?AW4trans_res@Item_subselect@@PEAVJOIN@@@Z 00000000005394e0 f   item_subselect.obj
 0001:00138530       ?select_in_like_transformer@Item_in_subselect@@QEAA?AW4trans_res@Item_subselect@@PEAVJOIN@@PEAVComp_creator@@@Z 0000000000539530 f   item_subselect.obj
 0001:00138b40       ?print@Item_in_subselect@@UEAAXPEAVString@@@Z 0000000000539b40 f   item_subselect.obj
 0001:00138bf0       ?fix_fields@Item_in_subselect@@UEAAHPEAVTHD@@PEAPEAVItem@@@Z 0000000000539bf0 f   item_subselect.obj
 0001:00138cf0       ?select_transformer@Item_allany_subselect@@UEAA?AW4trans_res@Item_subselect@@PEAVJOIN@@@Z 0000000000539cf0 f   item_subselect.obj
 0001:00138d80       ?print@Item_allany_subselect@@UEAAXPEAVString@@@Z 0000000000539d80 f   item_subselect.obj
 0001:00138ea0       ?set_thd@subselect_engine@@QEAAXPEAVTHD@@@Z 0000000000539ea0 f   item_subselect.obj
 0001:00138f10       ??0subselect_single_select_engine@@QEAA@PEAVst_select_lex@@PEAVselect_subselect@@PEAVItem_subselect@@@Z 0000000000539f10 f   item_subselect.obj
 0001:00139010       ?cleanup@subselect_single_select_engine@@UEAAXXZ 000000000053a010 f   item_subselect.obj
 0001:00139110       ?cleanup@subselect_union_engine@@UEAAXXZ 000000000053a110 f   item_subselect.obj
 0001:001391f0       ?is_executed@subselect_union_engine@@UEBAHXZ 000000000053a1f0 f   item_subselect.obj
 0001:00139210       ?no_rows@subselect_union_engine@@UEAAHXZ 000000000053a210 f   item_subselect.obj
 0001:00139270       ?cleanup@subselect_uniquesubquery_engine@@UEAAXXZ 000000000053a270 f   item_subselect.obj
 0001:00139320       ??0subselect_union_engine@@QEAA@PEAVst_select_lex_unit@@PEAVselect_subselect@@PEAVItem_subselect@@@Z 000000000053a320 f   item_subselect.obj
 0001:00139400       ?prepare@subselect_single_select_engine@@UEAAHXZ 000000000053a400 f   item_subselect.obj
 0001:001396f0       ?prepare@subselect_union_engine@@UEAAHXZ 000000000053a6f0 f   item_subselect.obj
 0001:00139750       ?prepare@subselect_uniquesubquery_engine@@UEAAHXZ 000000000053a750 f   item_subselect.obj
 0001:001397b0       ?no_rows@subselect_single_select_engine@@UEAAHXZ 000000000053a7b0 f   item_subselect.obj
 0001:00139810       ?set_row@subselect_engine@@IEAAXAEAV?$List@VItem@@@@PEAPEAVItem_cache@@@Z 000000000053a810 f   item_subselect.obj
 0001:001399e0       ?fix_length_and_dec@subselect_single_select_engine@@UEAAXPEAPEAVItem_cache@@@Z 000000000053a9e0 f   item_subselect.obj
 0001:00139ab0       ?fix_length_and_dec@subselect_union_engine@@UEAAXPEAPEAVItem_cache@@@Z 000000000053aab0 f   item_subselect.obj
 0001:00139bc0       ?fix_length_and_dec@subselect_uniquesubquery_engine@@UEAAXPEAPEAVItem_cache@@@Z 000000000053abc0 f   item_subselect.obj
 0001:00139c20       ?exec@subselect_single_select_engine@@UEAAHXZ 000000000053ac20 f   item_subselect.obj
 0001:0013a4d0       ?exec@subselect_union_engine@@UEAAHXZ 000000000053b4d0 f   item_subselect.obj
 0001:0013a540       ?scan_table@subselect_uniquesubquery_engine@@QEAAHXZ 000000000053b540 f   item_subselect.obj
 0001:0013a770       ?copy_ref_key@subselect_uniquesubquery_engine@@QEAAHXZ 000000000053b770 f   item_subselect.obj
 0001:0013a940       ?exec@subselect_uniquesubquery_engine@@UEAAHXZ 000000000053b940 f   item_subselect.obj
 0001:0013acc0       ??1subselect_uniquesubquery_engine@@UEAA@XZ 000000000053bcc0 f   item_subselect.obj
 0001:0013ad60       ?exec@subselect_indexsubquery_engine@@UEAAHXZ 000000000053bd60 f   item_subselect.obj
 0001:0013b270       ?cols@subselect_single_select_engine@@UEAAIXZ 000000000053c270 f   item_subselect.obj
 0001:0013b2f0       ?cols@subselect_union_engine@@UEAAIXZ 000000000053c2f0 f   item_subselect.obj
 0001:0013b360       ?uncacheable@subselect_single_select_engine@@UEAAEXZ 000000000053c360 f   item_subselect.obj
 0001:0013b380       ?uncacheable@subselect_union_engine@@UEAAEXZ 000000000053c380 f   item_subselect.obj
 0001:0013b3a0       ?exclude@subselect_single_select_engine@@UEAAXXZ 000000000053c3a0 f   item_subselect.obj
 0001:0013b3f0       ?exclude@subselect_union_engine@@UEAAXXZ 000000000053c3f0 f   item_subselect.obj
 0001:0013b430       ?exclude@subselect_uniquesubquery_engine@@UEAAXXZ 000000000053c430 f   item_subselect.obj
 0001:0013b480       ?calc_const_tables@subselect_engine@@SA_KPEAUTABLE_LIST@@@Z 000000000053c480 f   item_subselect.obj
 0001:0013b520       ?upper_select_const_tables@subselect_single_select_engine@@UEAA_KXZ 000000000053c520 f   item_subselect.obj
 0001:0013b580       ?upper_select_const_tables@subselect_union_engine@@UEAA_KXZ 000000000053c580 f   item_subselect.obj
 0001:0013b5e0       ?print@subselect_single_select_engine@@UEAAXPEAVString@@@Z 000000000053c5e0 f   item_subselect.obj
 0001:0013b630       ?print@subselect_union_engine@@UEAAXPEAVString@@@Z 000000000053c630 f   item_subselect.obj
 0001:0013b680       ?print@subselect_uniquesubquery_engine@@UEAAXPEAVString@@@Z 000000000053c680 f   item_subselect.obj
 0001:0013b7e0       ?print@subselect_indexsubquery_engine@@UEAAXPEAVString@@@Z 000000000053c7e0 f   item_subselect.obj
 0001:0013b9a0       ?change_result@subselect_single_select_engine@@UEAAHPEAVItem_subselect@@PEAVselect_subselect@@@Z 000000000053c9a0 f   item_subselect.obj
 0001:0013ba20       ?change_result@subselect_union_engine@@UEAAHPEAVItem_subselect@@PEAVselect_subselect@@@Z 000000000053ca20 f   item_subselect.obj
 0001:0013baa0       ?change_result@subselect_uniquesubquery_engine@@UEAAHPEAVItem_subselect@@PEAVselect_subselect@@@Z 000000000053caa0 f   item_subselect.obj
 0001:0013bb00       ?no_tables@subselect_single_select_engine@@UEAAHXZ 000000000053cb00 f   item_subselect.obj
 0001:0013bb60       ?may_be_null@subselect_single_select_engine@@UEAAHXZ 000000000053cb60 f   item_subselect.obj
 0001:0013bbf0       ?no_tables@subselect_union_engine@@UEAAHXZ 000000000053cbf0 f   item_subselect.obj
 0001:0013bc70       ?no_tables@subselect_uniquesubquery_engine@@UEAAHXZ 000000000053cc70 f   item_subselect.obj
 0001:0013e460       ?substype@Item_subselect@@UEAA?AW4subs_type@1@XZ 000000000053f460 f i item_subselect.obj
 0001:0013e470       ?reset@Item_subselect@@UEAAXXZ 000000000053f470 f i item_subselect.obj
 0001:0013e490       ?is_null@Item_subselect@@UEAAHXZ 000000000053f490 f i item_subselect.obj
 0001:0013e4f0       ?not_null_tables@Item_subselect@@UEBA_KXZ 000000000053f4f0 f i item_subselect.obj
 0001:0013e500       ?have_guarded_conds@Item_subselect@@UEAAHXZ 000000000053f500 f i item_subselect.obj
 0001:0013e510       ?reset_value_registration@Item_subselect@@UEAAXXZ 000000000053f510 f i item_subselect.obj
 0001:0013e520       ??_GItem_subselect@@UEAAPEAXI@Z 000000000053f520 f i item_subselect.obj
 0001:0013e520       ??_EItem_subselect@@UEAAPEAXI@Z 000000000053f520 f i item_subselect.obj
 0001:0013e590       ?next_select@st_select_lex@@QEAAPEAV1@XZ 000000000053f590 f i item_subselect.obj
 0001:0013e5b0       ?substype@Item_singlerow_subselect@@UEAA?AW4subs_type@Item_subselect@@XZ 000000000053f5b0 f i item_subselect.obj
 0001:0013e5c0       ?element_index@Item_singlerow_subselect@@UEAAPEAVItem@@I@Z 000000000053f5c0 f i item_subselect.obj
 0001:0013e5f0       ?addr@Item_singlerow_subselect@@UEAAPEAPEAVItem@@I@Z 000000000053f5f0 f i item_subselect.obj
 0001:0013e620       ??_EItem_singlerow_subselect@@UEAAPEAXI@Z 000000000053f620 f i item_subselect.obj
 0001:0013e620       ??_GItem_singlerow_subselect@@UEAAPEAXI@Z 000000000053f620 f i item_subselect.obj
 0001:0013e690       ??1Item_singlerow_subselect@@UEAA@XZ 000000000053f690 f i item_subselect.obj
 0001:0013e6d0       ??0select_singlerow_subselect@@QEAA@PEAVItem_subselect@@@Z 000000000053f6d0 f i item_subselect.obj
 0001:0013e740       ?prepare@select_result@@UEAAHAEAV?$List@VItem@@@@PEAVst_select_lex_unit@@@Z 000000000053f740 f i item_subselect.obj
 0001:0013e770       ?prepare2@select_result@@UEAAHXZ 000000000053f770 f i item_subselect.obj
 0001:0013e780       ?initialize_tables@select_result@@UEAAHPEAVJOIN@@@Z 000000000053f780 f i item_subselect.obj
 0001:0013e7a0       ?abort@select_result@@UEAAXXZ 000000000053f7a0 f i item_subselect.obj
 0001:0013e7b0       ?field_count@select_result_interceptor@@UEBAIAEAV?$List@VItem@@@@@Z 000000000053f7b0 f i item_subselect.obj
 0001:0013e7d0       ?send_fields@select_result_interceptor@@UEAAHAEAV?$List@VItem@@@@I@Z 000000000053f7d0 f i item_subselect.obj
 0001:0013e7f0       ?send_eof@select_subselect@@UEAAHXZ 000000000053f7f0 f i item_subselect.obj
 0001:0013e800       ??_Eselect_singlerow_subselect@@UEAAPEAXI@Z 000000000053f800 f i item_subselect.obj
 0001:0013e800       ??_Gselect_singlerow_subselect@@UEAAPEAXI@Z 000000000053f800 f i item_subselect.obj
 0001:0013e870       ??1select_singlerow_subselect@@UEAA@XZ 000000000053f870 f i item_subselect.obj
 0001:0013e8b0       ??1select_subselect@@UEAA@XZ 000000000053f8b0 f i item_subselect.obj
 0001:0013e8f0       ??1select_result_interceptor@@UEAA@XZ 000000000053f8f0 f i item_subselect.obj
 0001:0013e930       ??1select_result@@UEAA@XZ  000000000053f930 f i item_subselect.obj
 0001:0013e9b0       ?field_count@select_result@@UEBAIAEAV?$List@VItem@@@@@Z 000000000053f9b0 f i item_subselect.obj
 0001:0013e9d0       ??_Gselect_result@@UEAAPEAXI@Z 000000000053f9d0 f i item_subselect.obj
 0001:0013e9d0       ??_Eselect_result@@UEAAPEAXI@Z 000000000053f9d0 f i item_subselect.obj
 0001:0013ea40       ?get_used_tables_cache@Item_subselect@@QEAA_KXZ 000000000053fa40 f i item_subselect.obj
 0001:0013ea60       ?get_const_item_cache@Item_subselect@@QEAAHXZ 000000000053fa60 f i item_subselect.obj
 0001:0013ea80       ??0Item_singlerow_subselect@@QEAA@XZ 000000000053fa80 f i item_subselect.obj
 0001:0013eb00       ?reset_value_registration@Item_maxmin_subselect@@UEAAXXZ 000000000053fb00 f i item_subselect.obj
 0001:0013eb20       ??0select_max_min_finder_subselect@@QEAA@PEAVItem_subselect@@H@Z 000000000053fb20 f i item_subselect.obj
 0001:0013ebb0       ??_Gselect_max_min_finder_subselect@@UEAAPEAXI@Z 000000000053fbb0 f i item_subselect.obj
 0001:0013ebb0       ??_Eselect_max_min_finder_subselect@@UEAAPEAXI@Z 000000000053fbb0 f i item_subselect.obj
 0001:0013ec20       ??1select_max_min_finder_subselect@@UEAA@XZ 000000000053fc20 f i item_subselect.obj
 0001:0013ec60       ??_GItem_maxmin_subselect@@UEAAPEAXI@Z 000000000053fc60 f i item_subselect.obj
 0001:0013ec60       ??_EItem_maxmin_subselect@@UEAAPEAXI@Z 000000000053fc60 f i item_subselect.obj
 0001:0013ecd0       ??1Item_maxmin_subselect@@UEAA@XZ 000000000053fcd0 f i item_subselect.obj
 0001:0013ed10       ?type@subselect_engine@@QEAA?AW4Item_result@@XZ 000000000053fd10 f i item_subselect.obj
 0001:0013ed30       ?field_type@subselect_engine@@QEAA?AW4enum_field_types@@XZ 000000000053fd30 f i item_subselect.obj
 0001:0013ed50       ?substype@Item_exists_subselect@@UEAA?AW4subs_type@Item_subselect@@XZ 000000000053fd50 f i item_subselect.obj
 0001:0013ed60       ?reset@Item_exists_subselect@@UEAAXXZ 000000000053fd60 f i item_subselect.obj
 0001:0013ed80       ?result_type@Item_exists_subselect@@UEBA?AW4Item_result@@XZ 000000000053fd80 f i item_subselect.obj
 0001:0013ed90       ??_EItem_exists_subselect@@UEAAPEAXI@Z 000000000053fd90 f i item_subselect.obj
 0001:0013ed90       ??_GItem_exists_subselect@@UEAAPEAXI@Z 000000000053fd90 f i item_subselect.obj
 0001:0013ee00       ??1Item_exists_subselect@@UEAA@XZ 000000000053fe00 f i item_subselect.obj
 0001:0013ee40       ??0select_exists_subselect@@QEAA@PEAVItem_subselect@@@Z 000000000053fe40 f i item_subselect.obj
 0001:0013eeb0       ??_Eselect_exists_subselect@@UEAAPEAXI@Z 000000000053feb0 f i item_subselect.obj
 0001:0013eeb0       ??_Gselect_exists_subselect@@UEAAPEAXI@Z 000000000053feb0 f i item_subselect.obj
 0001:0013ef20       ??1select_exists_subselect@@UEAA@XZ 000000000053ff20 f i item_subselect.obj
 0001:0013ef60       ??0Item_exists_subselect@@QEAA@XZ 000000000053ff60 f i item_subselect.obj
 0001:0013efc0       ?have_guarded_conds@Item_in_subselect@@UEAAHXZ 000000000053ffc0 f i item_subselect.obj
 0001:0013f020       ?substype@Item_in_subselect@@UEAA?AW4subs_type@Item_subselect@@XZ 0000000000540020 f i item_subselect.obj
 0001:0013f030       ?reset@Item_in_subselect@@UEAAXXZ 0000000000540030 f i item_subselect.obj
 0001:0013f070       ?top_level_item@Item_in_subselect@@UEAAXXZ 0000000000540070 f i item_subselect.obj
 0001:0013f090       ??_GItem_in_subselect@@UEAAPEAXI@Z 0000000000540090 f i item_subselect.obj
 0001:0013f090       ??_EItem_in_subselect@@UEAAPEAXI@Z 0000000000540090 f i item_subselect.obj
 0001:0013f100       ??1Item_in_subselect@@UEAA@XZ 0000000000540100 f i item_subselect.obj
 0001:0013f140       ??0Item_in_subselect@@QEAA@XZ 0000000000540140 f i item_subselect.obj
 0001:0013f200       ?substype@Item_allany_subselect@@UEAA?AW4subs_type@Item_subselect@@XZ 0000000000540200 f i item_subselect.obj
 0001:0013f260       ??_EItem_allany_subselect@@UEAAPEAXI@Z 0000000000540260 f i item_subselect.obj
 0001:0013f260       ??_GItem_allany_subselect@@UEAAPEAXI@Z 0000000000540260 f i item_subselect.obj
 0001:0013f2d0       ??1Item_allany_subselect@@UEAA@XZ 00000000005402d0 f i item_subselect.obj
 0001:0013f310       ??0Item_ref_null_helper@@QEAA@PEAUName_resolution_context@@PEAVItem_in_subselect@@PEAPEAVItem@@PEBD3@Z 0000000000540310 f i item_subselect.obj
 0001:0013f3c0       ?used_tables@Item_ref_null_helper@@UEBA_KXZ 00000000005403c0 f i item_subselect.obj
 0001:0013f470       ??_GItem_ref_null_helper@@UEAAPEAXI@Z 0000000000540470 f i item_subselect.obj
 0001:0013f470       ??_EItem_ref_null_helper@@UEAAPEAXI@Z 0000000000540470 f i item_subselect.obj
 0001:0013f4e0       ??1Item_ref_null_helper@@UEAA@XZ 00000000005404e0 f i item_subselect.obj
 0001:0013f520       ??0Item_sum_min@@QEAA@PEAVItem@@@Z 0000000000540520 f i item_subselect.obj
 0001:0013f590       ?type@Item_sum@@UEBA?AW4Type@Item@@XZ 0000000000540590 f i item_subselect.obj
 0001:0013f5a0       ?fix_length_and_dec@Item_sum@@UEAAXXZ 00000000005405a0 f i item_subselect.obj
 0001:0013f5c0       ?result_item@Item_sum@@UEAAPEAVItem@@PEAVField@@@Z 00000000005405c0 f i item_subselect.obj
 0001:0013f6a0       ?used_tables@Item_sum@@UEBA_KXZ 00000000005406a0 f i item_subselect.obj
 0001:0013f6c0       ?is_null@Item_sum@@UEAAHXZ 00000000005406c0 f i item_subselect.obj
 0001:0013f6e0       ?const_item@Item_sum@@UEBAHXZ 00000000005406e0 f i item_subselect.obj
 0001:0013f700       ?setup@Item_sum@@UEAAHPEAVTHD@@@Z 0000000000540700 f i item_subselect.obj
 0001:0013f720       ?make_unique@Item_sum@@UEAAXXZ 0000000000540720 f i item_subselect.obj
 0001:0013f730       ??0Item_sum_hybrid@@QEAA@PEAVItem@@H@Z 0000000000540730 f i item_subselect.obj
 0001:0013f950       ??0Item_sum@@QEAA@PEAVItem@@@Z 0000000000540950 f i item_subselect.obj
 0001:0013fa70       ?keep_field_type@Item_sum@@UEBAHXZ 0000000000540a70 f i item_subselect.obj
 0001:0013fa80       ?cleanup@Item_sum@@UEAAXXZ 0000000000540a80 f i item_subselect.obj
 0001:0013fae0       ?no_rows_in_result@Item_sum@@UEAAXXZ 0000000000540ae0 f i item_subselect.obj
 0001:0013fb30       ??_EItem_sum@@UEAAPEAXI@Z  0000000000540b30 f i item_subselect.obj
 0001:0013fb30       ??_GItem_sum@@UEAAPEAXI@Z  0000000000540b30 f i item_subselect.obj
 0001:0013fba0       ??1Item_sum@@UEAA@XZ       0000000000540ba0 f i item_subselect.obj
 0001:0013fbe0       ?keep_field_type@Item_sum_hybrid@@UEBAHXZ 0000000000540be0 f i item_subselect.obj
 0001:0013fbf0       ?result_type@Item_sum_hybrid@@UEBA?AW4Item_result@@XZ 0000000000540bf0 f i item_subselect.obj
 0001:0013fc10       ?field_type@Item_sum_hybrid@@UEBA?AW4enum_field_types@@XZ 0000000000540c10 f i item_subselect.obj
 0001:0013fc30       ??_GItem_sum_hybrid@@UEAAPEAXI@Z 0000000000540c30 f i item_subselect.obj
 0001:0013fc30       ??_EItem_sum_hybrid@@UEAAPEAXI@Z 0000000000540c30 f i item_subselect.obj
 0001:0013fca0       ??1Item_sum_hybrid@@UEAA@XZ 0000000000540ca0 f i item_subselect.obj
 0001:0013fda0       ?sum_func@Item_sum_min@@UEBA?AW4Sumfunctype@Item_sum@@XZ 0000000000540da0 f i item_subselect.obj
 0001:0013fdb0       ?func_name@Item_sum_min@@UEBAPEBDXZ 0000000000540db0 f i item_subselect.obj
 0001:0013fdd0       ??_GItem_sum_min@@UEAAPEAXI@Z 0000000000540dd0 f i item_subselect.obj
 0001:0013fdd0       ??_EItem_sum_min@@UEAAPEAXI@Z 0000000000540dd0 f i item_subselect.obj
 0001:0013fe40       ??1Item_sum_min@@UEAA@XZ   0000000000540e40 f i item_subselect.obj
 0001:0013fe80       ??0Item_sum_max@@QEAA@PEAVItem@@@Z 0000000000540e80 f i item_subselect.obj
 0001:0013fef0       ?sum_func@Item_sum_max@@UEBA?AW4Sumfunctype@Item_sum@@XZ 0000000000540ef0 f i item_subselect.obj
 0001:0013ff00       ?func_name@Item_sum_max@@UEBAPEBDXZ 0000000000540f00 f i item_subselect.obj
 0001:0013ff20       ??_EItem_sum_max@@UEAAPEAXI@Z 0000000000540f20 f i item_subselect.obj
 0001:0013ff20       ??_GItem_sum_max@@UEAAPEAXI@Z 0000000000540f20 f i item_subselect.obj
 0001:0013ff90       ??1Item_sum_max@@UEAA@XZ   0000000000540f90 f i item_subselect.obj
 0001:0013ffd0       ?get_cache@Item_in_optimizer@@QEAAPEAPEAVItem_cache@@XZ 0000000000540fd0 f i item_subselect.obj
 0001:0013fff0       ??0Item_func_trig_cond@@QEAA@PEAVItem@@PEAH@Z 0000000000540ff0 f i item_subselect.obj
 0001:00140070       ?val_int@Item_func_trig_cond@@UEAA_JXZ 0000000000541070 f i item_subselect.obj
 0001:00140100       ?functype@Item_func_trig_cond@@UEBA?AW4Functype@Item_func@@XZ 0000000000541100 f i item_subselect.obj
 0001:00140110       ?func_name@Item_func_trig_cond@@UEBAPEBDXZ 0000000000541110 f i item_subselect.obj
 0001:00140130       ?const_item@Item_func_trig_cond@@UEBAHXZ 0000000000541130 f i item_subselect.obj
 0001:00140140       ??_GItem_func_trig_cond@@UEAAPEAXI@Z 0000000000541140 f i item_subselect.obj
 0001:00140140       ??_EItem_func_trig_cond@@UEAAPEAXI@Z 0000000000541140 f i item_subselect.obj
 0001:001401b0       ??1Item_func_trig_cond@@UEAA@XZ 00000000005411b0 f i item_subselect.obj
 0001:001401f0       ?top_level@Item_func_not_all@@QEAAHXZ 00000000005411f0 f i item_subselect.obj
 0001:00140210       ?set_sum_test@Item_func_not_all@@QEAAXPEAVItem_sum_hybrid@@@Z 0000000000541210 f i item_subselect.obj
 0001:00140240       ?set_sub_test@Item_func_not_all@@QEAAXPEAVItem_maxmin_subselect@@@Z 0000000000541240 f i item_subselect.obj
 0001:00140270       ??0Item_is_not_null_test@@QEAA@PEAVItem_in_subselect@@PEAVItem@@@Z 0000000000541270 f i item_subselect.obj
 0001:001402f0       ?functype@Item_is_not_null_test@@UEBA?AW4Functype@Item_func@@XZ 00000000005412f0 f i item_subselect.obj
 0001:00140300       ?func_name@Item_is_not_null_test@@UEBAPEBDXZ 0000000000541300 f i item_subselect.obj
 0001:00140320       ?used_tables@Item_is_not_null_test@@UEBA_KXZ 0000000000541320 f i item_subselect.obj
 0001:00140350       ??_EItem_is_not_null_test@@UEAAPEAXI@Z 0000000000541350 f i item_subselect.obj
 0001:00140350       ??_GItem_is_not_null_test@@UEAAPEAXI@Z 0000000000541350 f i item_subselect.obj
 0001:001403c0       ??1Item_is_not_null_test@@UEAA@XZ 00000000005413c0 f i item_subselect.obj
 0001:00140400       ??0Item_cond_or@@QEAA@PEAVItem@@0@Z 0000000000541400 f i item_subselect.obj
 0001:00140480       ?get_cond_guard@Item_in_subselect@@QEAAPEAHH@Z 0000000000541480 f i item_subselect.obj
 0001:00140500       ?and_items@@YAPEAVItem@@PEAV1@0@Z 0000000000541500 f i item_subselect.obj
 0001:00140600       ??0Item_in_optimizer@@QEAA@PEAVItem@@PEAVItem_in_subselect@@@Z 0000000000541600 f i item_subselect.obj
 0001:001406b0       ??0Item_bool_func@@QEAA@PEAVItem@@0@Z 00000000005416b0 f i item_subselect.obj
 0001:00140730       ?func_name@Item_in_optimizer@@UEBAPEBDXZ 0000000000541730 f i item_subselect.obj
 0001:00140750       ??_EItem_in_optimizer@@UEAAPEAXI@Z 0000000000541750 f i item_subselect.obj
 0001:00140750       ??_GItem_in_optimizer@@UEAAPEAXI@Z 0000000000541750 f i item_subselect.obj
 0001:001407c0       ??1Item_in_optimizer@@UEAA@XZ 00000000005417c0 f i item_subselect.obj
 0001:00140800       ?set_thd@select_result@@QEAAXPEAVTHD@@@Z 0000000000541800 f i item_subselect.obj
 0001:00140830       ??0subselect_engine@@QEAA@PEAVItem_subselect@@PEAVselect_subselect@@@Z 0000000000541830 f i item_subselect.obj
 0001:00140900       ??1subselect_engine@@UEAA@XZ 0000000000541900 f i item_subselect.obj
 0001:00140980       ?may_be_null@subselect_engine@@UEAAHXZ 0000000000541980 f i item_subselect.obj
 0001:001409a0       ?is_executed@subselect_engine@@UEBAHXZ 00000000005419a0 f i item_subselect.obj
 0001:001409b0       ??_Gsubselect_engine@@UEAAPEAXI@Z 00000000005419b0 f i item_subselect.obj
 0001:001409b0       ??_Esubselect_engine@@UEAAPEAXI@Z 00000000005419b0 f i item_subselect.obj
 0001:00140a20       ?is_executed@subselect_single_select_engine@@UEBAHXZ 0000000000541a20 f i item_subselect.obj
 0001:00140a40       ??_Gsubselect_single_select_engine@@UEAAPEAXI@Z 0000000000541a40 f i item_subselect.obj
 0001:00140a40       ??_Esubselect_single_select_engine@@UEAAPEAXI@Z 0000000000541a40 f i item_subselect.obj
 0001:00140ab0       ??1subselect_single_select_engine@@UEAA@XZ 0000000000541ab0 f i item_subselect.obj
 0001:00140af0       ??_Gsubselect_union_engine@@UEAAPEAXI@Z 0000000000541af0 f i item_subselect.obj
 0001:00140af0       ??_Esubselect_union_engine@@UEAAPEAXI@Z 0000000000541af0 f i item_subselect.obj
 0001:00140b60       ??1subselect_union_engine@@UEAA@XZ 0000000000541b60 f i item_subselect.obj
 0001:00140ba0       ??0JOIN@@QEAA@PEAVTHD@@AEAV?$List@VItem@@@@_KPEAVselect_result@@@Z 0000000000541ba0 f i item_subselect.obj
 0001:00141040       ??0TMP_TABLE_PARAM@@QEAA@XZ 0000000000542040 f i item_subselect.obj
 0001:001411c0       ??1TMP_TABLE_PARAM@@QEAA@XZ 00000000005421c0 f i item_subselect.obj
 0001:00141300       ?cleanup@TMP_TABLE_PARAM@@QEAAXXZ 0000000000542300 f i item_subselect.obj
 0001:001413c0       ??_ECopy_field@@QEAAPEAXI@Z 00000000005423c0 f i item_subselect.obj
 0001:001414a0       ??1Copy_field@@QEAA@XZ     00000000005424a0 f i item_subselect.obj
 0001:00141530       ?init@JOIN@@QEAAXPEAVTHD@@AEAV?$List@VItem@@@@_KPEAVselect_result@@@Z 0000000000542530 f i item_subselect.obj
 0001:00141b50       ??1?$List@VCached_item@@@@QEAA@XZ 0000000000542b50 f i item_subselect.obj
 0001:00141b90       ?assigned@Item_subselect@@QEAAHXZ 0000000000542b90 f i item_subselect.obj
 0001:00141bb0       ?assigned@Item_subselect@@QEAAXH@Z 0000000000542bb0 f i item_subselect.obj
 0001:00141bd0       ?copy@store_key@@QEAA?AW4store_key_result@1@XZ 0000000000542bd0 f i item_subselect.obj
 0001:00141c90       ?cols@subselect_uniquesubquery_engine@@UEAAIXZ 0000000000542c90 f i item_subselect.obj
 0001:00141ca0       ?uncacheable@subselect_uniquesubquery_engine@@UEAAEXZ 0000000000542ca0 f i item_subselect.obj
 0001:00141cb0       ?upper_select_const_tables@subselect_uniquesubquery_engine@@UEAA_KXZ 0000000000542cb0 f i item_subselect.obj
 0001:00141cc0       ?no_rows@subselect_uniquesubquery_engine@@UEAAHXZ 0000000000542cc0 f i item_subselect.obj
 0001:00141ce0       ??_Esubselect_uniquesubquery_engine@@UEAAPEAXI@Z 0000000000542ce0 f i item_subselect.obj
 0001:00141ce0       ??_Gsubselect_uniquesubquery_engine@@UEAAPEAXI@Z 0000000000542ce0 f i item_subselect.obj
 0001:00141d50       ?is_prepared@st_select_lex_unit@@QEAAHXZ 0000000000542d50 f i item_subselect.obj
 0001:00141d70       ?head@?$List@VItem@@@@QEAAPEAVItem@@XZ 0000000000542d70 f i item_subselect.obj
 0001:00141db0       ??0?$List@VCached_item@@@@QEAA@XZ 0000000000542db0 f i item_subselect.obj
 0001:00141e00       ??_9Item@@$BBMI@AA         0000000000542e00 f i item_subselect.obj
 0001:00141e10       ?init_sum_func_check@Item_sum@@QEAAHPEAVTHD@@@Z 0000000000542e10 f   item_sum.obj
 0001:00141f20       ?check_sum_func@Item_sum@@QEAAHPEAVTHD@@PEAPEAVItem@@@Z 0000000000542f20 f   item_sum.obj
 0001:001422a0       ?register_sum_func@Item_sum@@QEAAHPEAVTHD@@PEAPEAVItem@@@Z 00000000005432a0 f   item_sum.obj
 0001:001425b0       ??0Item_sum@@QEAA@AEAV?$List@VItem@@@@@Z 00000000005435b0 f   item_sum.obj
 0001:00142730       ??0Item_sum@@QEAA@PEAVTHD@@PEAV0@@Z 0000000000543730 f   item_sum.obj
 0001:001428f0       ?mark_as_sum_func@Item_sum@@QEAAXXZ 00000000005438f0 f   item_sum.obj
 0001:00142970       ?make_field@Item_sum@@UEAAXPEAVSend_field@@@Z 0000000000543970 f   item_sum.obj
 0001:00142ac0       ?print@Item_sum@@UEAAXPEAVString@@@Z 0000000000543ac0 f   item_sum.obj
 0001:00142b90       ?fix_num_length_and_dec@Item_sum@@QEAAXXZ 0000000000543b90 f   item_sum.obj
 0001:00142c60       ?get_tmp_table_item@Item_sum@@UEAAPEAVItem@@PEAVTHD@@@Z 0000000000543c60 f   item_sum.obj
 0001:00142e30       ?walk@Item_sum@@UEAAHP8Item@@EAAHPEAE@Z0@Z 0000000000543e30 f   item_sum.obj
 0001:00142f00       ?create_tmp_field@Item_sum@@UEAAPEAVField@@HPEAUst_table@@I@Z 0000000000543f00 f   item_sum.obj
 0001:00143350       ?update_used_tables@Item_sum@@UEAAXXZ 0000000000544350 f   item_sum.obj
 0001:001434b0       ?val_str@Item_sum_num@@UEAAPEAVString@@PEAV2@@Z 00000000005444b0 f   item_sum.obj
 0001:00143500       ?val_decimal@Item_sum_num@@UEAAPEAVmy_decimal@@PEAV2@@Z 0000000000544500 f   item_sum.obj
 0001:00143550       ?val_str@Item_sum_int@@UEAAPEAVString@@PEAV2@@Z 0000000000544550 f   item_sum.obj
 0001:001435a0       ?val_decimal@Item_sum_int@@UEAAPEAVmy_decimal@@PEAV2@@Z 00000000005445a0 f   item_sum.obj
 0001:001435f0       ?fix_fields@Item_sum_num@@UEAAHPEAVTHD@@PEAPEAVItem@@@Z 00000000005445f0 f   item_sum.obj
 0001:00143830       ??0Item_sum_hybrid@@QEAA@PEAVTHD@@PEAV0@@Z 0000000000544830 f   item_sum.obj
 0001:00143a90       ?fix_fields@Item_sum_hybrid@@UEAAHPEAVTHD@@PEAPEAVItem@@@Z 0000000000544a90 f   item_sum.obj
 0001:00143d70       ?create_tmp_field@Item_sum_hybrid@@UEAAPEAVField@@HPEAUst_table@@I@Z 0000000000544d70 f   item_sum.obj
 0001:001440f0       ??0Item_sum_sum@@QEAA@PEAVTHD@@PEAV0@@Z 00000000005450f0 f   item_sum.obj
 0001:00144240       ?copy_or_same@Item_sum_sum@@UEAAPEAVItem@@PEAVTHD@@@Z 0000000000545240 f   item_sum.obj
 0001:00144310       ?clear@Item_sum_sum@@UEAAXXZ 0000000000545310 f   item_sum.obj
 0001:00144420       ?fix_length_and_dec@Item_sum_sum@@MEAAXXZ 0000000000545420 f   item_sum.obj
 0001:00144740       ?add@Item_sum_sum@@UEAAHXZ 0000000000545740 f   item_sum.obj
 0001:00144970       ?val_int@Item_sum_sum@@UEAA_JXZ 0000000000545970 f   item_sum.obj
 0001:00144a50       ?val_real@Item_sum_sum@@UEAANXZ 0000000000545a50 f   item_sum.obj
 0001:00144b00       ?val_str@Item_sum_sum@@UEAAPEAVString@@PEAV2@@Z 0000000000545b00 f   item_sum.obj
 0001:00144b70       ?val_decimal@Item_sum_sum@@UEAAPEAVmy_decimal@@PEAV2@@Z 0000000000545b70 f   item_sum.obj
 0001:00144be0       ??0Item_sum_distinct@@QEAA@PEAVItem@@@Z 0000000000545be0 f   item_sum.obj
 0001:00144ca0       ??0Item_sum_distinct@@IEAA@PEAVTHD@@PEAV0@@Z 0000000000545ca0 f   item_sum.obj
 0001:00144d90       ?instance@Hybrid_type_traits_fast_decimal@@SAPEBU1@XZ 0000000000545d90 f   item_sum.obj
 0001:00144db0       ?fix_length_and_dec@Item_sum_distinct@@UEAAXXZ 0000000000545db0 f   item_sum.obj
 0001:00144fa0       ?setup@Item_sum_distinct@@UEAAHPEAVTHD@@@Z 0000000000545fa0 f   item_sum.obj
 0001:00145490       ?add@Item_sum_distinct@@UEAAHXZ 0000000000546490 f   item_sum.obj
 0001:001455a0       ?unique_walk_function@Item_sum_distinct@@UEAAHPEAX@Z 00000000005465a0 f   item_sum.obj
 0001:00145680       ?clear@Item_sum_distinct@@UEAAXXZ 0000000000546680 f   item_sum.obj
 0001:00145790       ?cleanup@Item_sum_distinct@@UEAAXXZ 0000000000546790 f   item_sum.obj
 0001:00145840       ??1Item_sum_distinct@@UEAA@XZ 0000000000546840 f   item_sum.obj
 0001:00145900       ?calculate_val_and_count@Item_sum_distinct@@UEAAXXZ 0000000000546900 f   item_sum.obj
 0001:00145a40       ?val_real@Item_sum_distinct@@UEAANXZ 0000000000546a40 f   item_sum.obj
 0001:00145ad0       ?val_decimal@Item_sum_distinct@@UEAAPEAVmy_decimal@@PEAV2@@Z 0000000000546ad0 f   item_sum.obj
 0001:00145b70       ?val_int@Item_sum_distinct@@UEAA_JXZ 0000000000546b70 f   item_sum.obj
 0001:00145c10       ?val_str@Item_sum_distinct@@UEAAPEAVString@@PEAV2@@Z 0000000000546c10 f   item_sum.obj
 0001:00145cc0       ?fix_length_and_dec@Item_sum_avg_distinct@@UEAAXXZ 0000000000546cc0 f   item_sum.obj
 0001:00145d60       ?calculate_val_and_count@Item_sum_avg_distinct@@UEAAXXZ 0000000000546d60 f   item_sum.obj
 0001:00145e20       ?copy_or_same@Item_sum_count@@UEAAPEAVItem@@PEAVTHD@@@Z 0000000000546e20 f   item_sum.obj
 0001:00145ef0       ?clear@Item_sum_count@@UEAAXXZ 0000000000546ef0 f   item_sum.obj
 0001:00145f10       ?add@Item_sum_count@@UEAAHXZ 0000000000546f10 f   item_sum.obj
 0001:00145fa0       ?val_int@Item_sum_count@@UEAA_JXZ 0000000000546fa0 f   item_sum.obj
 0001:00146010       ?cleanup@Item_sum_count@@UEAAXXZ 0000000000547010 f   item_sum.obj
 0001:001460e0       ?fix_length_and_dec@Item_sum_avg@@UEAAXXZ 00000000005470e0 f   item_sum.obj
 0001:001462f0       ?copy_or_same@Item_sum_avg@@UEAAPEAVItem@@PEAVTHD@@@Z 00000000005472f0 f   item_sum.obj
 0001:001463c0       ?create_tmp_field@Item_sum_avg@@UEAAPEAVField@@HPEAUst_table@@I@Z 00000000005473c0 f   item_sum.obj
 0001:001466a0       ?clear@Item_sum_avg@@UEAAXXZ 00000000005476a0 f   item_sum.obj
 0001:001466f0       ?add@Item_sum_avg@@UEAAHXZ 00000000005476f0 f   item_sum.obj
 0001:00146770       ?val_real@Item_sum_avg@@UEAANXZ 0000000000547770 f   item_sum.obj
 0001:00146820       ?val_decimal@Item_sum_avg@@UEAAPEAVmy_decimal@@PEAV2@@Z 0000000000547820 f   item_sum.obj
 0001:00146960       ?val_str@Item_sum_avg@@UEAAPEAVString@@PEAV2@@Z 0000000000547960 f   item_sum.obj
 0001:001469d0       ?val_real@Item_sum_std@@UEAANXZ 00000000005479d0 f   item_sum.obj
 0001:00146a70       ?copy_or_same@Item_sum_std@@UEAAPEAVItem@@PEAVTHD@@@Z 0000000000547a70 f   item_sum.obj
 0001:00146b40       ??0Item_sum_variance@@QEAA@PEAVTHD@@PEAV0@@Z 0000000000547b40 f   item_sum.obj
 0001:00146c30       ?fix_length_and_dec@Item_sum_variance@@EEAAXXZ 0000000000547c30 f   item_sum.obj
 0001:00146f30       ?copy_or_same@Item_sum_variance@@UEAAPEAVItem@@PEAVTHD@@@Z 0000000000547f30 f   item_sum.obj
 0001:00147000       ?create_tmp_field@Item_sum_variance@@UEAAPEAVField@@HPEAUst_table@@I@Z 0000000000548000 f   item_sum.obj
 0001:001471b0       ?clear@Item_sum_variance@@UEAAXXZ 00000000005481b0 f   item_sum.obj
 0001:001471d0       ?add@Item_sum_variance@@UEAAHXZ 00000000005481d0 f   item_sum.obj
 0001:00147390       ?val_real@Item_sum_variance@@UEAANXZ 0000000000548390 f   item_sum.obj
 0001:00147520       ?val_decimal@Item_sum_variance@@UEAAPEAVmy_decimal@@PEAV2@@Z 0000000000548520 f   item_sum.obj
 0001:00147590       ?reset_field@Item_sum_variance@@UEAAXXZ 0000000000548590 f   item_sum.obj
 0001:00147730       ?update_field@Item_sum_variance@@UEAAXXZ 0000000000548730 f   item_sum.obj
 0001:00147990       ?clear@Item_sum_hybrid@@UEAAXXZ 0000000000548990 f   item_sum.obj
 0001:00147a40       ?val_real@Item_sum_hybrid@@UEAANXZ 0000000000548a40 f   item_sum.obj
 0001:00147cd0       ?val_int@Item_sum_hybrid@@UEAA_JXZ 0000000000548cd0 f   item_sum.obj
 0001:00147dd0       ?val_decimal@Item_sum_hybrid@@UEAAPEAVmy_decimal@@PEAV2@@Z 0000000000548dd0 f   item_sum.obj
 0001:00147f10       ?val_str@Item_sum_hybrid@@UEAAPEAVString@@PEAV2@@Z 0000000000548f10 f   item_sum.obj
 0001:001480a0       ?cleanup@Item_sum_hybrid@@UEAAXXZ 00000000005490a0 f   item_sum.obj
 0001:00148180       ?no_rows_in_result@Item_sum_hybrid@@UEAAXXZ 0000000000549180 f   item_sum.obj
 0001:001481e0       ?copy_or_same@Item_sum_min@@UEAAPEAVItem@@PEAVTHD@@@Z 00000000005491e0 f   item_sum.obj
 0001:001482b0       ?add@Item_sum_min@@UEAAHXZ 00000000005492b0 f   item_sum.obj
 0001:00148660       ?copy_or_same@Item_sum_max@@UEAAPEAVItem@@PEAVTHD@@@Z 0000000000549660 f   item_sum.obj
 0001:00148730       ?add@Item_sum_max@@UEAAHXZ 0000000000549730 f   item_sum.obj
 0001:00148ae0       ?val_int@Item_sum_bit@@UEAA_JXZ 0000000000549ae0 f   item_sum.obj
 0001:00148b50       ?clear@Item_sum_bit@@UEAAXXZ 0000000000549b50 f   item_sum.obj
 0001:00148b80       ?copy_or_same@Item_sum_or@@UEAAPEAVItem@@PEAVTHD@@@Z 0000000000549b80 f   item_sum.obj
 0001:00148c50       ?add@Item_sum_or@@UEAAHXZ  0000000000549c50 f   item_sum.obj
 0001:00148ce0       ?copy_or_same@Item_sum_xor@@UEAAPEAVItem@@PEAVTHD@@@Z 0000000000549ce0 f   item_sum.obj
 0001:00148db0       ?add@Item_sum_xor@@UEAAHXZ 0000000000549db0 f   item_sum.obj
 0001:00148e40       ?copy_or_same@Item_sum_and@@UEAAPEAVItem@@PEAVTHD@@@Z 0000000000549e40 f   item_sum.obj
 0001:00148f10       ?add@Item_sum_and@@UEAAHXZ 0000000000549f10 f   item_sum.obj
 0001:00148fa0       ?reset_field@Item_sum_num@@UEAAXXZ 0000000000549fa0 f   item_sum.obj
 0001:00149080       ?reset_field@Item_sum_hybrid@@UEAAXXZ 000000000054a080 f   item_sum.obj
 0001:00149570       ?reset_field@Item_sum_sum@@UEAAXXZ 000000000054a570 f   item_sum.obj
 0001:00149700       ?reset_field@Item_sum_count@@UEAAXXZ 000000000054a700 f   item_sum.obj
 0001:00149830       ?reset_field@Item_sum_avg@@UEAAXXZ 000000000054a830 f   item_sum.obj
 0001:00149b80       ?reset_field@Item_sum_bit@@UEAAXXZ 000000000054ab80 f   item_sum.obj
 0001:00149cb0       ?update_field@Item_sum_bit@@UEAAXXZ 000000000054acb0 f   item_sum.obj
 0001:00149e30       ?update_field@Item_sum_sum@@UEAAXXZ 000000000054ae30 f   item_sum.obj
 0001:0014a0b0       ?update_field@Item_sum_count@@UEAAXXZ 000000000054b0b0 f   item_sum.obj
 0001:0014a250       ?update_field@Item_sum_avg@@UEAAXXZ 000000000054b250 f   item_sum.obj
 0001:0014a790       ?update_field@Item_sum_hybrid@@UEAAXXZ 000000000054b790 f   item_sum.obj
 0001:0014a820       ?min_max_update_str_field@Item_sum_hybrid@@QEAAXXZ 000000000054b820 f   item_sum.obj
 0001:0014a990       ?min_max_update_real_field@Item_sum_hybrid@@QEAAXXZ 000000000054b990 f   item_sum.obj
 0001:0014ab00       ?min_max_update_int_field@Item_sum_hybrid@@QEAAXXZ 000000000054bb00 f   item_sum.obj
 0001:0014ace0       ?min_max_update_decimal_field@Item_sum_hybrid@@QEAAXXZ 000000000054bce0 f   item_sum.obj
 0001:0014af00       ??0Item_avg_field@@QEAA@W4Item_result@@PEAVItem_sum_avg@@@Z 000000000054bf00 f   item_sum.obj
 0001:0014b030       ?val_real@Item_avg_field@@UEAANXZ 000000000054c030 f   item_sum.obj
 0001:0014b190       ?val_int@Item_avg_field@@UEAA_JXZ 000000000054c190 f   item_sum.obj
 0001:0014b1e0       ?val_decimal@Item_avg_field@@UEAAPEAVmy_decimal@@PEAV2@@Z 000000000054c1e0 f   item_sum.obj
 0001:0014b4a0       ?val_str@Item_avg_field@@UEAAPEAVString@@PEAV2@@Z 000000000054c4a0 f   item_sum.obj
 0001:0014b510       ??0Item_std_field@@QEAA@PEAVItem_sum_std@@@Z 000000000054c510 f   item_sum.obj
 0001:0014b570       ?val_real@Item_std_field@@UEAANXZ 000000000054c570 f   item_sum.obj
 0001:0014b5f0       ?val_decimal@Item_std_field@@UEAAPEAVmy_decimal@@PEAV2@@Z 000000000054c5f0 f   item_sum.obj
 0001:0014b760       ??0Item_variance_field@@QEAA@PEAVItem_sum_variance@@@Z 000000000054c760 f   item_sum.obj
 0001:0014b8f0       ?val_real@Item_variance_field@@UEAANXZ 000000000054c8f0 f   item_sum.obj
 0001:0014ba90       ?simple_str_key_cmp@@YAHPEAXPEAE1@Z 000000000054ca90 f   item_sum.obj
 0001:0014baf0       ?composite_key_cmp@@YAHPEAXPEAE1@Z 000000000054caf0 f   item_sum.obj
 0001:0014bc30       ?cleanup@Item_sum_count_distinct@@UEAAXXZ 000000000054cc30 f   item_sum.obj
 0001:0014be50       ?make_unique@Item_sum_count_distinct@@UEAAXXZ 000000000054ce50 f   item_sum.obj
 0001:0014bed0       ??1Item_sum_count_distinct@@UEAA@XZ 000000000054ced0 f   item_sum.obj
 0001:0014bf60       ?setup@Item_sum_count_distinct@@UEAAHPEAVTHD@@@Z 000000000054cf60 f   item_sum.obj
 0001:0014c8a0       ?copy_or_same@Item_sum_count_distinct@@UEAAPEAVItem@@PEAVTHD@@@Z 000000000054d8a0 f   item_sum.obj
 0001:0014c970       ?clear@Item_sum_count_distinct@@UEAAXXZ 000000000054d970 f   item_sum.obj
 0001:0014ca70       ?add@Item_sum_count_distinct@@UEAAHXZ 000000000054da70 f   item_sum.obj
 0001:0014cc00       ?val_int@Item_sum_count_distinct@@UEAA_JXZ 000000000054dc00 f   item_sum.obj
 0001:0014cdd0       ?clear@Item_udf_sum@@UEAAXXZ 000000000054ddd0 f   item_sum.obj
 0001:0014cea0       ?add@Item_udf_sum@@UEAAHXZ 000000000054dea0 f   item_sum.obj
 0001:0014cf80       ?cleanup@Item_udf_sum@@UEAAXXZ 000000000054df80 f   item_sum.obj
 0001:0014cfd0       ?print@Item_udf_sum@@UEAAXPEAVString@@@Z 000000000054dfd0 f   item_sum.obj
 0001:0014d0b0       ?copy_or_same@Item_sum_udf_float@@UEAAPEAVItem@@PEAVTHD@@@Z 000000000054e0b0 f   item_sum.obj
 0001:0014d180       ?val_real@Item_sum_udf_float@@UEAANXZ 000000000054e180 f   item_sum.obj
 0001:0014d2f0       ?val_str@Item_sum_udf_float@@UEAAPEAVString@@PEAV2@@Z 000000000054e2f0 f   item_sum.obj
 0001:0014d340       ?val_decimal@Item_sum_udf_float@@UEAAPEAVmy_decimal@@PEAV2@@Z 000000000054e340 f   item_sum.obj
 0001:0014d390       ?val_str@Item_sum_udf_decimal@@UEAAPEAVString@@PEAV2@@Z 000000000054e390 f   item_sum.obj
 0001:0014d3e0       ?val_real@Item_sum_udf_decimal@@UEAANXZ 000000000054e3e0 f   item_sum.obj
 0001:0014d420       ?val_int@Item_sum_udf_decimal@@UEAA_JXZ 000000000054e420 f   item_sum.obj
 0001:0014d460       ?val_decimal@Item_sum_udf_decimal@@UEAAPEAVmy_decimal@@PEAV2@@Z 000000000054e460 f   item_sum.obj
 0001:0014d5d0       ?copy_or_same@Item_sum_udf_decimal@@UEAAPEAVItem@@PEAVTHD@@@Z 000000000054e5d0 f   item_sum.obj
 0001:0014d6a0       ?copy_or_same@Item_sum_udf_int@@UEAAPEAVItem@@PEAVTHD@@@Z 000000000054e6a0 f   item_sum.obj
 0001:0014d770       ?val_int@Item_sum_udf_int@@UEAA_JXZ 000000000054e770 f   item_sum.obj
 0001:0014d8e0       ?val_str@Item_sum_udf_int@@UEAAPEAVString@@PEAV2@@Z 000000000054e8e0 f   item_sum.obj
 0001:0014d930       ?val_decimal@Item_sum_udf_int@@UEAAPEAVmy_decimal@@PEAV2@@Z 000000000054e930 f   item_sum.obj
 0001:0014d980       ?fix_length_and_dec@Item_sum_udf_str@@UEAAXXZ 000000000054e980 f   item_sum.obj
 0001:0014dad0       ?copy_or_same@Item_sum_udf_str@@UEAAPEAVItem@@PEAVTHD@@@Z 000000000054ead0 f   item_sum.obj
 0001:0014dba0       ?val_decimal@Item_sum_udf_str@@UEAAPEAVmy_decimal@@PEAV2@@Z 000000000054eba0 f   item_sum.obj
 0001:0014dbf0       ?val_str@Item_sum_udf_str@@UEAAPEAVString@@PEAV2@@Z 000000000054ebf0 f   item_sum.obj
 0001:0014dd40       ?group_concat_key_cmp_with_distinct@@YAHPEAXPEAE1@Z 000000000054ed40 f   item_sum.obj
 0001:0014dea0       ?group_concat_key_cmp_with_order@@YAHPEAXPEAE1@Z 000000000054eea0 f   item_sum.obj
 0001:0014e040       ?group_concat_key_cmp_with_distinct_and_order@@YAHPEAXPEAE1@Z 000000000054f040 f   item_sum.obj
 0001:0014e0b0       ?dump_leaf_key@@YAHPEAEKPEAVItem_func_group_concat@@@Z 000000000054f0b0 f   item_sum.obj
 0001:0014e530       ??0Item_func_group_concat@@QEAA@PEAUName_resolution_context@@HPEAV?$List@VItem@@@@PEAUst_sql_list@@PEAVString@@@Z 000000000054f530 f   item_sum.obj
 0001:0014e930       ??0Item_func_group_concat@@QEAA@PEAVTHD@@PEAV0@@Z 000000000054f930 f   item_sum.obj
 0001:0014eb90       ?cleanup@Item_func_group_concat@@UEAAXXZ 000000000054fb90 f   item_sum.obj
 0001:0014eeb0       ?copy_or_same@Item_func_group_concat@@UEAAPEAVItem@@PEAVTHD@@@Z 000000000054feb0 f   item_sum.obj
 0001:0014ef80       ?clear@Item_func_group_concat@@UEAAXXZ 000000000054ff80 f   item_sum.obj
 0001:0014f020       ?add@Item_func_group_concat@@UEAAHXZ 0000000000550020 f   item_sum.obj
 0001:0014f220       ?fix_fields@Item_func_group_concat@@UEAAHPEAVTHD@@PEAPEAVItem@@@Z 0000000000550220 f   item_sum.obj
 0001:0014f780       ?setup@Item_func_group_concat@@UEAAHPEAVTHD@@@Z 0000000000550780 f   item_sum.obj
 0001:00150060       ?make_unique@Item_func_group_concat@@UEAAXXZ 0000000000551060 f   item_sum.obj
 0001:001500c0       ?val_str@Item_func_group_concat@@UEAAPEAVString@@PEAV2@@Z 00000000005510c0 f   item_sum.obj
 0001:00150210       ?print@Item_func_group_concat@@UEAAXPEAVString@@@Z 0000000000551210 f   item_sum.obj
 0001:00153db0       ??0Field_double@@QEAA@KHPEBDPEAUst_table@@ED@Z 0000000000554db0 f i item_sum.obj
 0001:00153ee0       ??0Item_sum_num@@QEAA@PEAVTHD@@PEAV0@@Z 0000000000554ee0 f i item_sum.obj
 0001:00153f70       ?val_int@Item_sum_num@@UEAA_JXZ 0000000000554f70 f i item_sum.obj
 0001:00154000       ??_EItem_sum_num@@UEAAPEAXI@Z 0000000000555000 f i item_sum.obj
 0001:00154000       ??_GItem_sum_num@@UEAAPEAXI@Z 0000000000555000 f i item_sum.obj
 0001:00154070       ??1Item_sum_num@@UEAA@XZ   0000000000555070 f i item_sum.obj
 0001:001540b0       ?sum_func@Item_sum_sum@@UEBA?AW4Sumfunctype@Item_sum@@XZ 00000000005550b0 f i item_sum.obj
 0001:001540c0       ?result_type@Item_sum_sum@@UEBA?AW4Item_result@@XZ 00000000005550c0 f i item_sum.obj
 0001:001540e0       ?no_rows_in_result@Item_sum_sum@@UEAAXXZ 00000000005550e0 f i item_sum.obj
 0001:001540f0       ?func_name@Item_sum_sum@@UEBAPEBDXZ 00000000005550f0 f i item_sum.obj
 0001:00154110       ??_GItem_sum_sum@@UEAAPEAXI@Z 0000000000555110 f i item_sum.obj
 0001:00154110       ??_EItem_sum_sum@@UEAAPEAXI@Z 0000000000555110 f i item_sum.obj
 0001:00154180       ??1Item_sum_sum@@UEAA@XZ   0000000000555180 f i item_sum.obj
 0001:001541c0       ??2Item@@SAPEAX_KPEAUst_mem_root@@@Z 00000000005551c0 f i item_sum.obj
 0001:00154210       ??3Item@@SAXPEAXPEAUst_mem_root@@@Z 0000000000555210 f i item_sum.obj
 0001:00154220       ??0Hybrid_type@@QEAA@XZ    0000000000555220 f i item_sum.obj
 0001:00154290       ??0Item_sum_num@@QEAA@PEAVItem@@@Z 0000000000555290 f i item_sum.obj
 0001:00154310       ?sum_func@Item_sum_distinct@@UEBA?AW4Sumfunctype@Item_sum@@XZ 0000000000555310 f i item_sum.obj
 0001:00154320       ?reset_field@Item_sum_distinct@@UEAAXXZ 0000000000555320 f i item_sum.obj
 0001:00154330       ?update_field@Item_sum_distinct@@UEAAXXZ 0000000000555330 f i item_sum.obj
 0001:00154340       ?no_rows_in_result@Item_sum_distinct@@UEAAXXZ 0000000000555340 f i item_sum.obj
 0001:00154350       ?result_type@Item_sum_distinct@@UEBA?AW4Item_result@@XZ 0000000000555350 f i item_sum.obj
 0001:001543b0       ??_EItem_sum_distinct@@UEAAPEAXI@Z 00000000005553b0 f i item_sum.obj
 0001:001543b0       ??_GItem_sum_distinct@@UEAAPEAXI@Z 00000000005553b0 f i item_sum.obj
 0001:00154420       ??0Hybrid_type@@QEAA@AEBU0@@Z 0000000000555420 f i item_sum.obj
 0001:001544b0       ??0create_field@@QEAA@XZ   00000000005554b0 f i item_sum.obj
 0001:00154570       ??1create_field@@QEAA@XZ   0000000000555570 f i item_sum.obj
 0001:00154600       ?unique_add@Unique@@QEAAHPEAX@Z 0000000000555600 f i item_sum.obj
 0001:00154810       ??_GUnique@@QEAAPEAXI@Z    0000000000555810 f i item_sum.obj
 0001:00154880       ??0Item_sum_count@@QEAA@PEAVTHD@@PEAV0@@Z 0000000000555880 f i item_sum.obj
 0001:00154910       ??0Item_sum_int@@QEAA@PEAVTHD@@PEAV0@@Z 0000000000555910 f i item_sum.obj
 0001:00154990       ?val_real@Item_sum_int@@UEAANXZ 0000000000555990 f i item_sum.obj
 0001:00154a10       ?result_type@Item_sum_int@@UEBA?AW4Item_result@@XZ 0000000000555a10 f i item_sum.obj
 0001:00154a20       ?fix_length_and_dec@Item_sum_int@@UEAAXXZ 0000000000555a20 f i item_sum.obj
 0001:00154a60       ??_GItem_sum_int@@UEAAPEAXI@Z 0000000000555a60 f i item_sum.obj
 0001:00154a60       ??_EItem_sum_int@@UEAAPEAXI@Z 0000000000555a60 f i item_sum.obj
 0001:00154ad0       ??1Item_sum_int@@UEAA@XZ   0000000000555ad0 f i item_sum.obj
 0001:00154b10       ?sum_func@Item_sum_count@@UEBA?AW4Sumfunctype@Item_sum@@XZ 0000000000555b10 f i item_sum.obj
 0001:00154b20       ?no_rows_in_result@Item_sum_count@@UEAAXXZ 0000000000555b20 f i item_sum.obj
 0001:00154b40       ?func_name@Item_sum_count@@UEBAPEBDXZ 0000000000555b40 f i item_sum.obj
 0001:00154b60       ??_EItem_sum_count@@UEAAPEAXI@Z 0000000000555b60 f i item_sum.obj
 0001:00154b60       ??_GItem_sum_count@@UEAAPEAXI@Z 0000000000555b60 f i item_sum.obj
 0001:00154bd0       ??1Item_sum_count@@UEAA@XZ 0000000000555bd0 f i item_sum.obj
 0001:00154c10       ??0Item_sum_avg@@QEAA@PEAVTHD@@PEAV0@@Z 0000000000555c10 f i item_sum.obj
 0001:00154cc0       ?sum_func@Item_sum_avg@@UEBA?AW4Sumfunctype@Item_sum@@XZ 0000000000555cc0 f i item_sum.obj
 0001:00154cd0       ?val_int@Item_sum_avg@@UEAA_JXZ 0000000000555cd0 f i item_sum.obj
 0001:00154d30       ?result_item@Item_sum_avg@@UEAAPEAVItem@@PEAVField@@@Z 0000000000555d30 f i item_sum.obj
 0001:00154e20       ?no_rows_in_result@Item_sum_avg@@UEAAXXZ 0000000000555e20 f i item_sum.obj
 0001:00154e30       ?func_name@Item_sum_avg@@UEBAPEBDXZ 0000000000555e30 f i item_sum.obj
 0001:00154e50       ?cleanup@Item_sum_avg@@UEAAXXZ 0000000000555e50 f i item_sum.obj
 0001:00154eb0       ??_EItem_sum_avg@@UEAAPEAXI@Z 0000000000555eb0 f i item_sum.obj
 0001:00154eb0       ??_GItem_sum_avg@@UEAAPEAXI@Z 0000000000555eb0 f i item_sum.obj
 0001:00154f20       ??1Item_sum_avg@@UEAA@XZ   0000000000555f20 f i item_sum.obj
 0001:00154f60       ??0Item_sum_std@@QEAA@PEAVTHD@@PEAV0@@Z 0000000000555f60 f i item_sum.obj
 0001:00154fe0       ?no_rows_in_result@Item_sum_variance@@UEAAXXZ 0000000000555fe0 f i item_sum.obj
 0001:00154ff0       ?cleanup@Item_sum_variance@@UEAAXXZ 0000000000555ff0 f i item_sum.obj
 0001:00155050       ?sum_func@Item_sum_std@@UEBA?AW4Sumfunctype@Item_sum@@XZ 0000000000556050 f i item_sum.obj
 0001:00155060       ?result_item@Item_sum_std@@UEAAPEAVItem@@PEAVField@@@Z 0000000000556060 f i item_sum.obj
 0001:00155140       ?func_name@Item_sum_std@@UEBAPEBDXZ 0000000000556140 f i item_sum.obj
 0001:00155160       ?result_type@Item_sum_std@@UEBA?AW4Item_result@@XZ 0000000000556160 f i item_sum.obj
 0001:00155170       ?field_type@Item_sum_std@@UEBA?AW4enum_field_types@@XZ 0000000000556170 f i item_sum.obj
 0001:00155180       ??_GItem_sum_std@@UEAAPEAXI@Z 0000000000556180 f i item_sum.obj
 0001:00155180       ??_EItem_sum_std@@UEAAPEAXI@Z 0000000000556180 f i item_sum.obj
 0001:001551f0       ??1Item_sum_std@@UEAA@XZ   00000000005561f0 f i item_sum.obj
 0001:00155230       ??1Item_sum_variance@@UEAA@XZ 0000000000556230 f i item_sum.obj
 0001:00155270       ?sum_func@Item_sum_variance@@UEBA?AW4Sumfunctype@Item_sum@@XZ 0000000000556270 f i item_sum.obj
 0001:00155280       ?result_item@Item_sum_variance@@UEAAPEAVItem@@PEAVField@@@Z 0000000000556280 f i item_sum.obj
 0001:00155360       ?func_name@Item_sum_variance@@UEBAPEBDXZ 0000000000556360 f i item_sum.obj
 0001:001553d0       ?result_type@Item_sum_variance@@UEBA?AW4Item_result@@XZ 00000000005563d0 f i item_sum.obj
 0001:001553e0       ??_GItem_sum_variance@@UEAAPEAXI@Z 00000000005563e0 f i item_sum.obj
 0001:001553e0       ??_EItem_sum_variance@@UEAAPEAXI@Z 00000000005563e0 f i item_sum.obj
 0001:00155450       ??0Item_sum_min@@QEAA@PEAVTHD@@PEAV0@@Z 0000000000556450 f i item_sum.obj
 0001:001554d0       ??0Item_sum_max@@QEAA@PEAVTHD@@PEAV0@@Z 00000000005564d0 f i item_sum.obj
 0001:00155550       ??0Item_sum_or@@QEAA@PEAVTHD@@PEAV0@@Z 0000000000556550 f i item_sum.obj
 0001:001555d0       ??0Item_sum_bit@@QEAA@PEAVTHD@@PEAV0@@Z 00000000005565d0 f i item_sum.obj
 0001:00155680       ?sum_func@Item_sum_bit@@UEBA?AW4Sumfunctype@Item_sum@@XZ 0000000000556680 f i item_sum.obj
 0001:00155690       ?fix_length_and_dec@Item_sum_bit@@UEAAXXZ 0000000000556690 f i item_sum.obj
 0001:001556e0       ?cleanup@Item_sum_bit@@UEAAXXZ 00000000005566e0 f i item_sum.obj
 0001:00155740       ??_GItem_sum_bit@@UEAAPEAXI@Z 0000000000556740 f i item_sum.obj
 0001:00155740       ??_EItem_sum_bit@@UEAAPEAXI@Z 0000000000556740 f i item_sum.obj
 0001:001557b0       ??1Item_sum_bit@@UEAA@XZ   00000000005567b0 f i item_sum.obj
 0001:001557f0       ?func_name@Item_sum_or@@UEBAPEBDXZ 00000000005567f0 f i item_sum.obj
 0001:00155810       ??_GItem_sum_or@@UEAAPEAXI@Z 0000000000556810 f i item_sum.obj
 0001:00155810       ??_EItem_sum_or@@UEAAPEAXI@Z 0000000000556810 f i item_sum.obj
 0001:00155880       ??1Item_sum_or@@UEAA@XZ    0000000000556880 f i item_sum.obj
 0001:001558c0       ??0Item_sum_xor@@QEAA@PEAVTHD@@PEAV0@@Z 00000000005568c0 f i item_sum.obj
 0001:00155940       ?func_name@Item_sum_xor@@UEBAPEBDXZ 0000000000556940 f i item_sum.obj
 0001:00155960       ??_GItem_sum_xor@@UEAAPEAXI@Z 0000000000556960 f i item_sum.obj
 0001:00155960       ??_EItem_sum_xor@@UEAAPEAXI@Z 0000000000556960 f i item_sum.obj
 0001:001559d0       ??1Item_sum_xor@@UEAA@XZ   00000000005569d0 f i item_sum.obj
 0001:00155a10       ??0Item_sum_and@@QEAA@PEAVTHD@@PEAV0@@Z 0000000000556a10 f i item_sum.obj
 0001:00155a90       ?func_name@Item_sum_and@@UEBAPEBDXZ 0000000000556a90 f i item_sum.obj
 0001:00155ab0       ??_EItem_sum_and@@UEAAPEAXI@Z 0000000000556ab0 f i item_sum.obj
 0001:00155ab0       ??_GItem_sum_and@@UEAAPEAXI@Z 0000000000556ab0 f i item_sum.obj
 0001:00155b20       ??1Item_sum_and@@UEAA@XZ   0000000000556b20 f i item_sum.obj
 0001:00155b60       ?reset@Item_sum@@QEAAHXZ   0000000000556b60 f i item_sum.obj
 0001:00155bd0       ?type@Item_avg_field@@UEBA?AW4Type@Item@@XZ 0000000000556bd0 f i item_sum.obj
 0001:00155be0       ?is_null@Item_avg_field@@UEAAHXZ 0000000000556be0 f i item_sum.obj
 0001:00155c40       ?field_type@Item_avg_field@@UEBA?AW4enum_field_types@@XZ 0000000000556c40 f i item_sum.obj
 0001:00155ca0       ?fix_length_and_dec@Item_avg_field@@UEAAXXZ 0000000000556ca0 f i item_sum.obj
 0001:00155cb0       ?result_type@Item_avg_field@@UEBA?AW4Item_result@@XZ 0000000000556cb0 f i item_sum.obj
 0001:00155cd0       ??_EItem_avg_field@@UEAAPEAXI@Z 0000000000556cd0 f i item_sum.obj
 0001:00155cd0       ??_GItem_avg_field@@UEAAPEAXI@Z 0000000000556cd0 f i item_sum.obj
 0001:00155d40       ??1Item_avg_field@@UEAA@XZ 0000000000556d40 f i item_sum.obj
 0001:00155d80       ?val_int@Item_variance_field@@UEAA_JXZ 0000000000556d80 f i item_sum.obj
 0001:00155de0       ?val_str@Item_variance_field@@UEAAPEAVString@@PEAV2@@Z 0000000000556de0 f i item_sum.obj
 0001:00155e30       ?is_null@Item_variance_field@@UEAAHXZ 0000000000556e30 f i item_sum.obj
 0001:00155e90       ?fix_length_and_dec@Item_variance_field@@UEAAXXZ 0000000000556e90 f i item_sum.obj
 0001:00155ea0       ?type@Item_std_field@@UEBA?AW4Type@Item@@XZ 0000000000556ea0 f i item_sum.obj
 0001:00155eb0       ?result_type@Item_std_field@@UEBA?AW4Item_result@@XZ 0000000000556eb0 f i item_sum.obj
 0001:00155ec0       ?field_type@Item_std_field@@UEBA?AW4enum_field_types@@XZ 0000000000556ec0 f i item_sum.obj
 0001:00155ed0       ??_GItem_std_field@@UEAAPEAXI@Z 0000000000556ed0 f i item_sum.obj
 0001:00155ed0       ??_EItem_std_field@@UEAAPEAXI@Z 0000000000556ed0 f i item_sum.obj
 0001:00155f40       ??1Item_std_field@@UEAA@XZ 0000000000556f40 f i item_sum.obj
 0001:00155f80       ??1Item_variance_field@@UEAA@XZ 0000000000556f80 f i item_sum.obj
 0001:00155fc0       ?val_decimal@Item_variance_field@@UEAAPEAVmy_decimal@@PEAV2@@Z 0000000000556fc0 f i item_sum.obj
 0001:00156010       ?type@Item_variance_field@@UEBA?AW4Type@Item@@XZ 0000000000557010 f i item_sum.obj
 0001:00156020       ?field_type@Item_variance_field@@UEBA?AW4enum_field_types@@XZ 0000000000557020 f i item_sum.obj
 0001:00156080       ?result_type@Item_variance_field@@UEBA?AW4Item_result@@XZ 0000000000557080 f i item_sum.obj
 0001:001560a0       ??_EItem_variance_field@@UEAAPEAXI@Z 00000000005570a0 f i item_sum.obj
 0001:001560a0       ??_GItem_variance_field@@UEAAPEAXI@Z 00000000005570a0 f i item_sum.obj
 0001:00156110       ??_GTMP_TABLE_PARAM@@QEAAPEAXI@Z 0000000000557110 f i item_sum.obj
 0001:00156180       ?sum_func@Item_sum_count_distinct@@UEBA?AW4Sumfunctype@Item_sum@@XZ 0000000000557180 f i item_sum.obj
 0001:00156190       ?reset_field@Item_sum_count_distinct@@UEAAXXZ 0000000000557190 f i item_sum.obj
 0001:001561a0       ?update_field@Item_sum_count_distinct@@UEAAXXZ 00000000005571a0 f i item_sum.obj
 0001:001561b0       ?func_name@Item_sum_count_distinct@@UEBAPEBDXZ 00000000005571b0 f i item_sum.obj
 0001:001561d0       ?no_rows_in_result@Item_sum_count_distinct@@UEAAXXZ 00000000005571d0 f i item_sum.obj
 0001:001561e0       ??_EItem_sum_count_distinct@@UEAAPEAXI@Z 00000000005571e0 f i item_sum.obj
 0001:001561e0       ??_GItem_sum_count_distinct@@UEAAPEAXI@Z 00000000005571e0 f i item_sum.obj
 0001:00156250       ??0Item_sum_count_distinct@@QEAA@PEAVTHD@@PEAV0@@Z 0000000000557250 f i item_sum.obj
 0001:001563c0       ?elements_in_tree@Unique@@QEAAKXZ 00000000005573c0 f i item_sum.obj
 0001:001563e0       ?clear@udf_handler@@QEAAXXZ 00000000005573e0 f i item_sum.obj
 0001:00156480       ?add@udf_handler@@QEAAXPEAD@Z 0000000000557480 f i item_sum.obj
 0001:00156580       ??0Item_sum_udf_float@@QEAA@PEAVTHD@@PEAV0@@Z 0000000000557580 f i item_sum.obj
 0001:00156600       ??0Item_udf_sum@@QEAA@PEAVTHD@@PEAV0@@Z 0000000000557600 f i item_sum.obj
 0001:00156700       ?func_name@Item_udf_sum@@UEBAPEBDXZ 0000000000557700 f i item_sum.obj
 0001:00156750       ?name@udf_handler@@QEBAPEBDXZ 0000000000557750 f i item_sum.obj
 0001:001567c0       ?fix_fields@Item_udf_sum@@UEAAHPEAVTHD@@PEAPEAVItem@@@Z 00000000005577c0 f i item_sum.obj
 0001:001568d0       ?sum_func@Item_udf_sum@@UEBA?AW4Sumfunctype@Item_sum@@XZ 00000000005578d0 f i item_sum.obj
 0001:001568e0       ?have_field_update@Item_udf_sum@@UEBAHXZ 00000000005578e0 f i item_sum.obj
 0001:001568f0       ?reset_field@Item_udf_sum@@UEAAXXZ 00000000005578f0 f i item_sum.obj
 0001:00156900       ?update_field@Item_udf_sum@@UEAAXXZ 0000000000557900 f i item_sum.obj
 0001:00156910       ??_EItem_udf_sum@@UEAAPEAXI@Z 0000000000557910 f i item_sum.obj
 0001:00156910       ??_GItem_udf_sum@@UEAAPEAXI@Z 0000000000557910 f i item_sum.obj
 0001:00156980       ??1Item_udf_sum@@UEAA@XZ   0000000000557980 f i item_sum.obj
 0001:00156a10       ?val_int@Item_sum_udf_float@@UEAA_JXZ 0000000000557a10 f i item_sum.obj
 0001:00156a90       ?fix_length_and_dec@Item_sum_udf_float@@UEAAXXZ 0000000000557a90 f i item_sum.obj
 0001:00156ad0       ??_GItem_sum_udf_float@@UEAAPEAXI@Z 0000000000557ad0 f i item_sum.obj
 0001:00156ad0       ??_EItem_sum_udf_float@@UEAAPEAXI@Z 0000000000557ad0 f i item_sum.obj
 0001:00156b40       ??1Item_sum_udf_float@@UEAA@XZ 0000000000557b40 f i item_sum.obj
 0001:00156b80       ??0Item_sum_udf_decimal@@QEAA@PEAVTHD@@PEAV0@@Z 0000000000557b80 f i item_sum.obj
 0001:00156c00       ?result_type@Item_sum_udf_decimal@@UEBA?AW4Item_result@@XZ 0000000000557c00 f i item_sum.obj
 0001:00156c10       ?fix_length_and_dec@Item_sum_udf_decimal@@UEAAXXZ 0000000000557c10 f i item_sum.obj
 0001:00156c50       ??_GItem_sum_udf_decimal@@UEAAPEAXI@Z 0000000000557c50 f i item_sum.obj
 0001:00156c50       ??_EItem_sum_udf_decimal@@UEAAPEAXI@Z 0000000000557c50 f i item_sum.obj
 0001:00156cc0       ??1Item_sum_udf_decimal@@UEAA@XZ 0000000000557cc0 f i item_sum.obj
 0001:00156d00       ??0Item_sum_udf_int@@QEAA@PEAVTHD@@PEAV0@@Z 0000000000557d00 f i item_sum.obj
 0001:00156d80       ?val_real@Item_sum_udf_int@@UEAANXZ 0000000000557d80 f i item_sum.obj
 0001:00156e00       ?result_type@Item_sum_udf_int@@UEBA?AW4Item_result@@XZ 0000000000557e00 f i item_sum.obj
 0001:00156e10       ?fix_length_and_dec@Item_sum_udf_int@@UEAAXXZ 0000000000557e10 f i item_sum.obj
 0001:00156e40       ??_EItem_sum_udf_int@@UEAAPEAXI@Z 0000000000557e40 f i item_sum.obj
 0001:00156e40       ??_GItem_sum_udf_int@@UEAAPEAXI@Z 0000000000557e40 f i item_sum.obj
 0001:00156eb0       ??1Item_sum_udf_int@@UEAA@XZ 0000000000557eb0 f i item_sum.obj
 0001:00156ef0       ??0Item_sum_udf_str@@QEAA@PEAVTHD@@PEAV0@@Z 0000000000557ef0 f i item_sum.obj
 0001:00156f70       ?val_real@Item_sum_udf_str@@UEAANXZ 0000000000557f70 f i item_sum.obj
 0001:001570f0       ?val_int@Item_sum_udf_str@@UEAA_JXZ 00000000005580f0 f i item_sum.obj
 0001:00157230       ?result_type@Item_sum_udf_str@@UEBA?AW4Item_result@@XZ 0000000000558230 f i item_sum.obj
 0001:00157240       ??_GItem_sum_udf_str@@UEAAPEAXI@Z 0000000000558240 f i item_sum.obj
 0001:00157240       ??_EItem_sum_udf_str@@UEAAPEAXI@Z 0000000000558240 f i item_sum.obj
 0001:001572b0       ??1Item_sum_udf_str@@UEAA@XZ 00000000005582b0 f i item_sum.obj
 0001:001572f0       ??0Item_sum@@QEAA@XZ       00000000005582f0 f i item_sum.obj
 0001:001573d0       ?sum_func@Item_func_group_concat@@UEBA?AW4Sumfunctype@Item_sum@@XZ 00000000005583d0 f i item_sum.obj
 0001:001573e0       ?func_name@Item_func_group_concat@@UEBAPEBDXZ 00000000005583e0 f i item_sum.obj
 0001:00157400       ?result_type@Item_func_group_concat@@UEBA?AW4Item_result@@XZ 0000000000558400 f i item_sum.obj
 0001:00157410       ?field_type@Item_func_group_concat@@UEBA?AW4enum_field_types@@XZ 0000000000558410 f i item_sum.obj
 0001:00157490       ?reset_field@Item_func_group_concat@@UEAAXXZ 0000000000558490 f i item_sum.obj
 0001:001574f0       ?update_field@Item_func_group_concat@@UEAAXXZ 00000000005584f0 f i item_sum.obj
 0001:00157550       ?val_real@Item_func_group_concat@@UEAANXZ 0000000000558550 f i item_sum.obj
 0001:00157600       ?val_int@Item_func_group_concat@@UEAA_JXZ 0000000000558600 f i item_sum.obj
 0001:00157710       ?val_decimal@Item_func_group_concat@@UEAAPEAVmy_decimal@@PEAV2@@Z 0000000000558710 f i item_sum.obj
 0001:00157760       ?no_rows_in_result@Item_func_group_concat@@UEAAXXZ 0000000000558760 f i item_sum.obj
 0001:00157770       ?change_context_processor@Item_func_group_concat@@UEAAHPEAE@Z 0000000000558770 f i item_sum.obj
 0001:001577a0       ??_GItem_func_group_concat@@UEAAPEAXI@Z 00000000005587a0 f i item_sum.obj
 0001:001577a0       ??_EItem_func_group_concat@@UEAAPEAXI@Z 00000000005587a0 f i item_sum.obj
 0001:00157810       ??1Item_func_group_concat@@UEAA@XZ 0000000000558810 f i item_sum.obj
 0001:001578c0       ?is_null_in_record@Field@@QEAAHPEBE@Z 00000000005588c0 f i item_sum.obj
 0001:00157970       ??2String@@SAPEAX_KPEAUst_mem_root@@@Z 0000000000558970 f i item_sum.obj
 0001:001579c0       ??3String@@SAXPEAXPEAUst_mem_root@@@Z 00000000005589c0 f i item_sum.obj
 0001:001579d0       ??0?$List@Vcreate_field@@@@QEAA@XZ 00000000005589d0 f i item_sum.obj
 0001:00157a20       ?push_back@?$List@Vcreate_field@@@@QEAAHPEAVcreate_field@@@Z 0000000000558a20 f i item_sum.obj
 0001:00157a70       ??0Hybrid_type_traits_fast_decimal@@QEAA@XZ 0000000000558a70 f i item_sum.obj
 0001:00157ad0       ?type@Hybrid_type_traits_fast_decimal@@UEBA?AW4Item_result@@XZ 0000000000558ad0 f i item_sum.obj
 0001:00157ae0       ?fix_length_and_dec@Hybrid_type_traits_fast_decimal@@UEBAXPEAVItem@@0@Z 0000000000558ae0 f i item_sum.obj
 0001:00157b50       ?div@Hybrid_type_traits_fast_decimal@@UEBAXPEAUHybrid_type@@_K@Z 0000000000558b50 f i item_sum.obj
 0001:00157c20       ??_EHybrid_type_traits_fast_decimal@@UEAAPEAXI@Z 0000000000558c20 f i item_sum.obj
 0001:00157c20       ??_GHybrid_type_traits_fast_decimal@@UEAAPEAXI@Z 0000000000558c20 f i item_sum.obj
 0001:00157c90       ??1Hybrid_type_traits_fast_decimal@@UEAA@XZ 0000000000558c90 f i item_sum.obj
 0001:00157cd0       ?make_date_time@@YAHPEAUst_date_time_format@@PEAUst_mysql_time@@W4enum_mysql_timestamp_type@@PEAVString@@@Z 0000000000558cd0 f   item_timefunc.obj
 0001:00158b60       ?calc_time_diff@@YAHPEAUst_mysql_time@@0HPEA_JPEAJ@Z 0000000000559b60 f   item_timefunc.obj
 0001:00158d40       ?val_int@Item_func_period_add@@UEAA_JXZ 0000000000559d40 f   item_timefunc.obj
 0001:00158e50       ?val_int@Item_func_period_diff@@UEAA_JXZ 0000000000559e50 f   item_timefunc.obj
 0001:00158f60       ?val_int@Item_func_to_days@@UEAA_JXZ 0000000000559f60 f   item_timefunc.obj
 0001:00159000       ?val_int@Item_func_dayofyear@@UEAA_JXZ 000000000055a000 f   item_timefunc.obj
 0001:001590d0       ?val_int@Item_func_dayofmonth@@UEAA_JXZ 000000000055a0d0 f   item_timefunc.obj
 0001:00159160       ?val_int@Item_func_month@@UEAA_JXZ 000000000055a160 f   item_timefunc.obj
 0001:001591f0       ?val_str@Item_func_monthname@@UEAAPEAVString@@PEAV2@@Z 000000000055a1f0 f   item_timefunc.obj
 0001:001592f0       ?val_int@Item_func_quarter@@UEAA_JXZ 000000000055a2f0 f   item_timefunc.obj
 0001:00159390       ?val_int@Item_func_hour@@UEAA_JXZ 000000000055a390 f   item_timefunc.obj
 0001:00159410       ?val_int@Item_func_minute@@UEAA_JXZ 000000000055a410 f   item_timefunc.obj
 0001:00159490       ?val_int@Item_func_second@@UEAA_JXZ 000000000055a490 f   item_timefunc.obj
 0001:00159510       ?week_mode@@YAII@Z         000000000055a510 f   item_timefunc.obj
 0001:00159560       ?val_int@Item_func_week@@UEAA_JXZ 000000000055a560 f   item_timefunc.obj
 0001:00159640       ?val_int@Item_func_yearweek@@UEAA_JXZ 000000000055a640 f   item_timefunc.obj
 0001:00159730       ?val_int@Item_func_weekday@@UEAA_JXZ 000000000055a730 f   item_timefunc.obj
 0001:00159810       ?val_str@Item_func_dayname@@UEAAPEAVString@@PEAV2@@Z 000000000055a810 f   item_timefunc.obj
 0001:001598f0       ?val_int@Item_func_year@@UEAA_JXZ 000000000055a8f0 f   item_timefunc.obj
 0001:00159980       ?val_int@Item_func_unix_timestamp@@UEAA_JXZ 000000000055a980 f   item_timefunc.obj
 0001:00159af0       ?val_int@Item_func_time_to_sec@@UEAA_JXZ 000000000055aaf0 f   item_timefunc.obj
 0001:00159bc0       ?val_str@Item_date@@UEAAPEAVString@@PEAV2@@Z 000000000055abc0 f   item_timefunc.obj
 0001:00159c90       ?val_int@Item_date@@UEAA_JXZ 000000000055ac90 f   item_timefunc.obj
 0001:00159d50       ?get_date@Item_func_from_days@@UEAAHPEAUst_mysql_time@@I@Z 000000000055ad50 f   item_timefunc.obj
 0001:00159e20       ?fix_length_and_dec@Item_func_curdate@@UEAAXXZ 000000000055ae20 f   item_timefunc.obj
 0001:00159f10       ?val_str@Item_func_curdate@@UEAAPEAVString@@PEAV2@@Z 000000000055af10 f   item_timefunc.obj
 0001:00159fb0       ?store_now_in_TIME@Item_func_curdate_local@@UEAAXPEAUst_mysql_time@@@Z 000000000055afb0 f   item_timefunc.obj
 0001:0015a050       ?store_now_in_TIME@Item_func_curdate_utc@@UEAAXPEAUst_mysql_time@@@Z 000000000055b050 f   item_timefunc.obj
 0001:0015a0c0       ?get_date@Item_func_curdate@@UEAAHPEAUst_mysql_time@@I@Z 000000000055b0c0 f   item_timefunc.obj
 0001:0015a130       ?val_str@Item_func_curtime@@UEAAPEAVString@@PEAV2@@Z 000000000055b130 f   item_timefunc.obj
 0001:0015a1d0       ?fix_length_and_dec@Item_func_curtime@@UEAAXXZ 000000000055b1d0 f   item_timefunc.obj
 0001:0015a2a0       ?store_now_in_TIME@Item_func_curtime_local@@UEAAXPEAUst_mysql_time@@@Z 000000000055b2a0 f   item_timefunc.obj
 0001:0015a340       ?store_now_in_TIME@Item_func_curtime_utc@@UEAAXPEAUst_mysql_time@@@Z 000000000055b340 f   item_timefunc.obj
 0001:0015a3b0       ?val_str@Item_func_now@@UEAAPEAVString@@PEAV2@@Z 000000000055b3b0 f   item_timefunc.obj
 0001:0015a450       ?fix_length_and_dec@Item_func_now@@UEAAXXZ 000000000055b450 f   item_timefunc.obj
 0001:0015a530       ?store_now_in_TIME@Item_func_now_local@@UEAAXPEAUst_mysql_time@@@Z 000000000055b530 f   item_timefunc.obj
 0001:0015a5d0       ?store_now_in_TIME@Item_func_now_utc@@UEAAXPEAUst_mysql_time@@@Z 000000000055b5d0 f   item_timefunc.obj
 0001:0015a640       ?get_date@Item_func_now@@UEAAHPEAUst_mysql_time@@I@Z 000000000055b640 f   item_timefunc.obj
 0001:0015a6b0       ?save_in_field@Item_func_now@@UEAAHPEAVField@@H@Z 000000000055b6b0 f   item_timefunc.obj
 0001:0015a730       ?store_now_in_TIME@Item_func_sysdate_local@@UEAAXPEAUst_mysql_time@@@Z 000000000055b730 f   item_timefunc.obj
 0001:0015a810       ?val_str@Item_func_sysdate_local@@UEAAPEAVString@@PEAV2@@Z 000000000055b810 f   item_timefunc.obj
 0001:0015a900       ?val_int@Item_func_sysdate_local@@UEAA_JXZ 000000000055b900 f   item_timefunc.obj
 0001:0015a9a0       ?val_real@Item_func_sysdate_local@@UEAANXZ 000000000055b9a0 f   item_timefunc.obj
 0001:0015aa50       ?fix_length_and_dec@Item_func_sysdate_local@@UEAAXXZ 000000000055ba50 f   item_timefunc.obj
 0001:0015aab0       ?get_date@Item_func_sysdate_local@@UEAAHPEAUst_mysql_time@@I@Z 000000000055bab0 f   item_timefunc.obj
 0001:0015ab50       ?save_in_field@Item_func_sysdate_local@@UEAAHPEAVField@@H@Z 000000000055bb50 f   item_timefunc.obj
 0001:0015abf0       ?val_str@Item_func_sec_to_time@@UEAAPEAVString@@PEAV2@@Z 000000000055bbf0 f   item_timefunc.obj
 0001:0015af10       ?val_int@Item_func_sec_to_time@@UEAA_JXZ 000000000055bf10 f   item_timefunc.obj
 0001:0015b050       ?fix_length_and_dec@Item_func_date_format@@UEAAXXZ 000000000055c050 f   item_timefunc.obj
 0001:0015b1f0       ?eq@Item_func_date_format@@UEBAHPEBVItem@@H@Z 000000000055c1f0 f   item_timefunc.obj
 0001:0015b360       ?format_length@Item_func_date_format@@QEAAIPEBVString@@@Z 000000000055c360 f   item_timefunc.obj
 0001:0015b550       ?val_str@Item_func_date_format@@UEAAPEAVString@@PEAV2@@Z 000000000055c550 f   item_timefunc.obj
 0001:0015b850       ?fix_length_and_dec@Item_func_from_unixtime@@UEAAXXZ 000000000055c850 f   item_timefunc.obj
 0001:0015b8e0       ?val_str@Item_func_from_unixtime@@UEAAPEAVString@@PEAV2@@Z 000000000055c8e0 f   item_timefunc.obj
 0001:0015b9b0       ?val_int@Item_func_from_unixtime@@UEAA_JXZ 000000000055c9b0 f   item_timefunc.obj
 0001:0015ba50       ?get_date@Item_func_from_unixtime@@UEAAHPEAUst_mysql_time@@I@Z 000000000055ca50 f   item_timefunc.obj
 0001:0015bb30       ?fix_length_and_dec@Item_func_convert_tz@@UEAAXXZ 000000000055cb30 f   item_timefunc.obj
 0001:0015bba0       ?fix_fields@Item_func_convert_tz@@UEAAHPEAVTHD@@PEAPEAVItem@@@Z 000000000055cba0 f   item_timefunc.obj
 0001:0015bca0       ?val_str@Item_func_convert_tz@@UEAAPEAVString@@PEAV2@@Z 000000000055cca0 f   item_timefunc.obj
 0001:0015bd50       ?val_int@Item_func_convert_tz@@UEAA_JXZ 000000000055cd50 f   item_timefunc.obj
 0001:0015bdd0       ?get_date@Item_func_convert_tz@@UEAAHPEAUst_mysql_time@@I@Z 000000000055cdd0 f   item_timefunc.obj
 0001:0015c0b0       ?cleanup@Item_func_convert_tz@@UEAAXXZ 000000000055d0b0 f   item_timefunc.obj
 0001:0015c110       ?fix_length_and_dec@Item_date_add_interval@@UEAAXXZ 000000000055d110 f   item_timefunc.obj
 0001:0015c220       ?get_date@Item_date_add_interval@@UEAAHPEAUst_mysql_time@@I@Z 000000000055d220 f   item_timefunc.obj
 0001:0015d390       ?val_str@Item_date_add_interval@@UEAAPEAVString@@PEAV2@@Z 000000000055e390 f   item_timefunc.obj
 0001:0015d820       ?val_int@Item_date_add_interval@@UEAA_JXZ 000000000055e820 f   item_timefunc.obj
 0001:0015d910       ?eq@Item_date_add_interval@@UEBAHPEBVItem@@H@Z 000000000055e910 f   item_timefunc.obj
 0001:0015d9c0       ?print@Item_date_add_interval@@UEAAXPEAVString@@@Z 000000000055e9c0 f   item_timefunc.obj
 0001:0015dac0       ?print@Item_extract@@UEAAXPEAVString@@@Z 000000000055eac0 f   item_timefunc.obj
 0001:0015db80       ?fix_length_and_dec@Item_extract@@UEAAXXZ 000000000055eb80 f   item_timefunc.obj
 0001:0015ded0       ?val_int@Item_extract@@UEAA_JXZ 000000000055eed0 f   item_timefunc.obj
 0001:0015e360       ?eq@Item_extract@@UEBAHPEBVItem@@H@Z 000000000055f360 f   item_timefunc.obj
 0001:0015e480       ?eq@Item_char_typecast@@UEBAHPEBVItem@@H@Z 000000000055f480 f   item_timefunc.obj
 0001:0015e5c0       ?print@Item_typecast@@UEAAXPEAVString@@@Z 000000000055f5c0 f   item_timefunc.obj
 0001:0015e680       ?print@Item_char_typecast@@UEAAXPEAVString@@@Z 000000000055f680 f   item_timefunc.obj
 0001:0015e870       ?val_str@Item_char_typecast@@UEAAPEAVString@@PEAV2@@Z 000000000055f870 f   item_timefunc.obj
 0001:0015ece0       ?fix_length_and_dec@Item_char_typecast@@UEAAXXZ 000000000055fce0 f   item_timefunc.obj
 0001:0015ef00       ?val_str@Item_datetime_typecast@@UEAAPEAVString@@PEAV2@@Z 000000000055ff00 f   item_timefunc.obj
 0001:0015efd0       ?val_int@Item_datetime_typecast@@UEAA_JXZ 000000000055ffd0 f   item_timefunc.obj
 0001:0015f070       ?get_time@Item_time_typecast@@UEAAHPEAUst_mysql_time@@@Z 0000000000560070 f   item_timefunc.obj
 0001:0015f100       ?val_int@Item_time_typecast@@UEAA_JXZ 0000000000560100 f   item_timefunc.obj
 0001:0015f190       ?val_str@Item_time_typecast@@UEAAPEAVString@@PEAV2@@Z 0000000000560190 f   item_timefunc.obj
 0001:0015f260       ?get_date@Item_date_typecast@@UEAAHPEAUst_mysql_time@@I@Z 0000000000560260 f   item_timefunc.obj
 0001:0015f300       ?val_str@Item_date_typecast@@UEAAPEAVString@@PEAV2@@Z 0000000000560300 f   item_timefunc.obj
 0001:0015f3d0       ?val_int@Item_date_typecast@@UEAA_JXZ 00000000005603d0 f   item_timefunc.obj
 0001:0015f4b0       ?val_str@Item_func_makedate@@UEAAPEAVString@@PEAV2@@Z 00000000005604b0 f   item_timefunc.obj
 0001:0015f650       ?val_int@Item_func_makedate@@UEAA_JXZ 0000000000560650 f   item_timefunc.obj
 0001:0015f7e0       ?fix_length_and_dec@Item_func_add_time@@UEAAXXZ 00000000005607e0 f   item_timefunc.obj
 0001:0015f8a0       ?val_str@Item_func_add_time@@UEAAPEAVString@@PEAV2@@Z 00000000005608a0 f   item_timefunc.obj
 0001:0015fd90       ?print@Item_func_add_time@@UEAAXPEAVString@@@Z 0000000000560d90 f   item_timefunc.obj
 0001:0015fec0       ?val_str@Item_func_timediff@@UEAAPEAVString@@PEAV2@@Z 0000000000560ec0 f   item_timefunc.obj
 0001:001600e0       ?val_str@Item_func_maketime@@UEAAPEAVString@@PEAV2@@Z 00000000005610e0 f   item_timefunc.obj
 0001:00160580       ?val_int@Item_func_microsecond@@UEAA_JXZ 0000000000561580 f   item_timefunc.obj
 0001:00160610       ?val_int@Item_func_timestamp_diff@@UEAA_JXZ 0000000000561610 f   item_timefunc.obj
 0001:00160be0       ?print@Item_func_timestamp_diff@@UEAAXPEAVString@@@Z 0000000000561be0 f   item_timefunc.obj
 0001:00160df0       ?val_str@Item_func_get_format@@UEAAPEAVString@@PEAV2@@Z 0000000000561df0 f   item_timefunc.obj
 0001:00160f90       ?print@Item_func_get_format@@UEAAXPEAVString@@@Z 0000000000561f90 f   item_timefunc.obj
 0001:001610c0       ?tmp_table_field@Item_func_str_to_date@@UEAAPEAVField@@PEAUst_table@@@Z 00000000005620c0 f   item_timefunc.obj
 0001:001613f0       ?fix_length_and_dec@Item_func_str_to_date@@UEAAXXZ 00000000005623f0 f   item_timefunc.obj
 0001:00161850       ?get_date@Item_func_str_to_date@@UEAAHPEAUst_mysql_time@@I@Z 0000000000562850 f   item_timefunc.obj
 0001:00163090       ?val_str@Item_func_str_to_date@@UEAAPEAVString@@PEAV2@@Z 0000000000564090 f   item_timefunc.obj
 0001:00163180       ?get_date@Item_func_last_day@@UEAAHPEAUst_mysql_time@@I@Z 0000000000564180 f   item_timefunc.obj
 0001:00165fb0       ?get_arg0_date@Item_func@@QEAAHPEAUst_mysql_time@@I@Z 0000000000566fb0 f i item_timefunc.obj
 0001:00166040       ?get_arg0_time@Item_func@@QEAAHPEAUst_mysql_time@@@Z 0000000000567040 f i item_timefunc.obj
 0001:001660c0       ?get_timestamp@Field_timestamp@@QEAAJPEAD@Z 00000000005670c0 f i item_timefunc.obj
 0001:00166190       ?create_tmp_field@Item_sum_unique_users@@UEAAPEAVField@@HPEAUst_table@@I@Z 0000000000567190 f   item_uniq.obj
 0001:001662a0       ?find_ref_key@@YAHPEAUst_table@@PEAVField@@PEAI@Z 00000000005672a0 f   key.obj
 0001:00166420       ?key_copy@@YAXPEAE0PEAUst_key@@I@Z 0000000000567420 f   key.obj
 0001:001667f0       ?key_restore@@YAXPEAE0PEAUst_key@@I@Z 00000000005677f0 f   key.obj
 0001:00166d40       ?key_cmp_if_same@@YAHPEAUst_table@@PEBEII@Z 0000000000567d40 f   key.obj
 0001:001670b0       ?key_unpack@@YAXPEAVString@@PEAUst_table@@I@Z 00000000005680b0 f   key.obj
 0001:001673a0       ?is_key_used@@YAHPEAUst_table@@IAEAV?$List@VItem@@@@@Z 00000000005683a0 f   key.obj
 0001:001675c0       ?key_cmp@@YAHPEAUst_key_part_info@@PEBEI@Z 00000000005685c0 f   key.obj
 0001:00167c40       ?rewind@?$List_iterator_fast@VItem@@@@QEAAXXZ 0000000000568c40 f i key.obj
 0001:00168870       ?check_binlog_magic@@YAHPEAUst_io_cache@@PEAPEBD@Z 0000000000569870 f   log.obj
 0001:001689f0       ?open_binlog@@YAHPEAUst_io_cache@@PEBDPEAPEBD@Z 00000000005699f0 f   log.obj
 0001:00168be0       ??0MYSQL_LOG@@QEAA@XZ      0000000000569be0 f   log.obj
 0001:00168d40       ?cleanup@MYSQL_LOG@@QEAAXXZ 0000000000569d40 f   log.obj
 0001:00168f30       ?generate_new_name@MYSQL_LOG@@QEAAHPEADPEBD@Z 0000000000569f30 f   log.obj
 0001:001692c0       ?init@MYSQL_LOG@@QEAAXW4enum_log_type@@W4cache_type@@HK@Z 000000000056a2c0 f   log.obj
 0001:00169420       ?init_pthread_objects@MYSQL_LOG@@QEAAXXZ 000000000056a420 f   log.obj
 0001:001694c0       ?generate_name@MYSQL_LOG@@QEAAPEBDPEBD0HPEAD@Z 000000000056a4c0 f   log.obj
 0001:001695b0       ?open_index_file@MYSQL_LOG@@QEAAHPEBD0@Z 000000000056a5b0 f   log.obj
 0001:00169710       ?open@MYSQL_LOG@@QEAAHPEBDW4enum_log_type@@0W4cache_type@@HKH@Z 000000000056a710 f   log.obj
 0001:0016a500       ?get_current_log@MYSQL_LOG@@QEAAHPEAUst_log_info@@@Z 000000000056b500 f   log.obj
 0001:0016a570       ?raw_get_current_log@MYSQL_LOG@@QEAAHPEAUst_log_info@@@Z 000000000056b570 f   log.obj
 0001:0016a600       ?find_log_pos@MYSQL_LOG@@QEAAHPEAUst_log_info@@PEBDH@Z 000000000056b600 f   log.obj
 0001:0016a980       ?find_next_log@MYSQL_LOG@@QEAAHPEAUst_log_info@@H@Z 000000000056b980 f   log.obj
 0001:0016aaf0       ?reset_logs@MYSQL_LOG@@QEAAHPEAVTHD@@@Z 000000000056baf0 f   log.obj
 0001:0016ae60       ?purge_first_log@MYSQL_LOG@@QEAAHPEAUst_relay_log_info@@H@Z 000000000056be60 f   log.obj
 0001:0016b310       ?update_log_index@MYSQL_LOG@@QEAAHPEAUst_log_info@@H@Z 000000000056c310 f   log.obj
 0001:0016b5f0       ?purge_logs@MYSQL_LOG@@QEAAHPEBDHHHPEA_K@Z 000000000056c5f0 f   log.obj
 0001:0016b960       ?purge_logs_before_date@MYSQL_LOG@@QEAAH_J@Z 000000000056c960 f   log.obj
 0001:0016bbb0       ?make_log_name@MYSQL_LOG@@QEAAXPEADPEBD@Z 000000000056cbb0 f   log.obj
 0001:0016bc60       ?is_active@MYSQL_LOG@@QEAAHPEBD@Z 000000000056cc60 f   log.obj
 0001:0016bcd0       ?new_file@MYSQL_LOG@@QEAAXH@Z 000000000056ccd0 f   log.obj
 0001:0016c130       ?append@MYSQL_LOG@@QEAAHPEAVLog_event@@@Z 000000000056d130 f   log.obj
 0001:0016c340       ?appendv@MYSQL_LOG@@QEAAHPEBDIZZ 000000000056d340 f   log.obj
 0001:0016c620       ?write@MYSQL_LOG@@QEAAHPEAVTHD@@W4enum_server_command@@PEBDZZ 000000000056d620 f   log.obj
 0001:0016cd90       ?flush_and_sync@MYSQL_LOG@@QEAAHXZ 000000000056dd90 f   log.obj
 0001:0016ce40       ?start_union_events@MYSQL_LOG@@QEAAXPEAVTHD@@_K@Z 000000000056de40 f   log.obj
 0001:0016cee0       ?stop_union_events@MYSQL_LOG@@QEAAXPEAVTHD@@@Z 000000000056dee0 f   log.obj
 0001:0016cf50       ?is_query_in_union@MYSQL_LOG@@QEAAHPEAVTHD@@_K@Z 000000000056df50 f   log.obj
 0001:0016cfc0       ?write@MYSQL_LOG@@QEAAHPEAVLog_event@@@Z 000000000056dfc0 f   log.obj
 0001:0016d8d0       ?rotate_and_purge@MYSQL_LOG@@QEAAXI@Z 000000000056e8d0 f   log.obj
 0001:0016d9d0       ?next_file_id@MYSQL_LOG@@QEAAIXZ 000000000056e9d0 f   log.obj
 0001:0016da50       ?write@MYSQL_LOG@@QEAAHPEAVTHD@@PEAUst_io_cache@@PEAVLog_event@@@Z 000000000056ea50 f   log.obj
 0001:0016e4c0       ?write@MYSQL_LOG@@QEAAHPEAVTHD@@PEBDI_J@Z 000000000056f4c0 f   log.obj
 0001:0016f0a0       ?wait_for_update@MYSQL_LOG@@QEAAXPEAVTHD@@H@Z 00000000005700a0 f   log.obj
 0001:0016f200       ?close@MYSQL_LOG@@QEAAXI@Z 0000000000570200 f   log.obj
 0001:0016f670       ?set_max_size@MYSQL_LOG@@QEAAXK@Z 0000000000570670 f   log.obj
 0001:0016fa60       ?sql_perror@@YAXPEBD@Z     0000000000570a60 f   log.obj
 0001:0016faa0       ?flush_error_log@@YAHXZ    0000000000570aa0 f   log.obj
 0001:0016fcf0       ?signal_update@MYSQL_LOG@@QEAAXXZ 0000000000570cf0 f   log.obj
 0001:0016fdc0       ?vprint_msg_to_log@@YAXW4loglevel@@PEBDPEAD@Z 0000000000570dc0 f   log.obj
 0001:00170500       ?sql_print_error@@YAXPEBDZZ 0000000000571500 f   log.obj
 0001:001705f0       ?sql_print_warning@@YAXPEBDZZ 00000000005715f0 f   log.obj
 0001:001706e0       ?sql_print_information@@YAXPEBDZZ 00000000005716e0 f   log.obj
 0001:001707d0       ?open@TC_LOG_MMAP@@UEAAHPEBD@Z 00000000005717d0 f   log.obj
 0001:00170ef0       ?get_active_from_pool@TC_LOG_MMAP@@AEAAXXZ 0000000000571ef0 f   log.obj
 0001:001710d0       ?overflow@TC_LOG_MMAP@@AEAAHXZ 00000000005720d0 f   log.obj
 0001:00171140       ?log_xid@TC_LOG_MMAP@@UEAAHPEAVTHD@@_K@Z 0000000000572140 f   log.obj
 0001:001714c0       ?sync@TC_LOG_MMAP@@AEAAHXZ 00000000005724c0 f   log.obj
 0001:00171670       ?unlog@TC_LOG_MMAP@@UEAAXK_K@Z 0000000000572670 f   log.obj
 0001:00171820       ?close@TC_LOG_MMAP@@UEAAXXZ 0000000000572820 f   log.obj
 0001:00171a20       ?recover@TC_LOG_MMAP@@QEAAHXZ 0000000000572a20 f   log.obj
 0001:00171ca0       ?using_heuristic_recover@TC_LOG@@QEAAHXZ 0000000000572ca0 f   log.obj
 0001:00171d10       ?open@MYSQL_LOG@@UEAAHPEBD@Z 0000000000572d10 f   log.obj
 0001:00172210       ?close@MYSQL_LOG@@UEAAXXZ  0000000000573210 f   log.obj
 0001:00172290       ?log_xid@MYSQL_LOG@@UEAAHPEAVTHD@@_K@Z 0000000000573290 f   log.obj
 0001:001723b0       ?unlog@MYSQL_LOG@@UEAAXK_K@Z 00000000005733b0 f   log.obj
 0001:00172460       ?recover@MYSQL_LOG@@QEAAHPEAUst_io_cache@@PEAVFormat_description_log_event@@@Z 0000000000573460 f   log.obj
 0001:00175160       ??1Query_log_event@@UEAA@XZ 0000000000576160 f i log.obj
 0001:001751f0       ?write_data_header@Log_event@@UEAAHPEAUst_io_cache@@@Z 00000000005761f0 f i log.obj
 0001:00175210       ?write_data_body@Log_event@@UEAAHPEAUst_io_cache@@@Z 0000000000576210 f i log.obj
 0001:00175230       ?is_artificial_event@Log_event@@UEAAHXZ 0000000000576230 f i log.obj
 0001:00175240       ??1Log_event@@UEAA@XZ      0000000000576240 f i log.obj
 0001:001752a0       ?get_db@Log_event@@UEAAPEBDXZ 00000000005762a0 f i log.obj
 0001:00175310       ?write@Log_event@@UEAAHPEAUst_io_cache@@@Z 0000000000576310 f i log.obj
 0001:001753e0       ?free_temp_buf@Log_event@@QEAAXXZ 00000000005763e0 f i log.obj
 0001:00175460       ?get_data_size@Log_event@@UEAAHXZ 0000000000576460 f i log.obj
 0001:00175470       ??_ELog_event@@UEAAPEAXI@Z 0000000000576470 f i log.obj
 0001:00175470       ??_GLog_event@@UEAAPEAXI@Z 0000000000576470 f i log.obj
 0001:001754e0       ??3Log_event@@SAXPEAX_K@Z  00000000005764e0 f i log.obj
 0001:00175540       ?get_db@Query_log_event@@UEAAPEBDXZ 0000000000576540 f i log.obj
